Archive member included to satisfy reference by file (symbol)

CMakeFiles\Basic_workflow.dir/objects.a(unity_4_c.c.obj)
                              (--whole-archive)
CMakeFiles\Basic_workflow.dir/objects.a(unity_3_c.c.obj)
                              (--whole-archive)
CMakeFiles\Basic_workflow.dir/objects.a(unity_2_c.c.obj)
                              (--whole-archive)
CMakeFiles\Basic_workflow.dir/objects.a(unity_1_c.c.obj)
                              (--whole-archive)
CMakeFiles\Basic_workflow.dir/objects.a(unity_0_c.c.obj)
                              (--whole-archive)
CMakeFiles\Basic_workflow.dir/objects.a(MySWC.c.obj)
                              (--whole-archive)
CMakeFiles\Basic_workflow.dir/objects.a(Det.c.obj)
                              (--whole-archive)
CMakeFiles\Basic_workflow.dir/objects.a(EcuM_Cfg.c.obj)
                              (--whole-archive)
CMakeFiles\Basic_workflow.dir/objects.a(EcuM_Cfg_PbExt.c.obj)
                              (--whole-archive)
CMakeFiles\Basic_workflow.dir/objects.a(EcuM_Cfg_RbMo.c.obj)
                              (--whole-archive)
CMakeFiles\Basic_workflow.dir/objects.a(EcuM_Cfg_Shutdown.c.obj)
                              (--whole-archive)
CMakeFiles\Basic_workflow.dir/objects.a(EcuM_Cfg_Sleep.c.obj)
                              (--whole-archive)
CMakeFiles\Basic_workflow.dir/objects.a(EcuM_Cfg_Startup.c.obj)
                              (--whole-archive)
CMakeFiles\Basic_workflow.dir/objects.a(EcuM_Cfg_SynchPoint.c.obj)
                              (--whole-archive)
CMakeFiles\Basic_workflow.dir/objects.a(EcuM_Lcfg.c.obj)
                              (--whole-archive)
CMakeFiles\Basic_workflow.dir/objects.a(EcuM_PBcfg.c.obj)
                              (--whole-archive)
CMakeFiles\Basic_workflow.dir/objects.a(EcuM_Callout_Stubs.c.obj)
                              (--whole-archive)
CMakeFiles\Basic_workflow.dir/objects.a(EcuM_BootTarget.c.obj)
                              (--whole-archive)
CMakeFiles\Basic_workflow.dir/objects.a(EcuM_CurrentState.c.obj)
                              (--whole-archive)
CMakeFiles\Basic_workflow.dir/objects.a(EcuM_KillAllRequests.c.obj)
                              (--whole-archive)
CMakeFiles\Basic_workflow.dir/objects.a(EcuM_MainFunction.c.obj)
                              (--whole-archive)
CMakeFiles\Basic_workflow.dir/objects.a(EcuM_Misc.c.obj)
                              (--whole-archive)
CMakeFiles\Basic_workflow.dir/objects.a(EcuM_Prv.c.obj)
                              (--whole-archive)
CMakeFiles\Basic_workflow.dir/objects.a(EcuM_Prv_RteActions.c.obj)
                              (--whole-archive)
CMakeFiles\Basic_workflow.dir/objects.a(EcuM_ReleasePOST_RUN.c.obj)
                              (--whole-archive)
CMakeFiles\Basic_workflow.dir/objects.a(EcuM_ReleaseRUN.c.obj)
                              (--whole-archive)
CMakeFiles\Basic_workflow.dir/objects.a(EcuM_RequestPOST_RUN.c.obj)
                              (--whole-archive)
CMakeFiles\Basic_workflow.dir/objects.a(EcuM_RequestRUN.c.obj)
                              (--whole-archive)
CMakeFiles\Basic_workflow.dir/objects.a(EcuM_SetState.c.obj)
                              (--whole-archive)
CMakeFiles\Basic_workflow.dir/objects.a(EcuM_Shutdown.c.obj)
                              (--whole-archive)
CMakeFiles\Basic_workflow.dir/objects.a(EcuM_ShutdownServices.c.obj)
                              (--whole-archive)
CMakeFiles\Basic_workflow.dir/objects.a(EcuM_Sleep.c.obj)
                              (--whole-archive)
CMakeFiles\Basic_workflow.dir/objects.a(EcuM_Startup.c.obj)
                              (--whole-archive)
CMakeFiles\Basic_workflow.dir/objects.a(EcuM_WakeupServices.c.obj)
                              (--whole-archive)
CMakeFiles\Basic_workflow.dir/objects.a(Rte.c.obj)
                              (--whole-archive)
CMakeFiles\Basic_workflow.dir/objects.a(Rte_Lib.c.obj)
                              (--whole-archive)
CMakeFiles\Basic_workflow.dir/objects.a(Can_Device.cpp.obj)
                              (--whole-archive)
CMakeFiles\Basic_workflow.dir/objects.a(Can_HwProvider.cpp.obj)
                              (--whole-archive)
CMakeFiles\Basic_workflow.dir/objects.a(Can_Implementation.cpp.obj)
                              (--whole-archive)
CMakeFiles\Basic_workflow.dir/objects.a(Mcu_Device.cpp.obj)
                              (--whole-archive)
CMakeFiles\Basic_workflow.dir/objects.a(Mcu_Implementation.cpp.obj)
                              (--whole-archive)
CMakeFiles\Basic_workflow.dir/objects.a(VirtualCan.cpp.obj)
                              (--whole-archive)
CMakeFiles\Basic_workflow.dir/objects.a(VRTA_SystemClock.cpp.obj)
                              (--whole-archive)
CMakeFiles\Basic_workflow.dir/objects.a(Vrta_Cfg.cpp.obj)
                              (--whole-archive)
CMakeFiles\Basic_workflow.dir/objects.a(target.cpp.obj)
                              (--whole-archive)
C:/ETAS/RTA-CAR_12.2.0/RTA-CAR/workspace/Basic_Workflow/build/../src/os\RTAOS.lib(TerminateTask.o)
                              CMakeFiles\Basic_workflow.dir/objects.a(unity_4_c.c.obj) (Os_TerminateTask)
C:/ETAS/RTA-CAR_12.2.0/RTA-CAR/workspace/Basic_Workflow/build/../src/os\RTAOS.lib(Os_SetJmp.o)
                              C:/ETAS/RTA-CAR_12.2.0/RTA-CAR/workspace/Basic_Workflow/build/../src/os\RTAOS.lib(TerminateTask.o) (Os_LongJmp)
C:/ETAS/RTA-CAR_12.2.0/RTA-CAR/workspace/Basic_Workflow/build/../src/os\RTAOS.lib(GetTaskID.o)
                              CMakeFiles\Basic_workflow.dir/objects.a(unity_4_c.c.obj) (Os_GetTaskID)
C:/ETAS/RTA-CAR_12.2.0/RTA-CAR/workspace/Basic_Workflow/build/../src/os\RTAOS.lib(SuspendOSInterrupts.o)
                              CMakeFiles\Basic_workflow.dir/objects.a(Rte.c.obj) (Os_SuspendOSInterrupts)
C:/ETAS/RTA-CAR_12.2.0/RTA-CAR/workspace/Basic_Workflow/build/../src/os\RTAOS.lib(Os_Cfg_Counters.o)
                              CMakeFiles\Basic_workflow.dir/objects.a(unity_4_c.c.obj) (Os_IncrementCounter_Rte_TickCounter)
C:/ETAS/RTA-CAR_12.2.0/RTA-CAR/workspace/Basic_Workflow/build/../src/os\RTAOS.lib(SuspendAllInterrupts.o)
                              CMakeFiles\Basic_workflow.dir/objects.a(Det.c.obj) (Os_SuspendAllInterrupts)
C:/ETAS/RTA-CAR_12.2.0/RTA-CAR/workspace/Basic_Workflow/build/../src/os\RTAOS.lib(Os_Cfg.o)
                              C:/ETAS/RTA-CAR_12.2.0/RTA-CAR/workspace/Basic_Workflow/build/../src/os\RTAOS.lib(TerminateTask.o) (Os_RunningTask)
C:/ETAS/RTA-CAR_12.2.0/RTA-CAR/workspace/Basic_Workflow/build/../src/os\RTAOS.lib(StopScheduleTable.o)
                              CMakeFiles\Basic_workflow.dir/objects.a(Rte_Lib.c.obj) (Os_StopScheduleTable)
C:/ETAS/RTA-CAR_12.2.0/RTA-CAR/workspace/Basic_Workflow/build/../src/os\RTAOS.lib(ResumeOSInterrupts.o)
                              CMakeFiles\Basic_workflow.dir/objects.a(Rte.c.obj) (Os_ResumeOSInterrupts)
C:/ETAS/RTA-CAR_12.2.0/RTA-CAR/workspace/Basic_Workflow/build/../src/os\RTAOS.lib(vrtaSystemClock.o)
                              CMakeFiles\Basic_workflow.dir/objects.a(VRTA_SystemClock.cpp.obj) (vrtaSystemClockType::Subscribe(vrtaSystemClockSubscriber*))
C:/ETAS/RTA-CAR_12.2.0/RTA-CAR/workspace/Basic_Workflow/build/../src/os\RTAOS.lib(StartScheduleTableRel.o)
                              CMakeFiles\Basic_workflow.dir/objects.a(Rte_Lib.c.obj) (Os_StartScheduleTableRel)
C:/ETAS/RTA-CAR_12.2.0/RTA-CAR/workspace/Basic_Workflow/build/../src/os\RTAOS.lib(ResumeAllInterrupts.o)
                              CMakeFiles\Basic_workflow.dir/objects.a(Det.c.obj) (Os_ResumeAllInterrupts)
C:/ETAS/RTA-CAR_12.2.0/RTA-CAR/workspace/Basic_Workflow/build/../src/os\RTAOS.lib(GetResource.o)
                              CMakeFiles\Basic_workflow.dir/objects.a(Rte_Lib.c.obj) (Os_GetResource)
C:/ETAS/RTA-CAR_12.2.0/RTA-CAR/workspace/Basic_Workflow/build/../src/os\RTAOS.lib(vrtaSampleDevices.o)
                              CMakeFiles\Basic_workflow.dir/objects.a(VRTA_SystemClock.cpp.obj) (vrtaBaseClock::Start())
C:/ETAS/RTA-CAR_12.2.0/RTA-CAR/workspace/Basic_Workflow/build/../src/os\RTAOS.lib(StartOS.o)
                              CMakeFiles\Basic_workflow.dir/objects.a(EcuM_Prv.c.obj) (Os_StartOS)
C:/ETAS/RTA-CAR_12.2.0/RTA-CAR/workspace/Basic_Workflow/build/../src/os\RTAOS.lib(ShutdownOS.o)
                              CMakeFiles\Basic_workflow.dir/objects.a(EcuM_MainFunction.c.obj) (Os_ShutdownOS)
C:/ETAS/RTA-CAR_12.2.0/RTA-CAR/workspace/Basic_Workflow/build/../src/os\RTAOS.lib(vrtaPrintf.o)
                              CMakeFiles\Basic_workflow.dir/objects.a(unity_4_c.c.obj) (vrtaPrintf)
C:/ETAS/RTA-CAR_12.2.0/RTA-CAR/workspace/Basic_Workflow/build/../src/os\RTAOS.lib(ActivateTask.o)
                              CMakeFiles\Basic_workflow.dir/objects.a(Rte_Lib.c.obj) (Os_ActivateTask)
C:/ETAS/RTA-CAR_12.2.0/RTA-CAR/workspace/Basic_Workflow/build/../src/os\RTAOS.lib(ReleaseResource.o)
                              CMakeFiles\Basic_workflow.dir/objects.a(Rte_Lib.c.obj) (Os_ReleaseResource)
C:/ETAS/RTA-CAR_12.2.0/RTA-CAR/workspace/Basic_Workflow/build/../src/os\RTAOS.lib(GetISRID.o)
                              CMakeFiles\Basic_workflow.dir/objects.a(unity_4_c.c.obj) (Os_GetISRID)
C:/ETAS/RTA-CAR_12.2.0/RTA-CAR/workspace/Basic_Workflow/build/../src/os\RTAOS.lib(vrtaLoggerDevice.o)
                              CMakeFiles\Basic_workflow.dir/objects.a(target.cpp.obj) (Logger::setfile(char*))
C:/ETAS/RTA-CAR_12.2.0/RTA-CAR/workspace/Basic_Workflow/build/../src/os\RTAOS.lib(vrtaIdleHandling.o)
                              C:/ETAS/RTA-CAR_12.2.0/RTA-CAR/workspace/Basic_Workflow/build/../src/os\RTAOS.lib(vrtaSystemClock.o) (vrtaIdleSubscriber::vrtaIdleSubscriber())
C:/ETAS/RTA-CAR_12.2.0/RTA-CAR/workspace/Basic_Workflow/build/../src/os\RTAOS.lib(DispatchTask.o)
                              C:/ETAS/RTA-CAR_12.2.0/RTA-CAR/workspace/Basic_Workflow/build/../src/os\RTAOS.lib(Os_Cfg_Counters.o) (Os_Dispatch)
C:/ETAS/RTA-CAR_12.2.0/RTA-CAR/workspace/Basic_Workflow/build/../src/os\RTAOS.lib(vrtaCore.o)
                              C:/ETAS/RTA-CAR_12.2.0/RTA-CAR/workspace/Basic_Workflow/build/../src/os\RTAOS.lib(vrtaSampleDevices.o) (vrtaDevice::WriteToPersistentStorage(unsigned short*, unsigned char**))
C:/ETAS/RTA-CAR_12.2.0/RTA-CAR/workspace/Basic_Workflow/build/../src/os\RTAOS.lib(vrtaAppMain.o)
                              c:/mingw/bin/../lib/gcc/mingw32/6.3.0/../../../crt2.o (main)
C:/ETAS/RTA-CAR_12.2.0/RTA-CAR/workspace/Basic_Workflow/build/../src/os\RTAOS.lib(virtualDevice.o)
                              CMakeFiles\Basic_workflow.dir/objects.a(Can_Device.cpp.obj) (VirtualDevice::EventHandler(vrtaEvent&))
C:/ETAS/RTA-CAR_12.2.0/RTA-CAR/workspace/Basic_Workflow/build/../src/os\RTAOS.lib(Os_vectors.o)
                              C:/ETAS/RTA-CAR_12.2.0/RTA-CAR/workspace/Basic_Workflow/build/../src/os\RTAOS.lib(vrtaAppMain.o) (Os_InterruptVectorTable)
C:/ETAS/RTA-CAR_12.2.0/RTA-CAR/workspace/Basic_Workflow/build/../src/os\RTAOS.lib(Os_Stack.o)
                              C:/ETAS/RTA-CAR_12.2.0/RTA-CAR/workspace/Basic_Workflow/build/../src/os\RTAOS.lib(Os_Cfg.o) (Os_GetSP)
C:/ETAS/RTA-CAR_12.2.0/RTA-CAR/workspace/Basic_Workflow/build/../src/os\RTAOS.lib(Os_Cfg_KL.o)
                              C:/ETAS/RTA-CAR_12.2.0/RTA-CAR/workspace/Basic_Workflow/build/../src/os\RTAOS.lib(Os_Cfg_Counters.o) (Os_ActivateTaskKL)
C:/ETAS/RTA-CAR_12.2.0/RTA-CAR/workspace/Basic_Workflow/build/../src/os\RTAOS.lib(Os_fsb.o)
                              C:/ETAS/RTA-CAR_12.2.0/RTA-CAR/workspace/Basic_Workflow/build/../src/os\RTAOS.lib(DispatchTask.o) (@Os_fsb@4)
C:/ETAS/RTA-CAR_12.2.0/RTA-CAR/workspace/Basic_Workflow/build/../src/os\RTAOS.lib(GetStackValue.o)
                              C:/ETAS/RTA-CAR_12.2.0/RTA-CAR/workspace/Basic_Workflow/build/../src/os\RTAOS.lib(Os_Cfg.o) (Os_GetStackValue)
C:/ETAS/RTA-CAR_12.2.0/RTA-CAR/workspace/Basic_Workflow/build/../src/os\RTAOS.lib(vrtaSystemClockDevice.o)
                              C:/ETAS/RTA-CAR_12.2.0/RTA-CAR/workspace/Basic_Workflow/build/../src/os\RTAOS.lib(vrtaSystemClock.o) (SystemClockTickUpdateNotification(unsigned int))
C:/ETAS/RTA-CAR_12.2.0/RTA-CAR/workspace/Basic_Workflow/build/../src/os\RTAOS.lib(InShutdown.o)
                              C:/ETAS/RTA-CAR_12.2.0/RTA-CAR/workspace/Basic_Workflow/build/../src/os\RTAOS.lib(ShutdownOS.o) (Os_Cbk_InShutdown)
C:/ETAS/RTA-CAR_12.2.0/RTA-CAR/workspace/Basic_Workflow/build/../src/os\RTAOS.lib(vrtaOSMonitorDevice.o)
                              C:/ETAS/RTA-CAR_12.2.0/RTA-CAR/workspace/Basic_Workflow/build/../src/os\RTAOS.lib(vrtaAppMain.o) (EnableOsMonitor)
C:/ETAS/RTA-CAR_12.2.0/RTA-CAR/workspace/Basic_Workflow/build/../src/os\RTAOS.lib(Os_wrapper.o)
                              C:/ETAS/RTA-CAR_12.2.0/RTA-CAR/workspace/Basic_Workflow/build/../src/os\RTAOS.lib(Os_vectors.o) (Os_ISRWrapper)
c:/mingw/bin/../lib/gcc/mingw32/6.3.0/../../..\libwinmm.a(drqcs00150.o)
                              C:/ETAS/RTA-CAR_12.2.0/RTA-CAR/workspace/Basic_Workflow/build/../src/os\RTAOS.lib(vrtaSystemClock.o) (timeSetEvent@20)
c:/mingw/bin/../lib/gcc/mingw32/6.3.0/../../..\libwinmm.a(drqcs00149.o)
                              C:/ETAS/RTA-CAR_12.2.0/RTA-CAR/workspace/Basic_Workflow/build/../src/os\RTAOS.lib(vrtaSystemClock.o) (timeKillEvent@4)
c:/mingw/bin/../lib/gcc/mingw32/6.3.0/../../..\libwinmm.a(drqcs00144.o)
                              C:/ETAS/RTA-CAR_12.2.0/RTA-CAR/workspace/Basic_Workflow/build/../src/os\RTAOS.lib(vrtaSystemClock.o) (timeBeginPeriod@4)
c:/mingw/bin/../lib/gcc/mingw32/6.3.0/../../..\libwinmm.a(drqch.o)
                              c:/mingw/bin/../lib/gcc/mingw32/6.3.0/../../..\libwinmm.a(drqcs00150.o) (_head_libwinmm_a)
c:/mingw/bin/../lib/gcc/mingw32/6.3.0/../../..\libwinmm.a(drqct.o)
                              c:/mingw/bin/../lib/gcc/mingw32/6.3.0/../../..\libwinmm.a(drqch.o) (_libwinmm_a_iname)
c:/mingw/bin/../lib/gcc/mingw32/6.3.0\libstdc++.a(eh_personality.o)
                              CMakeFiles\Basic_workflow.dir/objects.a(Can_Device.cpp.obj) (__gxx_personality_v0)
c:/mingw/bin/../lib/gcc/mingw32/6.3.0\libstdc++.a(new_opv.o)
                              CMakeFiles\Basic_workflow.dir/objects.a(Can_HwProvider.cpp.obj) (operator new[](unsigned int))
c:/mingw/bin/../lib/gcc/mingw32/6.3.0\libstdc++.a(vmi_class_type_info.o)
                              C:/ETAS/RTA-CAR_12.2.0/RTA-CAR/workspace/Basic_Workflow/build/../src/os\RTAOS.lib(vrtaSampleDevices.o) (vtable for __cxxabiv1::__vmi_class_type_info)
c:/mingw/bin/../lib/gcc/mingw32/6.3.0\libstdc++.a(del_opv.o)
                              CMakeFiles\Basic_workflow.dir/objects.a(Can_Implementation.cpp.obj) (operator delete[](void*))
c:/mingw/bin/../lib/gcc/mingw32/6.3.0\libstdc++.a(del_ops.o)
                              CMakeFiles\Basic_workflow.dir/objects.a(Can_Device.cpp.obj) (operator delete(void*, unsigned int))
c:/mingw/bin/../lib/gcc/mingw32/6.3.0\libstdc++.a(eh_throw.o)
                              c:/mingw/bin/../lib/gcc/mingw32/6.3.0\libstdc++.a(eh_personality.o) (__cxa_throw)
c:/mingw/bin/../lib/gcc/mingw32/6.3.0\libstdc++.a(class_type_info.o)
                              c:/mingw/bin/../lib/gcc/mingw32/6.3.0\libstdc++.a(vmi_class_type_info.o) (__cxxabiv1::__class_type_info::__do_upcast(__cxxabiv1::__class_type_info const*, void**) const)
c:/mingw/bin/../lib/gcc/mingw32/6.3.0\libstdc++.a(eh_terminate.o)
                              c:/mingw/bin/../lib/gcc/mingw32/6.3.0\libstdc++.a(eh_personality.o) (__cxxabiv1::__terminate(void (*)()))
c:/mingw/bin/../lib/gcc/mingw32/6.3.0\libstdc++.a(eh_call.o)
                              c:/mingw/bin/../lib/gcc/mingw32/6.3.0\libstdc++.a(eh_personality.o) (__cxa_call_terminate)
c:/mingw/bin/../lib/gcc/mingw32/6.3.0\libstdc++.a(eh_alloc.o)
                              c:/mingw/bin/../lib/gcc/mingw32/6.3.0\libstdc++.a(eh_throw.o) (__cxa_free_exception)
c:/mingw/bin/../lib/gcc/mingw32/6.3.0\libstdc++.a(eh_term_handler.o)
                              c:/mingw/bin/../lib/gcc/mingw32/6.3.0\libstdc++.a(eh_terminate.o) (__cxxabiv1::__terminate_handler)
c:/mingw/bin/../lib/gcc/mingw32/6.3.0\libstdc++.a(eh_aux_runtime.o)
                              CMakeFiles\Basic_workflow.dir/objects.a(Can_HwProvider.cpp.obj) (__cxa_throw_bad_array_new_length)
c:/mingw/bin/../lib/gcc/mingw32/6.3.0\libstdc++.a(eh_globals.o)
                              c:/mingw/bin/../lib/gcc/mingw32/6.3.0\libstdc++.a(eh_personality.o) (__cxa_get_globals_fast)
c:/mingw/bin/../lib/gcc/mingw32/6.3.0\libstdc++.a(vterminate.o)
                              c:/mingw/bin/../lib/gcc/mingw32/6.3.0\libstdc++.a(eh_term_handler.o) (__gnu_cxx::__verbose_terminate_handler())
c:/mingw/bin/../lib/gcc/mingw32/6.3.0\libstdc++.a(bad_cast.o)
                              c:/mingw/bin/../lib/gcc/mingw32/6.3.0\libstdc++.a(eh_aux_runtime.o) (std::bad_cast::~bad_cast())
c:/mingw/bin/../lib/gcc/mingw32/6.3.0\libstdc++.a(si_class_type_info.o)
                              CMakeFiles\Basic_workflow.dir/objects.a(Can_Device.cpp.obj) (vtable for __cxxabiv1::__si_class_type_info)
c:/mingw/bin/../lib/gcc/mingw32/6.3.0\libstdc++.a(tinfo.o)
                              c:/mingw/bin/../lib/gcc/mingw32/6.3.0\libstdc++.a(class_type_info.o) (std::type_info::~type_info())
c:/mingw/bin/../lib/gcc/mingw32/6.3.0\libstdc++.a(del_opvs.o)
                              CMakeFiles\Basic_workflow.dir/objects.a(VirtualCan.cpp.obj) (operator delete[](void*, unsigned int))
c:/mingw/bin/../lib/gcc/mingw32/6.3.0\libstdc++.a(eh_catch.o)
                              C:/ETAS/RTA-CAR_12.2.0/RTA-CAR/workspace/Basic_Workflow/build/../src/os\RTAOS.lib(vrtaCore.o) (__cxa_begin_catch)
c:/mingw/bin/../lib/gcc/mingw32/6.3.0\libstdc++.a(new_op.o)
                              CMakeFiles\Basic_workflow.dir/objects.a(Can_Device.cpp.obj) (operator new(unsigned int))
c:/mingw/bin/../lib/gcc/mingw32/6.3.0\libstdc++.a(del_op.o)
                              c:/mingw/bin/../lib/gcc/mingw32/6.3.0\libstdc++.a(del_opv.o) (operator delete(void*))
c:/mingw/bin/../lib/gcc/mingw32/6.3.0\libstdc++.a(pure.o)
                              CMakeFiles\Basic_workflow.dir/objects.a(VirtualCan.cpp.obj) (__cxa_pure_virtual)
c:/mingw/bin/../lib/gcc/mingw32/6.3.0\libstdc++.a(eh_exception.o)
                              c:/mingw/bin/../lib/gcc/mingw32/6.3.0\libstdc++.a(eh_alloc.o) (std::exception::~exception())
c:/mingw/bin/../lib/gcc/mingw32/6.3.0\libstdc++.a(bad_typeid.o)
                              c:/mingw/bin/../lib/gcc/mingw32/6.3.0\libstdc++.a(eh_aux_runtime.o) (std::bad_typeid::~bad_typeid())
c:/mingw/bin/../lib/gcc/mingw32/6.3.0\libstdc++.a(eh_unex_handler.o)
                              c:/mingw/bin/../lib/gcc/mingw32/6.3.0\libstdc++.a(eh_terminate.o) (__cxxabiv1::__unexpected_handler)
c:/mingw/bin/../lib/gcc/mingw32/6.3.0\libstdc++.a(bad_array_new.o)
                              c:/mingw/bin/../lib/gcc/mingw32/6.3.0\libstdc++.a(eh_aux_runtime.o) (std::bad_array_new_length::~bad_array_new_length())
c:/mingw/bin/../lib/gcc/mingw32/6.3.0\libstdc++.a(bad_alloc.o)
                              c:/mingw/bin/../lib/gcc/mingw32/6.3.0\libstdc++.a(bad_array_new.o) (std::bad_alloc::~bad_alloc())
c:/mingw/bin/../lib/gcc/mingw32/6.3.0\libstdc++.a(cp-demangle.o)
                              c:/mingw/bin/../lib/gcc/mingw32/6.3.0\libstdc++.a(vterminate.o) (__cxa_demangle)
c:/mingw/bin/../lib/gcc/mingw32/6.3.0\libstdc++.a(eh_type.o)
                              c:/mingw/bin/../lib/gcc/mingw32/6.3.0\libstdc++.a(vterminate.o) (__cxa_current_exception_type)
c:/mingw/bin/../lib/gcc/mingw32/6.3.0\libstdc++.a(new_handler.o)
                              c:/mingw/bin/../lib/gcc/mingw32/6.3.0\libstdc++.a(new_op.o) (std::get_new_handler())
c:/mingw/bin/../lib/gcc/mingw32/6.3.0/../../..\libkernel32.a(dujcs01223.o)
                              CMakeFiles\Basic_workflow.dir/objects.a(VirtualCan.cpp.obj) (WaitForSingleObject@8)
c:/mingw/bin/../lib/gcc/mingw32/6.3.0/../../..\libkernel32.a(dujcs01166.o)
                              C:/ETAS/RTA-CAR_12.2.0/RTA-CAR/workspace/Basic_Workflow/build/../src/os\RTAOS.lib(vrtaAppMain.o) (TerminateProcess@8)
c:/mingw/bin/../lib/gcc/mingw32/6.3.0/../../..\libkernel32.a(dujcs01162.o)
                              C:/ETAS/RTA-CAR_12.2.0/RTA-CAR/workspace/Basic_Workflow/build/../src/os\RTAOS.lib(vrtaSystemClockDevice.o) (SwitchToThread@0)
c:/mingw/bin/../lib/gcc/mingw32/6.3.0/../../..\libkernel32.a(dujcs01152.o)
                              C:/ETAS/RTA-CAR_12.2.0/RTA-CAR/workspace/Basic_Workflow/build/../src/os\RTAOS.lib(vrtaSystemClock.o) (Sleep@4)
c:/mingw/bin/../lib/gcc/mingw32/6.3.0/../../..\libkernel32.a(dujcs01140.o)
                              c:/mingw/bin/../lib/gcc/mingw32/6.3.0/../../../crt2.o (SetUnhandledExceptionFilter@4)
c:/mingw/bin/../lib/gcc/mingw32/6.3.0/../../..\libkernel32.a(dujcs01065.o)
                              CMakeFiles\Basic_workflow.dir/objects.a(VirtualCan.cpp.obj) (SetEvent@4)
c:/mingw/bin/../lib/gcc/mingw32/6.3.0/../../..\libkernel32.a(dujcs00978.o)
                              C:/ETAS/RTA-CAR_12.2.0/RTA-CAR/workspace/Basic_Workflow/build/../src/os\RTAOS.lib(vrtaSystemClockDevice.o) (ReleaseSemaphore@12)
c:/mingw/bin/../lib/gcc/mingw32/6.3.0/../../..\libkernel32.a(dujcs00974.o)
                              C:/ETAS/RTA-CAR_12.2.0/RTA-CAR/workspace/Basic_Workflow/build/../src/os\RTAOS.lib(vrtaSystemClock.o) (ReleaseMutex@4)
c:/mingw/bin/../lib/gcc/mingw32/6.3.0/../../..\libkernel32.a(dujcs00923.o)
                              C:/ETAS/RTA-CAR_12.2.0/RTA-CAR/workspace/Basic_Workflow/build/../src/os\RTAOS.lib(vrtaSystemClock.o) (QueryPerformanceFrequency@4)
c:/mingw/bin/../lib/gcc/mingw32/6.3.0/../../..\libkernel32.a(dujcs00922.o)
                              C:/ETAS/RTA-CAR_12.2.0/RTA-CAR/workspace/Basic_Workflow/build/../src/os\RTAOS.lib(vrtaSystemClock.o) (QueryPerformanceCounter@4)
c:/mingw/bin/../lib/gcc/mingw32/6.3.0/../../..\libkernel32.a(dujcs00844.o)
                              C:/ETAS/RTA-CAR_12.2.0/RTA-CAR/workspace/Basic_Workflow/build/../src/os\RTAOS.lib(vrtaSystemClockDevice.o) (MapViewOfFile@20)
c:/mingw/bin/../lib/gcc/mingw32/6.3.0/../../..\libkernel32.a(dujcs00817.o)
                              c:/mingw/bin/../lib/gcc/mingw32/6.3.0/crtbegin.o (LoadLibraryA@4)
c:/mingw/bin/../lib/gcc/mingw32/6.3.0/../../..\libkernel32.a(dujcs00577.o)
                              c:/mingw/bin/../lib/gcc/mingw32/6.3.0/crtbegin.o (GetProcAddress@8)
c:/mingw/bin/../lib/gcc/mingw32/6.3.0/../../..\libkernel32.a(dujcs00529.o)
                              c:/mingw/bin/../lib/gcc/mingw32/6.3.0/crtbegin.o (GetModuleHandleA@4)
c:/mingw/bin/../lib/gcc/mingw32/6.3.0/../../..\libkernel32.a(dujcs00510.o)
                              C:/ETAS/RTA-CAR_12.2.0/RTA-CAR/workspace/Basic_Workflow/build/../src/os\RTAOS.lib(vrtaCore.o) (GetLastError@0)
c:/mingw/bin/../lib/gcc/mingw32/6.3.0/../../..\libkernel32.a(dujcs00473.o)
                              C:/ETAS/RTA-CAR_12.2.0/RTA-CAR/workspace/Basic_Workflow/build/../src/os\RTAOS.lib(vrtaCore.o) (GetEnvironmentVariableA@12)
c:/mingw/bin/../lib/gcc/mingw32/6.3.0/../../..\libkernel32.a(dujcs00446.o)
                              C:/ETAS/RTA-CAR_12.2.0/RTA-CAR/workspace/Basic_Workflow/build/../src/os\RTAOS.lib(vrtaAppMain.o) (GetCurrentProcess@0)
c:/mingw/bin/../lib/gcc/mingw32/6.3.0/../../..\libkernel32.a(dujcs00352.o)
                              c:/mingw/bin/../lib/gcc/mingw32/6.3.0/crtbegin.o (FreeLibrary@4)
c:/mingw/bin/../lib/gcc/mingw32/6.3.0/../../..\libkernel32.a(dujcs00347.o)
                              C:/ETAS/RTA-CAR_12.2.0/RTA-CAR/workspace/Basic_Workflow/build/../src/os\RTAOS.lib(vrtaCore.o) (FormatMessageA@28)
c:/mingw/bin/../lib/gcc/mingw32/6.3.0/../../..\libkernel32.a(dujcs00280.o)
                              C:/ETAS/RTA-CAR_12.2.0/RTA-CAR/workspace/Basic_Workflow/build/../src/os\RTAOS.lib(vrtaSystemClock.o) (ExitThread@4)
c:/mingw/bin/../lib/gcc/mingw32/6.3.0/../../..\libkernel32.a(dujcs00279.o)
                              c:/mingw/bin/../lib/gcc/mingw32/6.3.0/../../../crt2.o (ExitProcess@4)
c:/mingw/bin/../lib/gcc/mingw32/6.3.0/../../..\libkernel32.a(dujcs00169.o)
                              C:/ETAS/RTA-CAR_12.2.0/RTA-CAR/workspace/Basic_Workflow/build/../src/os\RTAOS.lib(vrtaSystemClockDevice.o) (CreateSemaphoreA@16)
c:/mingw/bin/../lib/gcc/mingw32/6.3.0/../../..\libkernel32.a(dujcs00154.o)
                              C:/ETAS/RTA-CAR_12.2.0/RTA-CAR/workspace/Basic_Workflow/build/../src/os\RTAOS.lib(vrtaSystemClock.o) (CreateMutexA@12)
c:/mingw/bin/../lib/gcc/mingw32/6.3.0/../../..\libkernel32.a(dujcs00136.o)
                              C:/ETAS/RTA-CAR_12.2.0/RTA-CAR/workspace/Basic_Workflow/build/../src/os\RTAOS.lib(vrtaSystemClockDevice.o) (CreateFileMappingA@24)
c:/mingw/bin/../lib/gcc/mingw32/6.3.0/../../..\libkernel32.a(dujcs00129.o)
                              CMakeFiles\Basic_workflow.dir/objects.a(VirtualCan.cpp.obj) (CreateEventA@16)
c:/mingw/bin/../lib/gcc/mingw32/6.3.0/../../..\libkernel32.a(dujch.o)
                              c:/mingw/bin/../lib/gcc/mingw32/6.3.0/../../..\libkernel32.a(dujcs01223.o) (_head_libkernel32_a)
c:/mingw/bin/../lib/gcc/mingw32/6.3.0/../../..\libkernel32.a(dujct.o)
                              c:/mingw/bin/../lib/gcc/mingw32/6.3.0/../../..\libkernel32.a(dujch.o) (_libkernel32_a_iname)
c:/mingw/bin/../lib/gcc/mingw32/6.3.0/../../..\libuser32.a(dtpcs00434.o)
                              C:/ETAS/RTA-CAR_12.2.0/RTA-CAR/workspace/Basic_Workflow/build/../src/os\RTAOS.lib(vrtaCore.o) (MessageBoxA@16)
c:/mingw/bin/../lib/gcc/mingw32/6.3.0/../../..\libuser32.a(dtpch.o)
                              c:/mingw/bin/../lib/gcc/mingw32/6.3.0/../../..\libuser32.a(dtpcs00434.o) (_head_libuser32_a)
c:/mingw/bin/../lib/gcc/mingw32/6.3.0/../../..\libuser32.a(dtpct.o)
                              c:/mingw/bin/../lib/gcc/mingw32/6.3.0/../../..\libuser32.a(dtpch.o) (_libuser32_a_iname)
c:/mingw/bin/../lib/gcc/mingw32/6.3.0/../../..\libmingw32.a(CRTglob.o)
                              c:/mingw/bin/../lib/gcc/mingw32/6.3.0/../../../crt2.o (_CRT_glob)
c:/mingw/bin/../lib/gcc/mingw32/6.3.0/../../..\libmingw32.a(setargv.o)
                              c:/mingw/bin/../lib/gcc/mingw32/6.3.0/../../../crt2.o (_setargv)
c:/mingw/bin/../lib/gcc/mingw32/6.3.0/../../..\libmingw32.a(CRTfmode.o)
                              c:/mingw/bin/../lib/gcc/mingw32/6.3.0/../../../crt2.o (_CRT_fmode)
c:/mingw/bin/../lib/gcc/mingw32/6.3.0/../../..\libmingw32.a(cpu_features.o)
                              c:/mingw/bin/../lib/gcc/mingw32/6.3.0/../../../crt2.o (__cpu_features_init)
c:/mingw/bin/../lib/gcc/mingw32/6.3.0/../../..\libmingw32.a(CRT_fp10.o)
                              c:/mingw/bin/../lib/gcc/mingw32/6.3.0/../../../crt2.o (_CRT_fenv)
c:/mingw/bin/../lib/gcc/mingw32/6.3.0/../../..\libmingw32.a(txtmode.o)
                              c:/mingw/bin/../lib/gcc/mingw32/6.3.0/../../../crt2.o (_fmode)
c:/mingw/bin/../lib/gcc/mingw32/6.3.0/../../..\libmingw32.a(gccmain.o)
                              c:/mingw/bin/../lib/gcc/mingw32/6.3.0/../../../crt2.o (__main)
c:/mingw/bin/../lib/gcc/mingw32/6.3.0/../../..\libmingw32.a(crtst.o)
                              c:/mingw/bin/../lib/gcc/mingw32/6.3.0\libstdc++.a(eh_alloc.o) (_CRT_MT)
c:/mingw/bin/../lib/gcc/mingw32/6.3.0/../../..\libmingw32.a(tlssup.o)
                              c:/mingw/bin/../lib/gcc/mingw32/6.3.0/../../../crt2.o (__dyn_tls_init_callback)
c:/mingw/bin/../lib/gcc/mingw32/6.3.0/../../..\libmingw32.a(tlsthrd.o)
                              c:/mingw/bin/../lib/gcc/mingw32/6.3.0/../../..\libmingw32.a(tlssup.o) (__mingw_TLScallback)
c:/mingw/bin/../lib/gcc/mingw32/6.3.0/../../..\libmingw32.a(pseudo-reloc.o)
                              c:/mingw/bin/../lib/gcc/mingw32/6.3.0/../../../crt2.o (_pei386_runtime_relocator)
c:/mingw/bin/../lib/gcc/mingw32/6.3.0/../../..\libmingw32.a(pseudo-reloc-list.o)
                              c:/mingw/bin/../lib/gcc/mingw32/6.3.0/../../..\libmingw32.a(pseudo-reloc.o) (__RUNTIME_PSEUDO_RELOC_LIST__)
c:/mingw/bin/../lib/gcc/mingw32/6.3.0\libgcc.a(_chkstk_ms.o)
                              c:/mingw/bin/../lib/gcc/mingw32/6.3.0\libstdc++.a(cp-demangle.o) (__chkstk_ms)
c:/mingw/bin/../lib/gcc/mingw32/6.3.0\libgcc.a(_ctors.o)
                              c:/mingw/bin/../lib/gcc/mingw32/6.3.0/../../..\libmingw32.a(gccmain.o) (__DTOR_LIST__)
c:/mingw/bin/../lib/gcc/mingw32/6.3.0\libgcc.a(_divdi3.o)
                              C:/ETAS/RTA-CAR_12.2.0/RTA-CAR/workspace/Basic_Workflow/build/../src/os\RTAOS.lib(vrtaSystemClock.o) (__divdi3)
c:/mingw/bin/../lib/gcc/mingw32/6.3.0\libgcc.a(gthr-win32.o)
                              c:/mingw/bin/../lib/gcc/mingw32/6.3.0\libstdc++.a(eh_globals.o) (__gthr_win32_key_create)
c:/mingw/bin/../lib/gcc/mingw32/6.3.0\libgcc_eh.a(unwind-dw2.o)
                              c:/mingw/bin/../lib/gcc/mingw32/6.3.0\libstdc++.a(eh_personality.o) (_Unwind_SetGR)
c:/mingw/bin/../lib/gcc/mingw32/6.3.0\libgcc_eh.a(unwind-dw2-fde.o)
                              c:/mingw/bin/../lib/gcc/mingw32/6.3.0\libgcc_eh.a(unwind-dw2.o) (_Unwind_Find_FDE)
c:/mingw/bin/../lib/gcc/mingw32/6.3.0/../../..\libmoldname.a(dagwbs00109.o)
                              c:/mingw/bin/../lib/gcc/mingw32/6.3.0\libstdc++.a(pure.o) (write)
c:/mingw/bin/../lib/gcc/mingw32/6.3.0/../../..\libmoldname.a(dagwbh.o)
                              c:/mingw/bin/../lib/gcc/mingw32/6.3.0/../../..\libmoldname.a(dagwbs00109.o) (_head_libmoldname_a)
c:/mingw/bin/../lib/gcc/mingw32/6.3.0/../../..\libmoldname.a(dagwbt.o)
                              c:/mingw/bin/../lib/gcc/mingw32/6.3.0/../../..\libmoldname.a(dagwbh.o) (_libmoldname_a_iname)
c:/mingw/bin/../lib/gcc/mingw32/6.3.0/../../..\libmingwex.a(fesetenv.o)
                              c:/mingw/bin/../lib/gcc/mingw32/6.3.0/../../../crt2.o (fesetenv)
c:/mingw/bin/../lib/gcc/mingw32/6.3.0/../../..\libmingwex.a(feholdexcept.o)
                              C:/ETAS/RTA-CAR_12.2.0/RTA-CAR/workspace/Basic_Workflow/build/../src/os\RTAOS.lib(vrtaCore.o) (feholdexcept)
c:/mingw/bin/../lib/gcc/mingw32/6.3.0/../../..\libmingwex.a(glob.o)
                              c:/mingw/bin/../lib/gcc/mingw32/6.3.0/../../..\libmingw32.a(setargv.o) (__mingw_glob)
c:/mingw/bin/../lib/gcc/mingw32/6.3.0/../../..\libmingwex.a(dirname.o)
                              c:/mingw/bin/../lib/gcc/mingw32/6.3.0/../../..\libmingwex.a(glob.o) (__mingw_dirname)
c:/mingw/bin/../lib/gcc/mingw32/6.3.0/../../..\libmingwex.a(dirent.o)
                              c:/mingw/bin/../lib/gcc/mingw32/6.3.0/../../..\libmingwex.a(glob.o) (__mingw_opendir)
c:/mingw/bin/../lib/gcc/mingw32/6.3.0/../../..\libmsvcrt.a(djpvbs01325.o)
                              c:/mingw/bin/../lib/gcc/mingw32/6.3.0/../../..\libmingwex.a(dirname.o) (wcstombs)
c:/mingw/bin/../lib/gcc/mingw32/6.3.0/../../..\libmsvcrt.a(djpvbs01291.o)
                              CMakeFiles\Basic_workflow.dir/objects.a(unity_4_c.c.obj) (vsprintf)
c:/mingw/bin/../lib/gcc/mingw32/6.3.0/../../..\libmsvcrt.a(djpvbs01284.o)
                              c:/mingw/bin/../lib/gcc/mingw32/6.3.0/../../..\libmingw32.a(pseudo-reloc.o) (vfprintf)
c:/mingw/bin/../lib/gcc/mingw32/6.3.0/../../..\libmsvcrt.a(djpvbs01277.o)
                              c:/mingw/bin/../lib/gcc/mingw32/6.3.0/../../..\libmingwex.a(glob.o) (tolower)
c:/mingw/bin/../lib/gcc/mingw32/6.3.0/../../..\libmsvcrt.a(djpvbs01253.o)
                              C:/ETAS/RTA-CAR_12.2.0/RTA-CAR/workspace/Basic_Workflow/build/../src/os\RTAOS.lib(vrtaLoggerDevice.o) (strncpy)
c:/mingw/bin/../lib/gcc/mingw32/6.3.0/../../..\libmsvcrt.a(djpvbs01249.o)
                              CMakeFiles\Basic_workflow.dir/objects.a(Can_Device.cpp.obj) (strlen)
c:/mingw/bin/../lib/gcc/mingw32/6.3.0/../../..\libmsvcrt.a(djpvbs01243.o)
                              CMakeFiles\Basic_workflow.dir/objects.a(Can_Device.cpp.obj) (strcpy)
c:/mingw/bin/../lib/gcc/mingw32/6.3.0/../../..\libmsvcrt.a(djpvbs01242.o)
                              c:/mingw/bin/../lib/gcc/mingw32/6.3.0/../../..\libmingwex.a(glob.o) (strcoll)
c:/mingw/bin/../lib/gcc/mingw32/6.3.0/../../..\libmsvcrt.a(djpvbs01241.o)
                              c:/mingw/bin/../lib/gcc/mingw32/6.3.0\libstdc++.a(tinfo.o) (strcmp)
c:/mingw/bin/../lib/gcc/mingw32/6.3.0/../../..\libmsvcrt.a(djpvbs01238.o)
                              C:/ETAS/RTA-CAR_12.2.0/RTA-CAR/workspace/Basic_Workflow/build/../src/os\RTAOS.lib(virtualDevice.o) (strcat)
c:/mingw/bin/../lib/gcc/mingw32/6.3.0/../../..\libmsvcrt.a(djpvbs01232.o)
                              C:/ETAS/RTA-CAR_12.2.0/RTA-CAR/workspace/Basic_Workflow/build/../src/os\RTAOS.lib(vrtaOSMonitorDevice.o) (sprintf)
c:/mingw/bin/../lib/gcc/mingw32/6.3.0/../../..\libmsvcrt.a(djpvbs01229.o)
                              c:/mingw/bin/../lib/gcc/mingw32/6.3.0/../../../crt2.o (signal)
c:/mingw/bin/../lib/gcc/mingw32/6.3.0/../../..\libmsvcrt.a(djpvbs01227.o)
                              c:/mingw/bin/../lib/gcc/mingw32/6.3.0/../../..\libmingwex.a(dirname.o) (setlocale)
c:/mingw/bin/../lib/gcc/mingw32/6.3.0/../../..\libmsvcrt.a(djpvbs01220.o)
                              c:/mingw/bin/../lib/gcc/mingw32/6.3.0\libstdc++.a(cp-demangle.o) (realloc)
c:/mingw/bin/../lib/gcc/mingw32/6.3.0/../../..\libmsvcrt.a(djpvbs01203.o)
                              CMakeFiles\Basic_workflow.dir/objects.a(Can_Device.cpp.obj) (memset)
c:/mingw/bin/../lib/gcc/mingw32/6.3.0/../../..\libmsvcrt.a(djpvbs01199.o)
                              CMakeFiles\Basic_workflow.dir/objects.a(Can_Device.cpp.obj) (memcpy)
c:/mingw/bin/../lib/gcc/mingw32/6.3.0/../../..\libmsvcrt.a(djpvbs01198.o)
                              c:/mingw/bin/../lib/gcc/mingw32/6.3.0\libstdc++.a(cp-demangle.o) (memcmp)
c:/mingw/bin/../lib/gcc/mingw32/6.3.0/../../..\libmsvcrt.a(djpvbs01194.o)
                              c:/mingw/bin/../lib/gcc/mingw32/6.3.0/../../..\libmingwex.a(dirname.o) (mbstowcs)
c:/mingw/bin/../lib/gcc/mingw32/6.3.0/../../..\libmsvcrt.a(djpvbs01187.o)
                              c:/mingw/bin/../lib/gcc/mingw32/6.3.0\libstdc++.a(eh_alloc.o) (malloc)
c:/mingw/bin/../lib/gcc/mingw32/6.3.0/../../..\libmsvcrt.a(djpvbs01142.o)
                              c:/mingw/bin/../lib/gcc/mingw32/6.3.0\libstdc++.a(vterminate.o) (fwrite)
c:/mingw/bin/../lib/gcc/mingw32/6.3.0/../../..\libmsvcrt.a(djpvbs01131.o)
                              c:/mingw/bin/../lib/gcc/mingw32/6.3.0\libstdc++.a(eh_alloc.o) (free)
c:/mingw/bin/../lib/gcc/mingw32/6.3.0/../../..\libmsvcrt.a(djpvbs01127.o)
                              C:/ETAS/RTA-CAR_12.2.0/RTA-CAR/workspace/Basic_Workflow/build/../src/os\RTAOS.lib(vrtaLoggerDevice.o) (fputs)
c:/mingw/bin/../lib/gcc/mingw32/6.3.0/../../..\libmsvcrt.a(djpvbs01126.o)
                              c:/mingw/bin/../lib/gcc/mingw32/6.3.0\libstdc++.a(vterminate.o) (fputc)
c:/mingw/bin/../lib/gcc/mingw32/6.3.0/../../..\libmsvcrt.a(djpvbs01122.o)
                              C:/ETAS/RTA-CAR_12.2.0/RTA-CAR/workspace/Basic_Workflow/build/../src/os\RTAOS.lib(vrtaLoggerDevice.o) (fopen)
c:/mingw/bin/../lib/gcc/mingw32/6.3.0/../../..\libmsvcrt.a(djpvbs01114.o)
                              C:/ETAS/RTA-CAR_12.2.0/RTA-CAR/workspace/Basic_Workflow/build/../src/os\RTAOS.lib(vrtaLoggerDevice.o) (fflush)
c:/mingw/bin/../lib/gcc/mingw32/6.3.0/../../..\libmsvcrt.a(djpvbs01111.o)
                              C:/ETAS/RTA-CAR_12.2.0/RTA-CAR/workspace/Basic_Workflow/build/../src/os\RTAOS.lib(vrtaLoggerDevice.o) (fclose)
c:/mingw/bin/../lib/gcc/mingw32/6.3.0/../../..\libmsvcrt.a(djpvbs01108.o)
                              C:/ETAS/RTA-CAR_12.2.0/RTA-CAR/workspace/Basic_Workflow/build/../src/os\RTAOS.lib(vrtaCore.o) (exit)
c:/mingw/bin/../lib/gcc/mingw32/6.3.0/../../..\libmsvcrt.a(djpvbs01098.o)
                              c:/mingw/bin/../lib/gcc/mingw32/6.3.0/../../..\libmingw32.a(tlsthrd.o) (calloc)
c:/mingw/bin/../lib/gcc/mingw32/6.3.0/../../..\libmsvcrt.a(djpvbs01093.o)
                              C:/ETAS/RTA-CAR_12.2.0/RTA-CAR/workspace/Basic_Workflow/build/../src/os\RTAOS.lib(vrtaSystemClockDevice.o) (atoi)
c:/mingw/bin/../lib/gcc/mingw32/6.3.0/../../..\libmsvcrt.a(djpvbs01091.o)
                              c:/mingw/bin/../lib/gcc/mingw32/6.3.0/../../../crt2.o (_imp__atexit)
c:/mingw/bin/../lib/gcc/mingw32/6.3.0/../../..\libmsvcrt.a(djpvbs01083.o)
                              c:/mingw/bin/../lib/gcc/mingw32/6.3.0\libstdc++.a(eh_personality.o) (abort)
c:/mingw/bin/../lib/gcc/mingw32/6.3.0/../../..\libmsvcrt.a(djpvbs00753.o)
                              c:/mingw/bin/../lib/gcc/mingw32/6.3.0/../../../crt2.o (_setmode)
c:/mingw/bin/../lib/gcc/mingw32/6.3.0/../../..\libmsvcrt.a(djpvbs00698.o)
                              c:/mingw/bin/../lib/gcc/mingw32/6.3.0/../../..\libmingw32.a(setargv.o) (_imp___pctype)
c:/mingw/bin/../lib/gcc/mingw32/6.3.0/../../..\libmsvcrt.a(djpvbs00689.o)
                              c:/mingw/bin/../lib/gcc/mingw32/6.3.0/../../../crt2.o (_imp___onexit)
c:/mingw/bin/../lib/gcc/mingw32/6.3.0/../../..\libmsvcrt.a(djpvbs00422.o)
                              c:/mingw/bin/../lib/gcc/mingw32/6.3.0/../../..\libmingw32.a(setargv.o) (_isctype)
c:/mingw/bin/../lib/gcc/mingw32/6.3.0/../../..\libmsvcrt.a(djpvbs00417.o)
                              c:/mingw/bin/../lib/gcc/mingw32/6.3.0/../../../crt2.o (_imp___iob)
c:/mingw/bin/../lib/gcc/mingw32/6.3.0/../../..\libmsvcrt.a(djpvbs00350.o)
                              c:/mingw/bin/../lib/gcc/mingw32/6.3.0/../../..\libmingwex.a(dirent.o) (_fullpath)
c:/mingw/bin/../lib/gcc/mingw32/6.3.0/../../..\libmsvcrt.a(djpvbs00324.o)
                              c:/mingw/bin/../lib/gcc/mingw32/6.3.0/../../..\libmingwex.a(fesetenv.o) (_imp___fpreset)
c:/mingw/bin/../lib/gcc/mingw32/6.3.0/../../..\libmsvcrt.a(djpvbs00285.o)
                              c:/mingw/bin/../lib/gcc/mingw32/6.3.0/../../..\libmingwex.a(glob.o) (_errno)
c:/mingw/bin/../lib/gcc/mingw32/6.3.0/../../..\libmsvcrt.a(djpvbs00219.o)
                              c:/mingw/bin/../lib/gcc/mingw32/6.3.0/../../../crt2.o (_cexit)
c:/mingw/bin/../lib/gcc/mingw32/6.3.0/../../..\libmsvcrt.a(djpvbs00153.o)
                              c:/mingw/bin/../lib/gcc/mingw32/6.3.0/../../../crt2.o (_imp____set_app_type)
c:/mingw/bin/../lib/gcc/mingw32/6.3.0/../../..\libmsvcrt.a(djpvbs00133.o)
                              c:/mingw/bin/../lib/gcc/mingw32/6.3.0/../../../crt2.o (__p__fmode)
c:/mingw/bin/../lib/gcc/mingw32/6.3.0/../../..\libmsvcrt.a(djpvbs00131.o)
                              c:/mingw/bin/../lib/gcc/mingw32/6.3.0/../../../crt2.o (__p__environ)
c:/mingw/bin/../lib/gcc/mingw32/6.3.0/../../..\libmsvcrt.a(djpvbs00119.o)
                              c:/mingw/bin/../lib/gcc/mingw32/6.3.0/../../..\libmingw32.a(setargv.o) (_imp____mb_cur_max)
c:/mingw/bin/../lib/gcc/mingw32/6.3.0/../../..\libmsvcrt.a(djpvbs00088.o)
                              c:/mingw/bin/../lib/gcc/mingw32/6.3.0/../../../crt2.o (__getmainargs)
c:/mingw/bin/../lib/gcc/mingw32/6.3.0/../../..\libmsvcrt.a(djpvbh.o)
                              c:/mingw/bin/../lib/gcc/mingw32/6.3.0/../../..\libmsvcrt.a(djpvbs01325.o) (_head_libmsvcrt_a)
c:/mingw/bin/../lib/gcc/mingw32/6.3.0/../../..\libmsvcrt.a(djpvbt.o)
                              c:/mingw/bin/../lib/gcc/mingw32/6.3.0/../../..\libmsvcrt.a(djpvbh.o) (_libmsvcrt_a_iname)
c:/mingw/bin/../lib/gcc/mingw32/6.3.0/../../..\libkernel32.a(dujcs01215.o)
                              c:/mingw/bin/../lib/gcc/mingw32/6.3.0/../../..\libmingw32.a(pseudo-reloc.o) (VirtualQuery@12)
c:/mingw/bin/../lib/gcc/mingw32/6.3.0/../../..\libkernel32.a(dujcs01213.o)
                              c:/mingw/bin/../lib/gcc/mingw32/6.3.0/../../..\libmingw32.a(pseudo-reloc.o) (VirtualProtect@16)
c:/mingw/bin/../lib/gcc/mingw32/6.3.0/../../..\libkernel32.a(dujcs01174.o)
                              c:/mingw/bin/../lib/gcc/mingw32/6.3.0\libgcc.a(gthr-win32.o) (TlsSetValue@8)
c:/mingw/bin/../lib/gcc/mingw32/6.3.0/../../..\libkernel32.a(dujcs01173.o)
                              c:/mingw/bin/../lib/gcc/mingw32/6.3.0/../../..\libmingw32.a(tlsthrd.o) (TlsGetValue@4)
c:/mingw/bin/../lib/gcc/mingw32/6.3.0/../../..\libkernel32.a(dujcs01172.o)
                              c:/mingw/bin/../lib/gcc/mingw32/6.3.0\libgcc.a(gthr-win32.o) (TlsFree@4)
c:/mingw/bin/../lib/gcc/mingw32/6.3.0/../../..\libkernel32.a(dujcs01171.o)
                              c:/mingw/bin/../lib/gcc/mingw32/6.3.0\libgcc.a(gthr-win32.o) (TlsAlloc@0)
c:/mingw/bin/../lib/gcc/mingw32/6.3.0/../../..\libkernel32.a(dujcs01091.o)
                              c:/mingw/bin/../lib/gcc/mingw32/6.3.0\libgcc.a(gthr-win32.o) (SetLastError@4)
c:/mingw/bin/../lib/gcc/mingw32/6.3.0/../../..\libkernel32.a(dujcs00814.o)
                              c:/mingw/bin/../lib/gcc/mingw32/6.3.0/../../..\libmingw32.a(tlsthrd.o) (LeaveCriticalSection@4)
c:/mingw/bin/../lib/gcc/mingw32/6.3.0/../../..\libkernel32.a(dujcs00747.o)
                              c:/mingw/bin/../lib/gcc/mingw32/6.3.0\libgcc.a(gthr-win32.o) (InterlockedIncrement@4)
c:/mingw/bin/../lib/gcc/mingw32/6.3.0/../../..\libkernel32.a(dujcs00743.o)
                              c:/mingw/bin/../lib/gcc/mingw32/6.3.0\libgcc.a(gthr-win32.o) (InterlockedDecrement@4)
c:/mingw/bin/../lib/gcc/mingw32/6.3.0/../../..\libkernel32.a(dujcs00734.o)
                              c:/mingw/bin/../lib/gcc/mingw32/6.3.0/../../..\libmingw32.a(tlsthrd.o) (InitializeCriticalSection@4)
c:/mingw/bin/../lib/gcc/mingw32/6.3.0/../../..\libkernel32.a(dujcs00451.o)
                              c:/mingw/bin/../lib/gcc/mingw32/6.3.0\libgcc.a(gthr-win32.o) (GetCurrentThreadId@0)
c:/mingw/bin/../lib/gcc/mingw32/6.3.0/../../..\libkernel32.a(dujcs00388.o)
                              c:/mingw/bin/../lib/gcc/mingw32/6.3.0/../../..\libmingw32.a(setargv.o) (GetCommandLineA@0)
c:/mingw/bin/../lib/gcc/mingw32/6.3.0/../../..\libkernel32.a(dujcs00321.o)
                              c:/mingw/bin/../lib/gcc/mingw32/6.3.0/../../..\libmingwex.a(dirent.o) (FindNextFileA@8)
c:/mingw/bin/../lib/gcc/mingw32/6.3.0/../../..\libkernel32.a(dujcs00304.o)
                              c:/mingw/bin/../lib/gcc/mingw32/6.3.0/../../..\libmingwex.a(dirent.o) (FindFirstFileA@8)
c:/mingw/bin/../lib/gcc/mingw32/6.3.0/../../..\libkernel32.a(dujcs00300.o)
                              c:/mingw/bin/../lib/gcc/mingw32/6.3.0/../../..\libmingwex.a(dirent.o) (FindClose@4)
c:/mingw/bin/../lib/gcc/mingw32/6.3.0/../../..\libkernel32.a(dujcs00236.o)
                              c:/mingw/bin/../lib/gcc/mingw32/6.3.0/../../..\libmingw32.a(tlsthrd.o) (EnterCriticalSection@4)
c:/mingw/bin/../lib/gcc/mingw32/6.3.0/../../..\libkernel32.a(dujcs00207.o)
                              c:/mingw/bin/../lib/gcc/mingw32/6.3.0/../../..\libmingw32.a(tlsthrd.o) (DeleteCriticalSection@4)
c:/mingw/bin/../lib/gcc/mingw32/6.3.0/../../..\libkernel32.a(dujcs00172.o)
                              c:/mingw/bin/../lib/gcc/mingw32/6.3.0\libgcc.a(gthr-win32.o) (CreateSemaphoreW@16)
c:/mingw/bin/../lib/gcc/mingw32/6.3.0/../../..\libkernel32.a(dujcs00082.o)
                              c:/mingw/bin/../lib/gcc/mingw32/6.3.0\libgcc.a(gthr-win32.o) (CloseHandle@4)
c:/mingw/bin/../lib/gcc/mingw32/6.3.0/../../..\libmingw32.a(tlsmthread.o)
                              c:/mingw/bin/../lib/gcc/mingw32/6.3.0\libgcc.a(gthr-win32.o) (__mingwthr_key_dtor)
c:/mingw/bin/../lib/gcc/mingw32/6.3.0/../../..\libmoldname.a(dagwbs00082.o)
                              c:/mingw/bin/../lib/gcc/mingw32/6.3.0/../../..\libmingwex.a(glob.o) (stricoll)
c:/mingw/bin/../lib/gcc/mingw32/6.3.0/../../..\libmoldname.a(dagwbs00080.o)
                              c:/mingw/bin/../lib/gcc/mingw32/6.3.0/../../..\libmingwex.a(glob.o) (strdup)

Allocating common symbols
Common symbol       size              file

Os_InErrorHook      0x1               C:/ETAS/RTA-CAR_12.2.0/RTA-CAR/workspace/Basic_Workflow/build/../src/os\RTAOS.lib(Os_Cfg.o)
CanIf_Prv_RxNotification_taen
                    0x4               CMakeFiles\Basic_workflow.dir/objects.a(unity_1_c.c.obj)
BswM_Prv_flgNewReqstProgress_b
                    0x1               CMakeFiles\Basic_workflow.dir/objects.a(unity_0_c.c.obj)
Com_Prv_RxSigFlagS_TestECU_To_ApplicationECU_Data_Can_Network_Channel_CAN_Rx_st
                    0x1               CMakeFiles\Basic_workflow.dir/objects.a(unity_1_c.c.obj)
EcuM_Prv_dataExpiredWakeupEvents_u32
                    0x4               CMakeFiles\Basic_workflow.dir/objects.a(EcuM_Prv.c.obj)
Com_RxSigBuf_ComMainFunctionRx_au8
                    0x1               CMakeFiles\Basic_workflow.dir/objects.a(unity_1_c.c.obj)
BswM_Prv_flgDelayedReqstProgress_b
                    0x1               CMakeFiles\Basic_workflow.dir/objects.a(unity_0_c.c.obj)
Os_ICUForInterruptVector
                    0x42              C:/ETAS/RTA-CAR_12.2.0/RTA-CAR/workspace/Basic_Workflow/build/../src/os\RTAOS.lib(vrtaAppMain.o)
BswM_Prv_flgDelayDeferredReqst_b
                    0x1               CMakeFiles\Basic_workflow.dir/objects.a(unity_0_c.c.obj)
EcuM_Prv_flgIsModuleInitialised_b
                    0x1               CMakeFiles\Basic_workflow.dir/objects.a(EcuM_Prv.c.obj)
EcuM_Prv_dataSelectedShutdownTarget_st
                    0x4               CMakeFiles\Basic_workflow.dir/objects.a(EcuM_Prv.c.obj)
Os_RunningISR       0x4               C:/ETAS/RTA-CAR_12.2.0/RTA-CAR/workspace/Basic_Workflow/build/../src/os\RTAOS.lib(Os_Cfg.o)
CanSM_PreFullCom_Substates_en
                    0x4               CMakeFiles\Basic_workflow.dir/objects.a(unity_1_c.c.obj)
EcuM_Prv_WkpSrcValidationTimeoutCtr_u16
                    0x2               CMakeFiles\Basic_workflow.dir/objects.a(EcuM_Prv.c.obj)
Com_Prv_TxIpduRam_IP_ApplicationECU_To_TestECU_Can_Network_Channel_CAN_Tx_st
                    0x14              CMakeFiles\Basic_workflow.dir/objects.a(unity_1_c.c.obj)
CanSM_NoComRequested_ab
                    0x1               CMakeFiles\Basic_workflow.dir/objects.a(unity_1_c.c.obj)
Os_ReadyTasks       0x4               C:/ETAS/RTA-CAR_12.2.0/RTA-CAR/workspace/Basic_Workflow/build/../src/os\RTAOS.lib(Os_Cfg.o)
ComM_NvMblock       0x4               CMakeFiles\Basic_workflow.dir/objects.a(unity_3_c.c.obj)
BswM_Prv_flgDeferredReqstProgress_b
                    0x1               CMakeFiles\Basic_workflow.dir/objects.a(unity_0_c.c.obj)
EcuM_Prv_flgGoDown_b
                    0x1               CMakeFiles\Basic_workflow.dir/objects.a(EcuM_Prv.c.obj)
CanSM_ModeRepeatReq_Time_u16
                    0x2               CMakeFiles\Basic_workflow.dir/objects.a(unity_1_c.c.obj)
CanSM_BusOffISRPend_ab
                    0x1               CMakeFiles\Basic_workflow.dir/objects.a(unity_1_c.c.obj)
Os_SuspendOSCount   0x4               C:/ETAS/RTA-CAR_12.2.0/RTA-CAR/workspace/Basic_Workflow/build/../src/os\RTAOS.lib(SuspendOSInterrupts.o)
Rte_Rx_000000       0x1               CMakeFiles\Basic_workflow.dir/objects.a(Rte.c.obj)
hmod_libgcc         0x4               c:/mingw/bin/../lib/gcc/mingw32/6.3.0/crtbegin.o
CanSM_BusOff_Cntr_au8
                    0x1               CMakeFiles\Basic_workflow.dir/objects.a(unity_1_c.c.obj)
EcuM_Prv_dataValWkpEventsInd_u32
                    0x4               CMakeFiles\Basic_workflow.dir/objects.a(EcuM_Prv.c.obj)
CanSM_Num_Unsuccessful_ModeReq_au8
                    0x1               CMakeFiles\Basic_workflow.dir/objects.a(unity_1_c.c.obj)
CanSM_Network_Init_ab
                    0x1               CMakeFiles\Basic_workflow.dir/objects.a(unity_1_c.c.obj)
Os_SuspendOSImask   0x4               C:/ETAS/RTA-CAR_12.2.0/RTA-CAR/workspace/Basic_Workflow/build/../src/os\RTAOS.lib(SuspendOSInterrupts.o)
Os_dyn_scheduletables
                    0x10              C:/ETAS/RTA-CAR_12.2.0/RTA-CAR/workspace/Basic_Workflow/build/../src/os\RTAOS.lib(Os_Cfg.o)
Com_Prv_IpduGrpRam_ComIPduGroup_Tx_st
                    0x1               CMakeFiles\Basic_workflow.dir/objects.a(unity_1_c.c.obj)
ComM_GlobalStruct   0x4               CMakeFiles\Basic_workflow.dir/objects.a(unity_3_c.c.obj)
EcuM_Prv_dataSelectedBootTargetInit_u8
                    0x1               CMakeFiles\Basic_workflow.dir/objects.a(EcuM_Prv.c.obj)
EcuM_Prv_flgIsStartupTwoCalled_ab
                    0x1               CMakeFiles\Basic_workflow.dir/objects.a(EcuM_Prv.c.obj)
CanIf_Prv_TxNotification_aen
                    0x4               CMakeFiles\Basic_workflow.dir/objects.a(unity_1_c.c.obj)
CanSM_ModeRepeatReq_Max_u8
                    0x1               CMakeFiles\Basic_workflow.dir/objects.a(unity_1_c.c.obj)
CanSM_BORMode_au8   0x1               CMakeFiles\Basic_workflow.dir/objects.a(unity_1_c.c.obj)
EcuM_Rb_adrConfigPtr_st
                    0x4               CMakeFiles\Basic_workflow.dir/objects.a(EcuM_Prv.c.obj)
EcuM_Prv_flgCoreReady_ab
                    0x1               CMakeFiles\Basic_workflow.dir/objects.a(EcuM_Prv.c.obj)
CanSM_Trcv_ModeInd_ab
                    0x1               CMakeFiles\Basic_workflow.dir/objects.a(unity_1_c.c.obj)
EcuM_Prv_dataValidatedWakeupEvents_u32
                    0x4               CMakeFiles\Basic_workflow.dir/objects.a(EcuM_Prv.c.obj)
BswM_Rb_ctrInterrupt_au8
                    0x2               CMakeFiles\Basic_workflow.dir/objects.a(unity_0_c.c.obj)
EcuM_Prv_dataExpWkpEventsInd_u32
                    0x4               CMakeFiles\Basic_workflow.dir/objects.a(EcuM_Prv.c.obj)
PduR_State          0x4               CMakeFiles\Basic_workflow.dir/objects.a(unity_4_c.c.obj)
CanSM_currBOR_State_en
                    0x4               CMakeFiles\Basic_workflow.dir/objects.a(unity_1_c.c.obj)
CanSM_GetBusOffDelay_Value_u8
                    0x1               CMakeFiles\Basic_workflow.dir/objects.a(unity_1_c.c.obj)
CanSM_WakeUpValidation_Substates_en
                    0x4               CMakeFiles\Basic_workflow.dir/objects.a(unity_1_c.c.obj)
CanSM_ConfigSet_pcst
                    0x4               CMakeFiles\Basic_workflow.dir/objects.a(unity_1_c.c.obj)
Com_InitStatus_en   0x4               CMakeFiles\Basic_workflow.dir/objects.a(unity_2_c.c.obj)
CanSM_ModeChangeReq_flag
                    0x1               CMakeFiles\Basic_workflow.dir/objects.a(unity_1_c.c.obj)
CanSM_CurrNw_Mode_en
                    0x4               CMakeFiles\Basic_workflow.dir/objects.a(unity_1_c.c.obj)
CanSM_Init_ab       0x1               CMakeFiles\Basic_workflow.dir/objects.a(unity_1_c.c.obj)
Os_dyn_isrs         0x4               C:/ETAS/RTA-CAR_12.2.0/RTA-CAR/workspace/Basic_Workflow/build/../src/os\RTAOS.lib(Os_Cfg.o)
CanIf_Prv_ControllerState_ast
                    0x1               CMakeFiles\Basic_workflow.dir/objects.a(unity_1_c.c.obj)
Os_CurrentAppMode   0x1               C:/ETAS/RTA-CAR_12.2.0/RTA-CAR/workspace/Basic_Workflow/build/../src/os\RTAOS.lib(Os_Cfg.o)
CanSM_MutexMode_au8
                    0x1               CMakeFiles\Basic_workflow.dir/objects.a(unity_1_c.c.obj)
VRTA_DEBUG_DEFER_INTERRUPTS
                    0x4               C:/ETAS/RTA-CAR_12.2.0/RTA-CAR/workspace/Basic_Workflow/build/../src/os\RTAOS.lib(vrtaAppMain.o)
EcuM_Prv_dataPresentPhase_u8
                    0x1               CMakeFiles\Basic_workflow.dir/objects.a(EcuM_Prv.c.obj)
CanSM_Network_pcst  0x4               CMakeFiles\Basic_workflow.dir/objects.a(unity_1_c.c.obj)
EcuM_Prv_dataSelectedBootTarget_u8
                    0x1               CMakeFiles\Basic_workflow.dir/objects.a(EcuM_Prv.c.obj)
BswM_Prv_isReqstDelayed_b
                    0x1               CMakeFiles\Basic_workflow.dir/objects.a(unity_0_c.c.obj)
PduR_Base           0x4               CMakeFiles\Basic_workflow.dir/objects.a(unity_4_c.c.obj)
EcuM_Prv_dataOldPendingWakeupEvents_u32
                    0x4               CMakeFiles\Basic_workflow.dir/objects.a(EcuM_Prv.c.obj)
CanSM_ReqMode_a     0x4               CMakeFiles\Basic_workflow.dir/objects.a(unity_1_c.c.obj)
CanSM_BusSMMode_au8
                    0x1               CMakeFiles\Basic_workflow.dir/objects.a(unity_1_c.c.obj)
CanSM_PreNoCom_Substates_en
                    0x4               CMakeFiles\Basic_workflow.dir/objects.a(unity_1_c.c.obj)
Os_ICUForCore       0x2               C:/ETAS/RTA-CAR_12.2.0/RTA-CAR/workspace/Basic_Workflow/build/../src/os\RTAOS.lib(vrtaAppMain.o)
Com_Prv_IpduGrpRam_ComIPduGroup_Rx_st
                    0x1               CMakeFiles\Basic_workflow.dir/objects.a(unity_1_c.c.obj)
Os_OrtiApiID        0x1               C:/ETAS/RTA-CAR_12.2.0/RTA-CAR/workspace/Basic_Workflow/build/../src/os\RTAOS.lib(Os_Cfg.o)
Os_VCoreTMask       0x4               C:/ETAS/RTA-CAR_12.2.0/RTA-CAR/workspace/Basic_Workflow/build/../src/os\RTAOS.lib(Os_Cfg.o)
CanSM_ControllerState_en
                    0x4               CMakeFiles\Basic_workflow.dir/objects.a(unity_1_c.c.obj)
Os_ChainTaskRef     0x4               C:/ETAS/RTA-CAR_12.2.0/RTA-CAR/workspace/Basic_Workflow/build/../src/os\RTAOS.lib(Os_Cfg.o)
EcuM_Prv_dataPendingWakeupEvents_u32
                    0x4               CMakeFiles\Basic_workflow.dir/objects.a(EcuM_Prv.c.obj)
Os_ErrorInformation
                    0x10              C:/ETAS/RTA-CAR_12.2.0/RTA-CAR/workspace/Basic_Workflow/build/../src/os\RTAOS.lib(Os_Cfg.o)
CanSM_Rb_DisableBusOffRecovery_ab
                    0x1               CMakeFiles\Basic_workflow.dir/objects.a(unity_1_c.c.obj)
EcuM_Prv_dataPndWkpEventsInd_u32
                    0x4               CMakeFiles\Basic_workflow.dir/objects.a(EcuM_Prv.c.obj)
Os_dyn_counters     0x4               C:/ETAS/RTA-CAR_12.2.0/RTA-CAR/workspace/Basic_Workflow/build/../src/os\RTAOS.lib(Os_Cfg.o)
EcuM_Prv_SlaveCoreTimeoutCtr_u8
                    0x1               CMakeFiles\Basic_workflow.dir/objects.a(EcuM_Prv.c.obj)
Com_dIP_ApplicationECU_To_TestECU_Can_Network_Channel_CAN_TxByte
                    0x8               CMakeFiles\Basic_workflow.dir/objects.a(unity_1_c.c.obj)
BswM_Prv_adrSelectedConfig_pcst
                    0x4               CMakeFiles\Basic_workflow.dir/objects.a(unity_0_c.c.obj)
CanSM_Ctrl_ModeInd_ab
                    0x1               CMakeFiles\Basic_workflow.dir/objects.a(unity_1_c.c.obj)
Com_dIP_TestECU_To_ApplicationECU_Can_Network_Channel_CAN_RxByte
                    0x8               CMakeFiles\Basic_workflow.dir/objects.a(unity_1_c.c.obj)
CanSM_ReqComM_Mode_en
                    0x1               CMakeFiles\Basic_workflow.dir/objects.a(unity_1_c.c.obj)
Os_GetStackValueAdjust
                    0x4               C:/ETAS/RTA-CAR_12.2.0/RTA-CAR/workspace/Basic_Workflow/build/../src/os\RTAOS.lib(Os_Cfg.o)
Os_dyn_resources    0x10              C:/ETAS/RTA-CAR_12.2.0/RTA-CAR/workspace/Basic_Workflow/build/../src/os\RTAOS.lib(Os_Cfg.o)
Com_Prv_TxSigFlagS_ApplicationECU_To_TestECU_Data_Can_Network_Channel_CAN_Tx_st
                    0x1               CMakeFiles\Basic_workflow.dir/objects.a(unity_1_c.c.obj)
CanIf_Prv_InitStatus_b
                    0x1               CMakeFiles\Basic_workflow.dir/objects.a(unity_1_c.c.obj)
ComM_UserStruct     0xa               CMakeFiles\Basic_workflow.dir/objects.a(unity_3_c.c.obj)
CanSM_TxTimeoutexception_Substates_en
                    0x4               CMakeFiles\Basic_workflow.dir/objects.a(unity_1_c.c.obj)
CanSM_Wuvalidation_Start_ab
                    0x1               CMakeFiles\Basic_workflow.dir/objects.a(unity_1_c.c.obj)
Com_Prv_RxIpduRam_IP_TestECU_To_ApplicationECU_Can_Network_Channel_CAN_Rx_st
                    0x6               CMakeFiles\Basic_workflow.dir/objects.a(unity_1_c.c.obj)
ComM_ChannelStruct  0x1c              CMakeFiles\Basic_workflow.dir/objects.a(unity_3_c.c.obj)
Os_RunningTask      0x4               C:/ETAS/RTA-CAR_12.2.0/RTA-CAR/workspace/Basic_Workflow/build/../src/os\RTAOS.lib(Os_Cfg.o)
CanIf_Prv_ConfigSet_tpst
                    0x4               CMakeFiles\Basic_workflow.dir/objects.a(unity_0_c.c.obj)
Os_InShutdownHook   0x1               C:/ETAS/RTA-CAR_12.2.0/RTA-CAR/workspace/Basic_Workflow/build/../src/os\RTAOS.lib(Os_Cfg.o)
Os_OrtiLastError    0x1               C:/ETAS/RTA-CAR_12.2.0/RTA-CAR/workspace/Basic_Workflow/build/../src/os\RTAOS.lib(Os_Cfg.o)
Os_dyn_tasks        0x54              C:/ETAS/RTA-CAR_12.2.0/RTA-CAR/workspace/Basic_Workflow/build/../src/os\RTAOS.lib(Os_Cfg.o)
Os_RunningTPMask    0x4               C:/ETAS/RTA-CAR_12.2.0/RTA-CAR/workspace/Basic_Workflow/build/../src/os\RTAOS.lib(Os_Cfg.o)
CanSM_TimerConfig_ast
                    0x8               CMakeFiles\Basic_workflow.dir/objects.a(unity_1_c.c.obj)
BswM_Prv_ctrInterrupt_u8
                    0x1               CMakeFiles\Basic_workflow.dir/objects.a(unity_0_c.c.obj)
EcuM_Prv_dataClrWkpEventsInd_u32
                    0x4               CMakeFiles\Basic_workflow.dir/objects.a(EcuM_Prv.c.obj)
Os_SuspendAllCount  0x4               C:/ETAS/RTA-CAR_12.2.0/RTA-CAR/workspace/Basic_Workflow/build/../src/os\RTAOS.lib(SuspendAllInterrupts.o)
CanSM_ControllerIndications_ab
                    0x1               CMakeFiles\Basic_workflow.dir/objects.a(unity_1_c.c.obj)
BswM_Prv_flgTimerActionState_b
                    0x1               CMakeFiles\Basic_workflow.dir/objects.a(unity_0_c.c.obj)
Rte_ImplicitBufs    0x1               CMakeFiles\Basic_workflow.dir/objects.a(Rte.c.obj)
EcuM_Prv_flgShutdownInfoDoNotUpdate_b
                    0x1               CMakeFiles\Basic_workflow.dir/objects.a(EcuM_Prv.c.obj)
CanSM_BOR_SilentCom_ab
                    0x1               CMakeFiles\Basic_workflow.dir/objects.a(unity_1_c.c.obj)
CanSM_BusOff_Indicated_ab
                    0x1               CMakeFiles\Basic_workflow.dir/objects.a(unity_1_c.c.obj)
CanSM_BOR_Controller_Stopped_state_en
                    0x4               CMakeFiles\Basic_workflow.dir/objects.a(unity_1_c.c.obj)
Os_SuspendAllImask  0x4               C:/ETAS/RTA-CAR_12.2.0/RTA-CAR/workspace/Basic_Workflow/build/../src/os\RTAOS.lib(SuspendAllInterrupts.o)

Discarded input sections

 .drectve       0x00000000       0x1c c:/mingw/bin/../lib/gcc/mingw32/6.3.0/crtbegin.o
 .drectve       0x00000000       0x38 CMakeFiles\Basic_workflow.dir/objects.a(unity_4_c.c.obj)
 .drectve       0x00000000       0x84 CMakeFiles\Basic_workflow.dir/objects.a(unity_3_c.c.obj)
 .drectve       0x00000000       0x24 CMakeFiles\Basic_workflow.dir/objects.a(unity_2_c.c.obj)
 .drectve       0x00000000      0x3e4 CMakeFiles\Basic_workflow.dir/objects.a(unity_1_c.c.obj)
 .drectve       0x00000000       0x5c CMakeFiles\Basic_workflow.dir/objects.a(unity_0_c.c.obj)
 .drectve       0x00000000      0x234 CMakeFiles\Basic_workflow.dir/objects.a(EcuM_Prv.c.obj)
 .text$_ZN13VirtualDevice8StartingEv
                0x00000000        0xc CMakeFiles\Basic_workflow.dir/objects.a(Mcu_Device.cpp.obj)
 .text$_ZN13VirtualDevice8StoppingEv
                0x00000000        0xc CMakeFiles\Basic_workflow.dir/objects.a(Mcu_Device.cpp.obj)
 .text$_ZN13VirtualDevice8SetValueIhEEvR9vrtaEventT_
                0x00000000       0x64 CMakeFiles\Basic_workflow.dir/objects.a(Mcu_Device.cpp.obj)
 .rdata$_ZTI13VirtualDevice
                0x00000000        0x8 CMakeFiles\Basic_workflow.dir/objects.a(Mcu_Device.cpp.obj)
 .rdata$_ZTS13VirtualDevice
                0x00000000       0x10 CMakeFiles\Basic_workflow.dir/objects.a(Mcu_Device.cpp.obj)
 .drectve       0x00000000       0x44 C:/ETAS/RTA-CAR_12.2.0/RTA-CAR/workspace/Basic_Workflow/build/../src/os\RTAOS.lib(SuspendOSInterrupts.o)
 .drectve       0x00000000       0x48 C:/ETAS/RTA-CAR_12.2.0/RTA-CAR/workspace/Basic_Workflow/build/../src/os\RTAOS.lib(SuspendAllInterrupts.o)
 .drectve       0x00000000      0x1a8 C:/ETAS/RTA-CAR_12.2.0/RTA-CAR/workspace/Basic_Workflow/build/../src/os\RTAOS.lib(Os_Cfg.o)
 .text$_ZN14vrtaComparable5ValueEv
                0x00000000       0x10 C:/ETAS/RTA-CAR_12.2.0/RTA-CAR/workspace/Basic_Workflow/build/../src/os\RTAOS.lib(vrtaSampleDevices.o)
 .text$_ZN9vrtaClockD1Ev
                0x00000000       0x30 C:/ETAS/RTA-CAR_12.2.0/RTA-CAR/workspace/Basic_Workflow/build/../src/os\RTAOS.lib(vrtaSampleDevices.o)
 .text$_ZThn36_N9vrtaClockD1Ev
                0x00000000       0x10 C:/ETAS/RTA-CAR_12.2.0/RTA-CAR/workspace/Basic_Workflow/build/../src/os\RTAOS.lib(vrtaSampleDevices.o)
 .rdata$_ZTS25vrtaSystemClockSubscriber
                0x00000000       0x1c C:/ETAS/RTA-CAR_12.2.0/RTA-CAR/workspace/Basic_Workflow/build/../src/os\RTAOS.lib(vrtaSampleDevices.o)
 .rdata$_ZTI25vrtaSystemClockSubscriber
                0x00000000        0x8 C:/ETAS/RTA-CAR_12.2.0/RTA-CAR/workspace/Basic_Workflow/build/../src/os\RTAOS.lib(vrtaSampleDevices.o)
 .rdata$_ZTS10vrtaDevice
                0x00000000       0x10 C:/ETAS/RTA-CAR_12.2.0/RTA-CAR/workspace/Basic_Workflow/build/../src/os\RTAOS.lib(vrtaLoggerDevice.o)
 .rdata$_ZTI10vrtaDevice
                0x00000000        0x8 C:/ETAS/RTA-CAR_12.2.0/RTA-CAR/workspace/Basic_Workflow/build/../src/os\RTAOS.lib(vrtaLoggerDevice.o)
 .rdata$_ZTS18vrtaIdleSubscriber
                0x00000000       0x18 C:/ETAS/RTA-CAR_12.2.0/RTA-CAR/workspace/Basic_Workflow/build/../src/os\RTAOS.lib(vrtaIdleHandling.o)
 .rdata$_ZTI18vrtaIdleSubscriber
                0x00000000        0x8 C:/ETAS/RTA-CAR_12.2.0/RTA-CAR/workspace/Basic_Workflow/build/../src/os\RTAOS.lib(vrtaIdleHandling.o)
 .rdata$_ZTS10vrtaDevice
                0x00000000       0x10 C:/ETAS/RTA-CAR_12.2.0/RTA-CAR/workspace/Basic_Workflow/build/../src/os\RTAOS.lib(vrtaCore.o)
 .rdata$_ZTI10vrtaDevice
                0x00000000        0x8 C:/ETAS/RTA-CAR_12.2.0/RTA-CAR/workspace/Basic_Workflow/build/../src/os\RTAOS.lib(vrtaCore.o)
 .drectve       0x00000000       0x74 C:/ETAS/RTA-CAR_12.2.0/RTA-CAR/workspace/Basic_Workflow/build/../src/os\RTAOS.lib(vrtaAppMain.o)
 .text$_ZN13VirtualDevice8StartingEv
                0x00000000       0x10 C:/ETAS/RTA-CAR_12.2.0/RTA-CAR/workspace/Basic_Workflow/build/../src/os\RTAOS.lib(virtualDevice.o)
 .text$_ZN13VirtualDevice8StoppingEv
                0x00000000       0x10 C:/ETAS/RTA-CAR_12.2.0/RTA-CAR/workspace/Basic_Workflow/build/../src/os\RTAOS.lib(virtualDevice.o)
 .rdata$_ZTS13VirtualDevice
                0x00000000       0x10 C:/ETAS/RTA-CAR_12.2.0/RTA-CAR/workspace/Basic_Workflow/build/../src/os\RTAOS.lib(virtualDevice.o)
 .rdata$_ZTI13VirtualDevice
                0x00000000        0x8 C:/ETAS/RTA-CAR_12.2.0/RTA-CAR/workspace/Basic_Workflow/build/../src/os\RTAOS.lib(virtualDevice.o)
 .text$_ZN13VirtualDevice8StartingEv
                0x00000000       0x10 C:/ETAS/RTA-CAR_12.2.0/RTA-CAR/workspace/Basic_Workflow/build/../src/os\RTAOS.lib(vrtaSystemClockDevice.o)
 .text$_ZN13VirtualDevice8StoppingEv
                0x00000000       0x10 C:/ETAS/RTA-CAR_12.2.0/RTA-CAR/workspace/Basic_Workflow/build/../src/os\RTAOS.lib(vrtaSystemClockDevice.o)
 .rdata$_ZTS13VirtualDevice
                0x00000000       0x10 C:/ETAS/RTA-CAR_12.2.0/RTA-CAR/workspace/Basic_Workflow/build/../src/os\RTAOS.lib(vrtaSystemClockDevice.o)
 .rdata$_ZTI13VirtualDevice
                0x00000000        0x8 C:/ETAS/RTA-CAR_12.2.0/RTA-CAR/workspace/Basic_Workflow/build/../src/os\RTAOS.lib(vrtaSystemClockDevice.o)
 .rdata$_ZTS18vrtaIdleSubscriber
                0x00000000       0x18 C:/ETAS/RTA-CAR_12.2.0/RTA-CAR/workspace/Basic_Workflow/build/../src/os\RTAOS.lib(vrtaSystemClockDevice.o)
 .rdata$_ZTI18vrtaIdleSubscriber
                0x00000000        0x8 C:/ETAS/RTA-CAR_12.2.0/RTA-CAR/workspace/Basic_Workflow/build/../src/os\RTAOS.lib(vrtaSystemClockDevice.o)
 .text$_ZN13VirtualDevice8StartingEv
                0x00000000       0x10 C:/ETAS/RTA-CAR_12.2.0/RTA-CAR/workspace/Basic_Workflow/build/../src/os\RTAOS.lib(vrtaOSMonitorDevice.o)
 .text$_ZN13VirtualDevice8StoppingEv
                0x00000000       0x10 C:/ETAS/RTA-CAR_12.2.0/RTA-CAR/workspace/Basic_Workflow/build/../src/os\RTAOS.lib(vrtaOSMonitorDevice.o)
 .rdata$_ZTS13VirtualDevice
                0x00000000       0x10 C:/ETAS/RTA-CAR_12.2.0/RTA-CAR/workspace/Basic_Workflow/build/../src/os\RTAOS.lib(vrtaOSMonitorDevice.o)
 .rdata$_ZTI13VirtualDevice
                0x00000000        0x8 C:/ETAS/RTA-CAR_12.2.0/RTA-CAR/workspace/Basic_Workflow/build/../src/os\RTAOS.lib(vrtaOSMonitorDevice.o)
 .rdata$_ZTS18vrtaIdleSubscriber
                0x00000000       0x18 C:/ETAS/RTA-CAR_12.2.0/RTA-CAR/workspace/Basic_Workflow/build/../src/os\RTAOS.lib(vrtaOSMonitorDevice.o)
 .rdata$_ZTI18vrtaIdleSubscriber
                0x00000000        0x8 C:/ETAS/RTA-CAR_12.2.0/RTA-CAR/workspace/Basic_Workflow/build/../src/os\RTAOS.lib(vrtaOSMonitorDevice.o)
 .rdata$_ZTSSt9type_info
                0x00000000       0x10 c:/mingw/bin/../lib/gcc/mingw32/6.3.0\libstdc++.a(class_type_info.o)
 .rdata$_ZTISt9type_info
                0x00000000        0x8 c:/mingw/bin/../lib/gcc/mingw32/6.3.0\libstdc++.a(class_type_info.o)
 .rdata$_ZTSN10__cxxabiv117__class_type_infoE
                0x00000000       0x40 c:/mingw/bin/../lib/gcc/mingw32/6.3.0\libstdc++.a(class_type_info.o)
 .rdata$_ZTIN10__cxxabiv117__class_type_infoE
                0x00000000        0xc c:/mingw/bin/../lib/gcc/mingw32/6.3.0\libstdc++.a(class_type_info.o)
 .rdata$_ZTSSt9exception
                0x00000000       0x10 c:/mingw/bin/../lib/gcc/mingw32/6.3.0\libstdc++.a(eh_alloc.o)
 .rdata$_ZTISt9exception
                0x00000000        0x8 c:/mingw/bin/../lib/gcc/mingw32/6.3.0\libstdc++.a(eh_alloc.o)
 .rdata$_ZTSSt9exception
                0x00000000       0x10 c:/mingw/bin/../lib/gcc/mingw32/6.3.0\libstdc++.a(eh_aux_runtime.o)
 .rdata$_ZTISt9exception
                0x00000000        0x8 c:/mingw/bin/../lib/gcc/mingw32/6.3.0\libstdc++.a(eh_aux_runtime.o)
 .rdata$_ZTSSt9exception
                0x00000000       0x10 c:/mingw/bin/../lib/gcc/mingw32/6.3.0\libstdc++.a(vterminate.o)
 .rdata$_ZTISt9exception
                0x00000000        0x8 c:/mingw/bin/../lib/gcc/mingw32/6.3.0\libstdc++.a(vterminate.o)
 .rdata$_ZTSSt9exception
                0x00000000       0x10 c:/mingw/bin/../lib/gcc/mingw32/6.3.0\libstdc++.a(bad_cast.o)
 .rdata$_ZTISt9exception
                0x00000000        0x8 c:/mingw/bin/../lib/gcc/mingw32/6.3.0\libstdc++.a(bad_cast.o)
 .rdata$_ZTSSt8bad_cast
                0x00000000        0xc c:/mingw/bin/../lib/gcc/mingw32/6.3.0\libstdc++.a(bad_cast.o)
 .rdata$_ZTISt8bad_cast
                0x00000000        0xc c:/mingw/bin/../lib/gcc/mingw32/6.3.0\libstdc++.a(bad_cast.o)
 .rdata$_ZTSSt9type_info
                0x00000000       0x10 c:/mingw/bin/../lib/gcc/mingw32/6.3.0\libstdc++.a(si_class_type_info.o)
 .rdata$_ZTISt9type_info
                0x00000000        0x8 c:/mingw/bin/../lib/gcc/mingw32/6.3.0\libstdc++.a(si_class_type_info.o)
 .rdata$_ZTSN10__cxxabiv117__class_type_infoE
                0x00000000       0x40 c:/mingw/bin/../lib/gcc/mingw32/6.3.0\libstdc++.a(si_class_type_info.o)
 .rdata$_ZTIN10__cxxabiv117__class_type_infoE
                0x00000000        0xc c:/mingw/bin/../lib/gcc/mingw32/6.3.0\libstdc++.a(si_class_type_info.o)
 .rdata$_ZTSSt9type_info
                0x00000000       0x10 c:/mingw/bin/../lib/gcc/mingw32/6.3.0\libstdc++.a(tinfo.o)
 .rdata$_ZTISt9type_info
                0x00000000        0x8 c:/mingw/bin/../lib/gcc/mingw32/6.3.0\libstdc++.a(tinfo.o)
 .rdata$_ZTSSt9exception
                0x00000000       0x10 c:/mingw/bin/../lib/gcc/mingw32/6.3.0\libstdc++.a(new_op.o)
 .rdata$_ZTISt9exception
                0x00000000        0x8 c:/mingw/bin/../lib/gcc/mingw32/6.3.0\libstdc++.a(new_op.o)
 .rdata$_ZTSSt9bad_alloc
                0x00000000       0x10 c:/mingw/bin/../lib/gcc/mingw32/6.3.0\libstdc++.a(new_op.o)
 .rdata$_ZTISt9bad_alloc
                0x00000000        0xc c:/mingw/bin/../lib/gcc/mingw32/6.3.0\libstdc++.a(new_op.o)
 .rdata$_ZTSSt9exception
                0x00000000       0x10 c:/mingw/bin/../lib/gcc/mingw32/6.3.0\libstdc++.a(eh_exception.o)
 .rdata$_ZTISt9exception
                0x00000000        0x8 c:/mingw/bin/../lib/gcc/mingw32/6.3.0\libstdc++.a(eh_exception.o)
 .rdata$_ZTSSt13bad_exception
                0x00000000       0x14 c:/mingw/bin/../lib/gcc/mingw32/6.3.0\libstdc++.a(eh_exception.o)
 .rdata$_ZTISt13bad_exception
                0x00000000        0xc c:/mingw/bin/../lib/gcc/mingw32/6.3.0\libstdc++.a(eh_exception.o)
 .rdata$_ZTSN10__cxxabiv115__forced_unwindE
                0x00000000       0x20 c:/mingw/bin/../lib/gcc/mingw32/6.3.0\libstdc++.a(eh_exception.o)
 .rdata$_ZTIN10__cxxabiv115__forced_unwindE
                0x00000000        0x8 c:/mingw/bin/../lib/gcc/mingw32/6.3.0\libstdc++.a(eh_exception.o)
 .rdata$_ZTSN10__cxxabiv119__foreign_exceptionE
                0x00000000       0x40 c:/mingw/bin/../lib/gcc/mingw32/6.3.0\libstdc++.a(eh_exception.o)
 .rdata$_ZTIN10__cxxabiv119__foreign_exceptionE
                0x00000000        0x8 c:/mingw/bin/../lib/gcc/mingw32/6.3.0\libstdc++.a(eh_exception.o)
 .rdata$_ZTSSt9exception
                0x00000000       0x10 c:/mingw/bin/../lib/gcc/mingw32/6.3.0\libstdc++.a(bad_typeid.o)
 .rdata$_ZTISt9exception
                0x00000000        0x8 c:/mingw/bin/../lib/gcc/mingw32/6.3.0\libstdc++.a(bad_typeid.o)
 .rdata$_ZTSSt10bad_typeid
                0x00000000       0x10 c:/mingw/bin/../lib/gcc/mingw32/6.3.0\libstdc++.a(bad_typeid.o)
 .rdata$_ZTISt10bad_typeid
                0x00000000        0xc c:/mingw/bin/../lib/gcc/mingw32/6.3.0\libstdc++.a(bad_typeid.o)
 .rdata$_ZTSSt9exception
                0x00000000       0x10 c:/mingw/bin/../lib/gcc/mingw32/6.3.0\libstdc++.a(bad_array_new.o)
 .rdata$_ZTISt9exception
                0x00000000        0x8 c:/mingw/bin/../lib/gcc/mingw32/6.3.0\libstdc++.a(bad_array_new.o)
 .rdata$_ZTSSt9bad_alloc
                0x00000000       0x10 c:/mingw/bin/../lib/gcc/mingw32/6.3.0\libstdc++.a(bad_array_new.o)
 .rdata$_ZTISt9bad_alloc
                0x00000000        0xc c:/mingw/bin/../lib/gcc/mingw32/6.3.0\libstdc++.a(bad_array_new.o)
 .rdata$_ZTSSt20bad_array_new_length
                0x00000000       0x1c c:/mingw/bin/../lib/gcc/mingw32/6.3.0\libstdc++.a(bad_array_new.o)
 .rdata$_ZTISt20bad_array_new_length
                0x00000000        0xc c:/mingw/bin/../lib/gcc/mingw32/6.3.0\libstdc++.a(bad_array_new.o)
 .rdata$_ZTSSt9exception
                0x00000000       0x10 c:/mingw/bin/../lib/gcc/mingw32/6.3.0\libstdc++.a(bad_alloc.o)
 .rdata$_ZTISt9exception
                0x00000000        0x8 c:/mingw/bin/../lib/gcc/mingw32/6.3.0\libstdc++.a(bad_alloc.o)
 .rdata$_ZTSSt9bad_alloc
                0x00000000       0x10 c:/mingw/bin/../lib/gcc/mingw32/6.3.0\libstdc++.a(bad_alloc.o)
 .rdata$_ZTISt9bad_alloc
                0x00000000        0xc c:/mingw/bin/../lib/gcc/mingw32/6.3.0\libstdc++.a(bad_alloc.o)
 .drectve       0x00000000       0x3c c:/mingw/bin/../lib/gcc/mingw32/6.3.0\libgcc.a(_ctors.o)
 .text          0x00000000        0x8 c:/mingw/bin/../lib/gcc/mingw32/6.3.0/../../..\libmsvcrt.a(djpvbs00324.o)
 .text          0x00000000        0x8 c:/mingw/bin/../lib/gcc/mingw32/6.3.0/../../..\libmsvcrt.a(djpvbs00153.o)

Memory Configuration

Name             Origin             Length             Attributes
*default*        0x00000000         0xffffffff

Linker script and memory map

                0x00400000                __image_base__ = 0x400000
                0x00000000                __dll__ = 0x0
                0x00400000                ___ImageBase = 0x400000
                0x00001000                __section_alignment__ = 0x1000
                0x00000200                __file_alignment__ = 0x200
                0x00000004                __major_os_version__ = 0x4
                0x00000000                __minor_os_version__ = 0x0
                0x00000000                __major_image_version__ = 0x0
                0x00000000                __minor_image_version__ = 0x0
                0x00000004                __major_subsystem_version__ = 0x4
                0x00000000                __minor_subsystem_version__ = 0x0
                0x00000003                __subsystem__ = 0x3
                0x00200000                __size_of_stack_reserve__ = 0x200000
                0x00001000                __size_of_stack_commit__ = 0x1000
                0x00100000                __size_of_heap_reserve__ = 0x100000
                0x00001000                __size_of_heap_commit__ = 0x1000
                0x00000000                __loader_flags__ = 0x0
                0x00000000                __dll_characteristics__ = 0x0
LOAD c:/mingw/bin/../lib/gcc/mingw32/6.3.0/../../../crt2.o
LOAD c:/mingw/bin/../lib/gcc/mingw32/6.3.0/crtbegin.o
LOAD CMakeFiles\Basic_workflow.dir/objects.a
LOAD C:/ETAS/RTA-CAR_12.2.0/RTA-CAR/workspace/Basic_Workflow/build/../src/os\RTAOS.lib
LOAD c:/mingw/bin/../lib/gcc/mingw32/6.3.0/../../..\libwinmm.a
LOAD c:/mingw/bin/../lib/gcc/mingw32/6.3.0/../../..\libws2_32.a
LOAD c:/mingw/bin/../lib/gcc/mingw32/6.3.0\libstdc++.a
LOAD c:/mingw/bin/../lib/gcc/mingw32/6.3.0/../../..\libkernel32.a
LOAD c:/mingw/bin/../lib/gcc/mingw32/6.3.0/../../..\libuser32.a
LOAD c:/mingw/bin/../lib/gcc/mingw32/6.3.0/../../..\libgdi32.a
LOAD c:/mingw/bin/../lib/gcc/mingw32/6.3.0/../../..\libwinspool.a
LOAD c:/mingw/bin/../lib/gcc/mingw32/6.3.0/../../..\libshell32.a
LOAD c:/mingw/bin/../lib/gcc/mingw32/6.3.0/../../..\libole32.a
LOAD c:/mingw/bin/../lib/gcc/mingw32/6.3.0/../../..\liboleaut32.a
LOAD c:/mingw/bin/../lib/gcc/mingw32/6.3.0/../../..\libuuid.a
LOAD c:/mingw/bin/../lib/gcc/mingw32/6.3.0/../../..\libcomdlg32.a
LOAD c:/mingw/bin/../lib/gcc/mingw32/6.3.0/../../..\libadvapi32.a
LOAD c:/mingw/bin/../lib/gcc/mingw32/6.3.0\libstdc++.a
LOAD c:/mingw/bin/../lib/gcc/mingw32/6.3.0/../../..\libmingw32.a
LOAD c:/mingw/bin/../lib/gcc/mingw32/6.3.0\libgcc.a
LOAD c:/mingw/bin/../lib/gcc/mingw32/6.3.0\libgcc_eh.a
LOAD c:/mingw/bin/../lib/gcc/mingw32/6.3.0/../../..\libmoldname.a
LOAD c:/mingw/bin/../lib/gcc/mingw32/6.3.0/../../..\libmingwex.a
LOAD c:/mingw/bin/../lib/gcc/mingw32/6.3.0/../../..\libmsvcrt.a
LOAD c:/mingw/bin/../lib/gcc/mingw32/6.3.0/../../..\libadvapi32.a
LOAD c:/mingw/bin/../lib/gcc/mingw32/6.3.0/../../..\libshell32.a
LOAD c:/mingw/bin/../lib/gcc/mingw32/6.3.0/../../..\libuser32.a
LOAD c:/mingw/bin/../lib/gcc/mingw32/6.3.0/../../..\libkernel32.a
LOAD c:/mingw/bin/../lib/gcc/mingw32/6.3.0/../../..\libmingw32.a
LOAD c:/mingw/bin/../lib/gcc/mingw32/6.3.0\libgcc.a
LOAD c:/mingw/bin/../lib/gcc/mingw32/6.3.0\libgcc_eh.a
LOAD c:/mingw/bin/../lib/gcc/mingw32/6.3.0/../../..\libmoldname.a
LOAD c:/mingw/bin/../lib/gcc/mingw32/6.3.0/../../..\libmingwex.a
LOAD c:/mingw/bin/../lib/gcc/mingw32/6.3.0/../../..\libmsvcrt.a
LOAD c:/mingw/bin/../lib/gcc/mingw32/6.3.0/crtend.o
                0x000003f8                . = SIZEOF_HEADERS
                0x00001000                . = ALIGN (__section_alignment__)

.text           0x00401000    0x34600
 *(.init)
 *(.text)
 .text          0x00401000      0x340 c:/mingw/bin/../lib/gcc/mingw32/6.3.0/../../../crt2.o
                0x004012a0                _mingw32_init_mainargs
                0x004012e0                mainCRTStartup
                0x00401300                WinMainCRTStartup
                0x00401320                atexit
                0x00401330                _onexit
 .text          0x00401340      0x120 c:/mingw/bin/../lib/gcc/mingw32/6.3.0/crtbegin.o
                0x00401340                __gcc_register_frame
                0x00401430                __gcc_deregister_frame
 .text          0x00401460      0xb6c CMakeFiles\Basic_workflow.dir/objects.a(unity_4_c.c.obj)
                0x00401460                PduR_GetConfigurationId
                0x00401475                PduR_dGetConfigurationId
                0x00401492                PduR_iGetConfigurationId
                0x004014a4                PduR_Init
                0x004014b8                PduR_dInit
                0x004014d5                PduR_iInit
                0x00401502                PduR_iInit_multicast
                0x00401529                PduR_invId_IfTriggerTransmit
                0x0040153d                PduR_invId_UpCancelReceive
                0x00401551                PduR_invId_UpCancelTransmit
                0x00401565                PduR_MF_UpToLo
                0x004016c2                PduR_MF_CancelTransmit_UpToLo
                0x0040174b                PduR_MF_Com_Transmit_Func
                0x0040177b                PduR_GwMcTx_Transmit_Func
                0x004017a9                PduR_NF_TriggerTransmit_Func
                0x004017bd                rba_BswSrv_FifoPeek
                0x004017cf                rba_BswSrv_FifoPop
                0x004017e1                rba_BswSrv_FifoPush
                0x004017f3                rba_BswSrv_FifoInitPush
                0x00401805                rba_BswSrv_FifoInitPop
                0x00401817                rba_BswSrv_MemCompare
                0x00401961                rba_BswSrv_MemCopy
                0x00401a35                rba_BswSrv_MemSet
                0x00401b16                rba_DiagLib_ByteOrderUtils_Dummy
                0x00401b20                Dem_ReportErrorStatus
                0x00401b36                Dem_SetEventStatus
                0x00401b4c                Can_Init
                0x00401b60                Can_InitController
                0x00401b82                Can_SetControllerMode
                0x00401bab                Can_DisableControllerInterrupts
                0x00401bc6                Can_EnableControllerInterrupts
                0x00401be1                Can_CheckWakeup
                0x00401bfb                Can_Write
                0x00401c2d                Can_MainFunction_Write
                0x00401c42                Can_MainFunction_Read
                0x00401c57                Can_MainFunction_BusOff
                0x00401c6c                Can_MainFunction_Wakeup
                0x00401c81                Can_MainFunction_Mode
                0x00401c8f                Can_DeInit
                0x00401c9d                Can_GetControllerErrorState
                0x00401cbe                Can_GetControllerMode
                0x00401cdf                Can_GetControllerRxErrorCounter
                0x00401d00                Can_GetControllerTxErrorCounter
                0x00401d21                Os_Entry_Can_IrqHandler
                0x00401d2f                mcal_warn
                0x00401d4a                mcal_error
                0x00401da5                mcal_printf
                0x00401df4                Mcu_Init
                0x00401e10                Mcu_InitRamSection
                0x00401e2b                Mcu_InitClock
                0x00401e46                Mcu_GetPllStatus
                0x00401e5a                Mcu_GetResetReason
                0x00401e6e                Mcu_GetResetRawValue
                0x00401e82                Mcu_PerformReset
                0x00401e97                Mcu_SetMode
                0x00401eb3                Os_Entry_InitTask
                0x00401ecb                ErrorHook
                0x00401f1e                StartupHook
                0x00401f2c                ShutdownHook
                0x00401f3b                Os_Cbk_Idle
                0x00401f64                Os_Cbk_GetStopwatch
                0x00401f77                Os_Cbk_CheckMemoryAccess
                0x00401f8a                Os_Entry_VECU_SystemClock_ISR
                0x00401fb9                vrta_app_main
 .text          0x00401fcc     0x14b0 CMakeFiles\Basic_workflow.dir/objects.a(unity_3_c.c.obj)
                0x00401fcc                ComM_MainFunction_Can_Network_Channel_Can_Network
                0x00401fe1                ComM_Prv_ValidateUserId
                0x00402006                ComM_Prv_getLeastBusSmMode
                0x00402057                ComM_Prv_UpdateChannelModes
                0x00402173                ComM_Nm_TransmissionFailure
                0x00402182                ComM_Nm_NetworkTimeoutException
                0x00402191                ComM_BusSM_BusSleepMode
                0x00402201                ComM_BusSM_ModeIndication
                0x00402226                ComM_CommunicationAllowed
                0x00402269                ComM_DCM_ActiveDiagnostic
                0x004022d0                ComM_DCM_InactiveDiagnostic
                0x00402301                ComM_DeInit
                0x0040235a                ComM_EcuM_PNCWakeUpIndication
                0x00402369                ComM_EcuM_WakeUpIndication
                0x004023d5                ComM_GetCurrentComMode
                0x00402430                ComM_GetCurrentPNCComMode
                0x00402478                ComM_GetMaxComMode
                0x004024ca                ComM_GetRequestedComMode
                0x00402537                ComM_GetStatus
                0x00402559                ComM_Init
                0x004026ad                ComM_Prv_ChannelMainFunction
                0x00402df3                ComM_Nm_BusSleepMode
                0x00402e6d                ComM_Nm_ForwardSynchronizedPncShutdown
                0x00402e7c                ComM_Nm_NetworkMode
                0x00402eeb                ComM_Nm_NetworkStartIndication
                0x00402f81                ComM_Nm_PrepareBusSleepMode
                0x00402fef                ComM_Nm_RestartIndication
                0x00403085                ComM_RequestComMode
                0x004031f0                PduR_ComTransmit
                0x00403212                PduR_CanIfTxConfirmation
                0x0040323c                PduR_CanIfRxIndication
                0x0040325f                PduR_dCanIfRxIndication
                0x00403301                PduR_dCanIfTxConfirmation
                0x0040338d                PduR_dComTransmit
                0x0040343f                PduR_DisableRouting
                0x00403455                PduR_EnableRouting
                0x00403465                PduR_GF_DDIf_NoBuf_TxConfirmation_Func
 .text          0x0040347c     0x43b8 CMakeFiles\Basic_workflow.dir/objects.a(unity_2_c.c.obj)
                0x0040347c                Com_GetStatus
                0x00403486                Com_Init
                0x00403893                Com_InvalidateSignal
                0x004038a7                Com_Prv_RxIPduStart
                0x004038bc                Com_Prv_TxIPduStart
                0x00403bc0                Com_Prv_TxIPduStop
                0x00403d10                Com_IpduGroupStart
                0x00404005                Com_IpduGroupStop
                0x00404340                Com_Prv_InternalMainFunctionTx
                0x00404f12                Com_IsTxScheduled
                0x00404fc2                Com_Prv_PackSignal
                0x00405146                Com_Prv_ProcessSignal
                0x004055c5                Com_ReceiveSignal
                0x004056ee                Com_Prv_CopyData_Sig_UnsignedType
                0x0040586f                Com_Prv_CopyData_Sig_SignedType
                0x00405989                Com_RxIndication
                0x00405afa                Com_Prv_ProcessRxIPdu
                0x00405b44                Com_Prv_InvokeRxNotifications
                0x00405c7d                Com_Prv_RxReplaceSignal
                0x00405e52                Com_Prv_SendIpdu
                0x004063f3                Com_SendSignal
                0x00406443                Com_Prv_InternalSendSignal
                0x00406831                Com_SwitchIpduTxMode
                0x00406ab7                Com_TriggerIPDUSend
                0x00406ba0                Com_TriggerTransmit
                0x00406c7e                Com_Prv_TxChangeMode
                0x004070ba                Com_Prv_SigTxChangeMode
                0x0040741d                Com_TxConfirmation
                0x004074a5                Com_Prv_InternalTxConfirmation
                0x00407665                Com_Prv_UnpackSignal
 .text          0x00407834     0x4360 CMakeFiles\Basic_workflow.dir/objects.a(unity_1_c.c.obj)
                0x00407834                CanIf_Integn_ControllerErrorPassive
                0x00407843                CanIf_ResetDynamicTxId
                0x00407853                CanIf_Rb_ReadTxPduCanId
                0x004078e7                CanIf_Rb_ReadRxPduCanId
                0x00407948                CanIf_ReturnTxPduId
                0x004079f2                CanIf_ReturnRxPduId
                0x00407aa5                CanIf_ReadTxNotifStatus
                0x00407b26                CanIf_ReadRxNotifStatus
                0x00407bc9                CanIf_Integn_RxIndication
                0x00407de2                CanIf_XCore_LocalCore_RxIndication
                0x00407e23                CanIf_Transmit
                0x00407ee2                CanIf_XCore_LocalCore_Transmit
                0x00408140                CanIf_Integn_TxConfirmation
                0x0040823d                CanIf_XCore_LocalCore_TxConfirmation
                0x00408274                CanSM_ControllerBusOff
                0x004085e5                CanSM_BusOffTransitions
                0x00408b57                CanSM_BOR_MultipleCtrlsStop
                0x00408c68                CanSM_BOR_CtrlsStart
                0x00408d9b                CanSM_Rb_DisableBusOffRecovery
                0x00408dc4                CanSM_GetMutex
                0x00408dfa                CanSM_GetBusoff_Substate
                0x00408e6d                CanSM_BOR_CtrlsStart_SilentCom
                0x0040902a                CanSM_ControllerModeIndication
                0x00409178                CanSM_GetCurrentComMode
                0x00409204                CanSM_Init
                0x00409478                CanSM_DeInitPnNotSupported
                0x004098b1                CanSM_GetHandle
                0x0040990e                CanSM_StopCtrl
                0x00409b5e                CanSM_StartCtrl
                0x00409d5d                CanSM_SleepCtrl
                0x00409e6b                CanSM_NO2FULL_COM
                0x0040a3cc                CanSM_FULL2SILENT_COM
                0x0040a4e1                CanSM_SILENT2FULL_COM
                0x0040a626                CanSM_TxTimeoutException_StateMachine
                0x0040a93b                CanSM_WakeUpValidation_StateMachine
                0x0040ac72                CanSM_PreNoCom_Exit
                0x0040ad60                CanSM_BOR_SilentCom_Exit
                0x0040ae95                CanSM_MainFunction
                0x0040b12d                CanSM_NetworkModeTrans
                0x0040b416                CanSM_GetNetworkMode_Substate
                0x0040b477                CanSM_RequestComMode
                0x0040b804                CanSM_StartWakeupSource
                0x0040b8c3                CanSM_StopWakeupSource
                0x0040b995                CanSM_TxTimeoutException
                0x0040b9f9                Com_MainFunctionRx_ComMainFunctionRx
                0x0040b9ff                Com_MainFunctionTx_ComMainFunctionTx
                0x0040ba14                Com_ByteCopy
                0x0040ba57                Com_DeInit
                0x0040bb31                Com_Prv_Filter
 .text          0x0040bb94     0x1dd4 CMakeFiles\Basic_workflow.dir/objects.a(unity_0_c.c.obj)
                0x0040bb94                BswM_Appl_IncompatibleGenerator
                0x0040bb9a                BswM_Init
                0x0040bc2e                BswM_Deinit
                0x0040bc3b                BswM_GetVersionInfo
                0x0040bc6e                BswM_MainFunction
                0x0040bd06                BswM_CanSM_CurrentState
                0x0040bd15                BswM_ComM_CurrentMode
                0x0040be5c                BswM_ComM_CurrentPNCMode
                0x0040be6b                BswM_ComM_InitiateReset
                0x0040be71                BswM_EcuM_CurrentState
                0x0040be80                BswM_EcuM_CurrentWakeup
                0x0040be8f                BswM_EcuM_RequestedState
                0x0040bea4                BswM_RequestMode
                0x0040c012                BswM_Prv_CopyModeInitValues
                0x0040c0e6                BswM_Prv_CopyRuleInitSates
                0x0040c48a                BswM_Prv_Evaluate_Action
                0x0040c4c7                BswM_Prv_Evaluate_ActionList
                0x0040c5ed                BswM_Prv_IntrptQueueIn
                0x0040c6c6                BswM_Prv_IntrptQueueOut
                0x0040c80a                BswM_Prv_GetComMMRPIndex_b
                0x0040c869                BswM_Prv_GetGenReqMRPIndex_b
                0x0040c8d2                BswM_Prv_ReqProcessOrQueue_b
                0x0040c964                BswM_Prv_RuleEval
                0x0040c9c8                BswM_Prv_ClearAllDeferredRequests
                0x0040ca66                BswM_Prv_StoreDeferredRequest
                0x0040cbbb                BswM_Prv_ProcessDeferredReqst
                0x0040cc93                BswM_Prv_GetComMIndicationInfo_en
                0x0040cd0f                BswM_Prv_GetGenReqInfo_en
                0x0040cda4                BswM_Prv_ProcessDelayedReqst
                0x0040cf18                BswM_Prv_Evaluate_Rule
                0x0040d02b                BswM_Prv_Arbitrate_Rule
                0x0040d0cc                BswM_WdgM_RequestPartitionReset
                0x0040d234                BswM_Cfg_ProcessSchMSwitchFunction
                0x0040d2a1                BswM_Cfg_ProcessUserCalloutFunction
                0x0040d2c5                BswM_Cfg_LE_BswM_LE_GoDown
                0x0040d2fc                BswM_Cfg_LE_BswM_LE_InitBlockReadAllComplete
                0x0040d333                BswM_Cfg_LE_BswM_LE_Run
                0x0040d3a2                BswM_Cfg_LE_BswM_LE_Shutdown
                0x0040d40e                BswM_Cfg_LE_BswM_LE_StartCom
                0x0040d445                BswM_Cfg_DfrdBswNotification_BswM_MRP_BswM_MDG_ECUM_STATE_APP_RUN
                0x0040d462                BswM_Cfg_DfrdBswNotification_BswM_MRP_BswM_MDG_ECUM_STATE_APP_POST_RUN
                0x0040d47f                BswM_Cfg_DfrdBswNotification_BswM_MRP_BswM_MDG_ECUM_STATE_PREP_SHUTDOWN
                0x0040d49c                BswM_Cfg_DfrdBswNotification_BswM_MRP_BswM_MDG_ECUM_STATE_RUN
                0x0040d4b9                CanIf_RxIndication
                0x0040d4d4                CanIf_TxConfirmation
                0x0040d4f0                CanIf_ControllerBusOff
                0x0040d50b                CanIf_ControllerModeIndication
                0x0040d52d                CanIf_ControllerErrorPassive
                0x0040d548                Can_Integn_SetControllerMode
                0x0040d569                Can_Integn_GetControllerMode
                0x0040d58a                Can_Integn_Write
                0x0040d5ac                CanIf_SetControllerMode
                0x0040d686                CanIf_GetControllerMode
                0x0040d740                CanIf_Integn_ControllerBusOff
                0x0040d799                CanIf_Integn_ControllerModeIndication
                0x0040d800                CanIf_Init
                0x0040d8a2                CanIf_DeInit
                0x0040d8a8                CanIf_SetPduMode
                0x0040d923                CanIf_GetPduMode
 .text          0x0040d968       0xa0 CMakeFiles\Basic_workflow.dir/objects.a(MySWC.c.obj)
                0x0040d968                RE_MySWC_func
 .text          0x0040da08       0xc0 CMakeFiles\Basic_workflow.dir/objects.a(Det.c.obj)
                0x0040da08                Det_Init
                0x0040da3c                Det_Start
                0x0040da42                Det_ReportError
                0x0040da6d                Det_ReportRuntimeError
                0x0040da98                Det_ReportTransientFault
 .text          0x0040dac8        0x0 CMakeFiles\Basic_workflow.dir/objects.a(EcuM_Cfg.c.obj)
 .text          0x0040dac8        0x8 CMakeFiles\Basic_workflow.dir/objects.a(EcuM_Cfg_PbExt.c.obj)
                0x0040dac8                EcuM_Prv_GetPbVariantIndex
 .text          0x0040dad0        0x8 CMakeFiles\Basic_workflow.dir/objects.a(EcuM_Cfg_RbMo.c.obj)
                0x0040dad0                EcuM_RbMoInitCheck
 .text          0x0040dad8        0x0 CMakeFiles\Basic_workflow.dir/objects.a(EcuM_Cfg_Shutdown.c.obj)
 .text          0x0040dad8        0xc CMakeFiles\Basic_workflow.dir/objects.a(EcuM_Cfg_Sleep.c.obj)
                0x0040dad8                EcuM_Prv_GetResource
                0x0040dade                EcuM_Prv_ReleaseResource
 .text          0x0040dae4       0x64 CMakeFiles\Basic_workflow.dir/objects.a(EcuM_Cfg_Startup.c.obj)
                0x0040dae4                EcuM_AL_DriverInitZero
                0x0040daea                EcuM_AL_DriverInitOne
 .text          0x0040db48        0x8 CMakeFiles\Basic_workflow.dir/objects.a(EcuM_Cfg_SynchPoint.c.obj)
                0x0040db48                EcuM_Synch_Point
 .text          0x0040db50        0x0 CMakeFiles\Basic_workflow.dir/objects.a(EcuM_Lcfg.c.obj)
 .text          0x0040db50        0x0 CMakeFiles\Basic_workflow.dir/objects.a(EcuM_PBcfg.c.obj)
 .text          0x0040db50       0x70 CMakeFiles\Basic_workflow.dir/objects.a(EcuM_Callout_Stubs.c.obj)
                0x0040db50                EcuM_ErrorHook
                0x0040db5f                EcuM_DeterminePbConfiguration
                0x0040db69                EcuM_OnGoOffOne
                0x0040db76                EcuM_OnGoOffTwo
                0x0040db83                EcuM_AL_SwitchOff
                0x0040db90                EcuM_AL_Reset
                0x0040db9f                EcuM_CheckWakeup
                0x0040dba5                EcuM_StartWakeupSources
                0x0040dbab                EcuM_StopWakeupSources
                0x0040dbb1                EcuM_CheckValidation
                0x0040dbb7                EcuM_SwitchOsAppMode
 .text          0x0040dbc0       0x7c CMakeFiles\Basic_workflow.dir/objects.a(EcuM_BootTarget.c.obj)
                0x0040dbc0                EcuM_GetBootTarget
                0x0040dbfb                EcuM_SelectBootTarget
 .text          0x0040dc3c        0x0 CMakeFiles\Basic_workflow.dir/objects.a(EcuM_CurrentState.c.obj)
 .text          0x0040dc3c        0x0 CMakeFiles\Basic_workflow.dir/objects.a(EcuM_KillAllRequests.c.obj)
 .text          0x0040dc3c      0x1c8 CMakeFiles\Basic_workflow.dir/objects.a(EcuM_MainFunction.c.obj)
                0x0040dc3c                EcuM_MainFunction
 .text          0x0040de04        0x0 CMakeFiles\Basic_workflow.dir/objects.a(EcuM_Misc.c.obj)
 .text          0x0040de04      0x4d8 CMakeFiles\Basic_workflow.dir/objects.a(EcuM_Prv.c.obj)
                0x0040de04                EcuM_Prv_WakeupIndication
                0x0040dfe7                EcuM_Prv_DecValidationCtr
                0x0040e009                EcuM_Prv_PBPointerConsistencyCheck
                0x0040e0b5                EcuM_Prv_SetDefinedMcuWakeupSource
                0x0040e11e                EcuM_Prv_StartOS
                0x0040e156                EcuM_Prv_hasCheckWakeupSourceGetHandle_b
                0x0040e17b                EcuM_Prv_ComMWakeupHandling
 .text          0x0040e2dc        0x0 CMakeFiles\Basic_workflow.dir/objects.a(EcuM_Prv_RteActions.c.obj)
 .text          0x0040e2dc        0x0 CMakeFiles\Basic_workflow.dir/objects.a(EcuM_ReleasePOST_RUN.c.obj)
 .text          0x0040e2dc        0x0 CMakeFiles\Basic_workflow.dir/objects.a(EcuM_ReleaseRUN.c.obj)
 .text          0x0040e2dc        0x0 CMakeFiles\Basic_workflow.dir/objects.a(EcuM_RequestPOST_RUN.c.obj)
 .text          0x0040e2dc        0x0 CMakeFiles\Basic_workflow.dir/objects.a(EcuM_RequestRUN.c.obj)
 .text          0x0040e2dc        0x0 CMakeFiles\Basic_workflow.dir/objects.a(EcuM_SetState.c.obj)
 .text          0x0040e2dc      0x110 CMakeFiles\Basic_workflow.dir/objects.a(EcuM_Shutdown.c.obj)
                0x0040e2dc                EcuM_GoDownHaltPoll
                0x0040e32b                EcuM_GoDown
                0x0040e3a5                EcuM_Shutdown
 .text          0x0040e3ec      0x150 CMakeFiles\Basic_workflow.dir/objects.a(EcuM_ShutdownServices.c.obj)
                0x0040e3ec                EcuM_SelectShutdownCause
                0x0040e42b                EcuM_GetShutdownCause
                0x0040e45c                EcuM_SelectShutdownTarget
                0x0040e4cb                EcuM_GetShutdownTarget
                0x0040e52a                EcuM_GetLastShutdownTarget
 .text          0x0040e53c        0x0 CMakeFiles\Basic_workflow.dir/objects.a(EcuM_Sleep.c.obj)
 .text          0x0040e53c       0xe4 CMakeFiles\Basic_workflow.dir/objects.a(EcuM_Startup.c.obj)
                0x0040e53c                EcuM_Init
                0x0040e5d9                EcuM_StartupTwo
 .text          0x0040e620      0x388 CMakeFiles\Basic_workflow.dir/objects.a(EcuM_WakeupServices.c.obj)
                0x0040e620                EcuM_SetWakeupEvent
                0x0040e766                EcuM_ValidateWakeupEvent
                0x0040e817                EcuM_ClearWakeupEvent
                0x0040e91c                EcuM_GetPendingWakeupEvents
                0x0040e94a                EcuM_GetValidatedWakeupEvents
                0x0040e978                EcuM_GetExpiredWakeupEvents
 .text          0x0040e9a8      0x1d8 CMakeFiles\Basic_workflow.dir/objects.a(Rte.c.obj)
                0x0040e9a8                SchM_Mode_BswM_MDGR_BswM_MRP_BswM_MDG
                0x0040e9c8                SchM_Switch_BswM_MDGP_ModeDeclarationGroups_MDG_ECUM_STATE
                0x0040ea2e                Rte_Write_CPT_MySWC_ApplicationECU_PPortPrototype_0_DE_MyDataElement
                0x0040ea5f                Rte_COMCbk_S_TestECU_To_ApplicationECU_Data_Can_Network_Channel_CAN_Rx
                0x0040eaa8                Os_Entry_OsTask_ASW
                0x0040ead9                Os_Entry_OsTask_BSW
 .text          0x0040eb80      0x504 CMakeFiles\Basic_workflow.dir/objects.a(Rte_Lib.c.obj)
                0x0040eb80                Rte_ActivateRE
                0x0040ebcc                Rte_DecrementWaitingCount
                0x0040ebd2                Rte_GetCurrentTaskIndex
                0x0040ebdc                Rte_MainFunction
                0x0040ebe2                Rte_ReadQueue
                0x0040ec9a                Rte_SetEvent
                0x0040ecaa                SchM_Init
                0x0040ecc2                SchM_Deinit
                0x0040ecda                Rte_WaitWithTimeout
                0x0040ece4                Rte_WriteQueue
                0x0040ee42                Rte_WriteQueue_GetProtection
                0x0040ef0a                Rte_WriteQueue_ReleaseProtection
                0x0040efde                Rte_memcpy
                0x0040f023                Rte_Start
                0x0040f056                Rte_Stop
 .text          0x0040f084      0x304 CMakeFiles\Basic_workflow.dir/objects.a(Can_Device.cpp.obj)
                0x0040f084                Can_ReportDETError(unsigned int, unsigned int, unsigned int)
                0x0040f08a                Can_ReportRuntimeError(unsigned int, unsigned int, unsigned int)
                0x0040f090                Can_RaiseInterrupt()
                0x0040f0a3                Can_RaiseWriteEvent(int, unsigned char, unsigned char, unsigned short, Can_Hwp_Frame*)
                0x0040f0f5                Can_RaiseRxEvent(int, unsigned short, Can_Hwp_Frame*)
                0x0040f127                Can_RaiseTxEvent(int, unsigned short, Can_Hwp_Frame*)
                0x0040f159                Can_RaiseStateEvent(int, Can_EventState, char const*)
                0x0040f183                Can_RaiseCanState(Can_DriverStatus)
                0x0040f19f                Can_RaiseErrorState(int, unsigned int)
                0x0040f1c2                Can_RaiseControllerRxErrorCounterEvent(int, unsigned char)
                0x0040f1ec                Can_RaiseControllerTxErrorCounterEvent(int, unsigned char)
                0x0040f216                Can_RaiseError(int, unsigned int)
                0x0040f239                Can_RaiseCurrentTimeEvent(int, Can_TimeStampType)
                0x0040f263                Can_RaiseEnableEgressTimeStampEvent(int, unsigned short, unsigned char)
                0x0040f29c                Can_RaiseEgressTimeStampEvent(int, unsigned short, unsigned short, Can_TimeStampType)
                0x0040f2e8                Can_RaiseIngressTimeStampEvent(int, unsigned short, Can_TimeStampType)
 .text          0x0040f388      0x21c CMakeFiles\Basic_workflow.dir/objects.a(Can_HwProvider.cpp.obj)
                0x0040f388                Can_GetHwProvider(unsigned int)
                0x0040f3a6                Can_GetHw(void (*)(unsigned int, Can_Hwp_Event, unsigned short, Can_Hwp_Frame*), unsigned int, unsigned int, unsigned int, unsigned int, unsigned int)
                0x0040f473                Can_FramePassesFiltering(unsigned int, Can_Hwp_RxHwObject const*)
                0x0040f4e5                Can_LoadRxObjFromConfig(Can_Hwp_RxHwObject*, Can_Hwp_RxHwObject const*)
 .text          0x0040f5a4     0x32f4 CMakeFiles\Basic_workflow.dir/objects.a(Can_Implementation.cpp.obj)
                0x0040f5a4                Can_DETError
                0x0040f5b7                Can_DETRuntimeError
                0x0040f5e3                Can_Get_Controller_Index
                0x0040f62e                Can_Check_Valid_Baudrate
                0x0040f6bd                Can_Get_Driver_State
                0x0040f6c7                Can_Get_Controller_Index_From_Hth
                0x0040f707                Can_Get_Controller_Index_From_Hrh
                0x0040f747                Can_Rxupcall
                0x0040f84f                Can_TxConfirm
                0x0040f8e6                Can_TxCancel
                0x0040f963                Can_Wakeupcall
                0x0040f9bc                Can_Busoffcall
                0x0040fa2b                Can_Isr_handler
                0x0040fa64                Can_Callback
                0x0040fc25                Can_DiscardPendingInterrupts
                0x0040fd16                SetBaudrateParameters
                0x0040fe69                Can_Init_helper
                0x00410195                Can_InitController_helper
                0x004101f0                Can_DeInit_helper
                0x00410348                Can_GetControllerErrorState_helper
                0x0041040c                Can_GetControllerMode_helper
                0x00410510                Can_GetControllerRxErrorCounter_helper
                0x004105f0                Can_InjectControllerRxErrorCount
                0x004106ab                Can_GetControllerTxErrorCounter_helper
                0x0041078b                Can_InjectControllerTxErrorCount
                0x00410846                Can_GetCurrentTime_helper
                0x00410961                Can_InjectCurrentTime
                0x00410a3c                Can_EnableEgressTimeStamp_helper
                0x00410b22                Can_InjectEnableEgressTimeStamp
                0x00410bb8                Can_GetEgressTimeStamp_helper
                0x00410d29                Can_InjectEgressTimeStamp
                0x00410e47                Can_GetIngressTimeStamp_helper
                0x00410f6b                Can_InjectIngressTimeStamp
                0x0041104c                Can_GetVersionInfo_helper
                0x004110a6                Can_ChangeBaudrate_helper
                0x004111d4                Can_SetControllerMode_helper
                0x004115ca                Can_DisableControllerInterrupts_helper
                0x00411682                Can_EnableControllerInterrupts_helper
                0x0041177a                Can_CheckWakeup_helper
                0x00411825                Can_Write_helper
                0x00411b81                Can_MainFunction_Write_helper
                0x00411db6                Can_MainFunction_Read_helper
                0x00411fd5                Can_MainFunction_BusOff_helper
                0x004120f0                Can_MainFunction_Wakeup_helper
                0x00412204                Can_MainFunction_Mode_helper
                0x0041239f                Can_Force_Wakeup
                0x00412410                Can_injectErrorState
                0x0041254b                Can_injectError
                0x004125bf                Can_Force_Buson
                0x00412634                Can_Force_Busoff
                0x004126dd                Can_Drop_Write_Action_helper
                0x00412717                Can_Drop_Receive_Action_helper
                0x00412751                Can_Inject_Write_helper
                0x0041279b                Can_Inject_Rxaction_helper
                0x0041280d                Can_Enable_Transmit_Processing_helper
 .text          0x00412898       0x9c CMakeFiles\Basic_workflow.dir/objects.a(Mcu_Device.cpp.obj)
                0x00412898                Mcu_ReportDETError(unsigned int, unsigned int, unsigned int)
                0x0041289e                Mcu_Raise_ResetReason_event
                0x004128ba                Mcu_ResetCounter_helper
 .text          0x00412934      0x384 CMakeFiles\Basic_workflow.dir/objects.a(Mcu_Implementation.cpp.obj)
                0x00412934                Mcu_DETError
                0x00412947                Mcu_Init_helper
                0x004129b8                Mcu_InitRamSection_helper
                0x004129fa                Mcu_InitClock_helper
                0x00412a3c                Mcu_DistributePllClock_helper
                0x00412a78                Mcu_GetPllStatus_helper
                0x00412ab8                Mcu_GetResetReason_helper
                0x00412aff                Mcu_GetResetRawValue_helper
                0x00412b46                Mcu_PerformReset_helper
                0x00412ba8                Mcu_SetMode_helper
                0x00412be4                Mcu_GetVersionInfo_helper
                0x00412c44                Mcu_GetRamState_helper
                0x00412c84                Mcu_InjectReset_helper
                0x00412cad                Mcu_GetInternalConfig
 .text          0x00412cb8       0xa0 CMakeFiles\Basic_workflow.dir/objects.a(VirtualCan.cpp.obj)
 .text          0x00412d58      0x1a8 CMakeFiles\Basic_workflow.dir/objects.a(VRTA_SystemClock.cpp.obj)
                0x00412d58                VECU_SystemClock_Init
                0x00412dc5                VECU_SystemClock_Start
                0x00412e0a                VECU_SystemClock_GetValue
 .text          0x00412f00       0xdc CMakeFiles\Basic_workflow.dir/objects.a(Vrta_Cfg.cpp.obj)
                0x00412f00                vrtaActionHandler
                0x00412f79                EnableVrtaFlash
                0x00412f87                EnableVrtaPort
                0x00412f95                EnableVrtaAdc
                0x00412fa3                EnableVrtaPwm
                0x00412fb1                EnableVrtaIcu
                0x00412fbf                EnableVrtaCan
                0x00412fcd                EnableVrtaCanTrcv
 .text          0x00412fdc       0x8c CMakeFiles\Basic_workflow.dir/objects.a(target.cpp.obj)
                0x00412fdc                InitializeDevices()
                0x00412fea                TargetInit
                0x0041300c                TargetEnableInterrupts
                0x0041305a                TargetReadClock
 *fill*         0x00413068        0x8 
 .text          0x00413070       0x50 C:/ETAS/RTA-CAR_12.2.0/RTA-CAR/workspace/Basic_Workflow/build/../src/os\RTAOS.lib(TerminateTask.o)
                0x00413070                Os_TerminateTask
 .text          0x004130c0       0x50 C:/ETAS/RTA-CAR_12.2.0/RTA-CAR/workspace/Basic_Workflow/build/../src/os\RTAOS.lib(Os_SetJmp.o)
                0x004130c0                Os_SetJmp
                0x004130e0                Os_LongJmp
                0x00413100                Os_LongJmpRegsOnly
 .text          0x00413110       0x20 C:/ETAS/RTA-CAR_12.2.0/RTA-CAR/workspace/Basic_Workflow/build/../src/os\RTAOS.lib(GetTaskID.o)
                0x00413110                Os_GetTaskID
 .text          0x00413130       0x60 C:/ETAS/RTA-CAR_12.2.0/RTA-CAR/workspace/Basic_Workflow/build/../src/os\RTAOS.lib(SuspendOSInterrupts.o)
                0x00413130                Os_SuspendOSInterrupts
 .text          0x00413190      0x200 C:/ETAS/RTA-CAR_12.2.0/RTA-CAR/workspace/Basic_Workflow/build/../src/os\RTAOS.lib(Os_Cfg_Counters.o)
                0x00413190                Os_CounterRelativeStart
                0x004131d0                Os_PerformEP
                0x004132f0                Os_IncrementCounter_Rte_TickCounter
 .text          0x00413390       0x50 C:/ETAS/RTA-CAR_12.2.0/RTA-CAR/workspace/Basic_Workflow/build/../src/os\RTAOS.lib(SuspendAllInterrupts.o)
                0x00413390                Os_SuspendAllInterrupts
 .text          0x004133e0      0x190 C:/ETAS/RTA-CAR_12.2.0/RTA-CAR/workspace/Basic_Workflow/build/../src/os\RTAOS.lib(Os_Cfg.o)
                0x004133e0                Os_StartOS_DataInit
                0x004134c0                Os_StartOS_StartAuto
                0x004134e0                Os_ErrorLog
 .text          0x00413570       0x80 C:/ETAS/RTA-CAR_12.2.0/RTA-CAR/workspace/Basic_Workflow/build/../src/os\RTAOS.lib(StopScheduleTable.o)
                0x00413570                Os_StopScheduleTable
 .text          0x004135f0       0x40 C:/ETAS/RTA-CAR_12.2.0/RTA-CAR/workspace/Basic_Workflow/build/../src/os\RTAOS.lib(ResumeOSInterrupts.o)
                0x004135f0                Os_ResumeOSInterrupts
 .text          0x00413630      0xd30 C:/ETAS/RTA-CAR_12.2.0/RTA-CAR/workspace/Basic_Workflow/build/../src/os\RTAOS.lib(vrtaSystemClock.o)
                0x004137e0                vrtaSystemClockSubscriber::vrtaSystemClockSubscriber()
                0x004137e0                vrtaSystemClockSubscriber::vrtaSystemClockSubscriber()
                0x00413800                vrtaSystemClockType::vrtaSystemClockType()
                0x00413800                vrtaSystemClockType::vrtaSystemClockType()
                0x004138c0                vrtaSystemClockType::Scale()
                0x004138d0                vrtaSystemClockType::Scale(unsigned int)
                0x00413920                vrtaSystemClockType::Auto()
                0x00413980                vrtaSystemClockType::IsAuto()
                0x004139a0                vrtaSystemClockType::ManualCanDoLowPower(bool)
                0x004139c0                vrtaSystemClockType::ManualCanDoLowPower()
                0x004139e0                vrtaSystemClockType::ManualFreezesOS(bool)
                0x004139f0                vrtaSystemClockType::Manual(unsigned int)
                0x00413a30                vrtaSystemClockType::ManualTicksRemaining()
                0x00413a40                vrtaSystemClockType::ManualTicksCompleted()
                0x00413ad0                vrtaSystemClockType::IsManual()
                0x00413ae0                vrtaSystemClockType::IdleTick()
                0x00413b40                vrtaSystemClockType::IsIdleTicked()
                0x00413b50                vrtaSystemClockType::Tick()
                0x00413b70                vrtaSystemClockType::Pause()
                0x00413b80                vrtaSystemClockType::IsPaused()
                0x00413b90                vrtaSystemClockType::Resume()
                0x00413ba0                vrtaSystemClockType::MillisecondsCount()
                0x00413bb0                vrtaSystemClockType::TickCount()
                0x00413bc0                vrtaSystemClockType::Unsubscribe(vrtaSystemClockSubscriber*)
                0x00413c50                vrtaSystemClockSubscriber::~vrtaSystemClockSubscriber()
                0x00413c50                vrtaSystemClockSubscriber::~vrtaSystemClockSubscriber()
                0x00413c80                vrtaSystemClockSubscriber::~vrtaSystemClockSubscriber()
                0x00413cc0                vrtaSystemClockType::Subscribe(vrtaSystemClockSubscriber*)
                0x00413db0                vrtaSystemClockType::FavourFixedInterval(unsigned int)
                0x00413e10                vrtaSystemClockType::IsFavourFixedInterval()
                0x00413e20                vrtaCustomTickSource::vrtaCustomTickSource(unsigned int)
                0x00413e20                vrtaCustomTickSource::vrtaCustomTickSource(unsigned int)
                0x00413ee0                vrtaCustomTickSource::TickCount()
                0x00413f90                vrtaThreadWait::vrtaThreadWait(unsigned int)
                0x00413f90                vrtaThreadWait::vrtaThreadWait(unsigned int)
                0x004140a0                vrtaThreadWait::WaitForTicks(unsigned int)
                0x00414260                vrtaSystemClock_Auto
                0x00414270                vrtaSystemClock_Manual
                0x004142b0                vrtaSystemClock_Pause
                0x004142c0                vrtaSystemClock_Resume
                0x004142d0                vrtaSystemClock_Tick
                0x004142f0                vrtaSystemClock_Scale
                0x00414310                vrtaSystemClock_FavourFixedInterval
                0x00414330                vrtaSystemClock_IsFavourFixedInterval
                0x00414340                vrtaSystemClock_HasFrozenOS
                0x00414350                vrtaSystemClock_IsIdleTicked
 .text          0x00414360       0xb0 C:/ETAS/RTA-CAR_12.2.0/RTA-CAR/workspace/Basic_Workflow/build/../src/os\RTAOS.lib(StartScheduleTableRel.o)
                0x00414360                Os_StartScheduleTableRel
 .text          0x00414410       0x40 C:/ETAS/RTA-CAR_12.2.0/RTA-CAR/workspace/Basic_Workflow/build/../src/os\RTAOS.lib(ResumeAllInterrupts.o)
                0x00414410                Os_ResumeAllInterrupts
 .text          0x00414450       0xa0 C:/ETAS/RTA-CAR_12.2.0/RTA-CAR/workspace/Basic_Workflow/build/../src/os\RTAOS.lib(GetResource.o)
                0x00414450                Os_GetResource
 .text          0x004144f0     0x1bc0 C:/ETAS/RTA-CAR_12.2.0/RTA-CAR/workspace/Basic_Workflow/build/../src/os\RTAOS.lib(vrtaSampleDevices.o)
                0x004144f0                vrtaBaseClock::SetPersistentData(unsigned char*, unsigned short)
                0x00414510                vrtaBaseClock::Starting()
                0x00414520                vrtaBaseClock::AsyncGetState(vrtaEvent*)
                0x004145b0                vrtaClock::initialize_clock()
                0x004145d0                vrtaComparable::SetPersistentData(unsigned char*, unsigned short)
                0x004145e0                vrtaCounter::SetPersistentData(unsigned char*, unsigned short)
                0x00414610                vrtaCounter::Stopping()
                0x00414610                vrtaCounter::Starting()
                0x00414620                vrtaCounter::AsyncGetState(vrtaEvent*)
                0x00414680                vrtaCompare::SetPersistentData(unsigned char*, unsigned short)
                0x004146a0                vrtaCompare::OnAction(vrtaAction const*)
                0x004146e0                vrtaCompare::AsyncGetState(vrtaEvent*)
                0x00414760                vrtaSensor::SetPersistentData(unsigned char*, unsigned short)
                0x00414780                vrtaSensor::AsyncGetState(vrtaEvent*)
                0x004147e0                vrtaActuator::SetPersistentData(unsigned char*, unsigned short)
                0x00414800                vrtaActuator::AsyncGetState(vrtaEvent*)
                0x00414860                vrtaIO::GetPersistentDataSize()
                0x00414870                vrtaIO::GetPersistentData()
                0x00414880                vrtaIO::OnAction(vrtaAction const*)
                0x004149a0                vrtaClock::ResetClock()
                0x00414a10                vrtaIO::Stopping()
                0x00414a40                vrtaIO::SetPersistentData(unsigned char*, unsigned short)
                0x00414a80                vrtaIO::AsyncGetState(vrtaEvent*)
                0x00414b30                vrtaBaseClock::Tick()
                0x00414b50                non-virtual thunk to vrtaBaseClock::Tick()
                0x00414b60                vrtaAdaptiveClock::Tick()
                0x00414b90                non-virtual thunk to vrtaAdaptiveClock::Tick()
                0x00414ba0                vrtaClock::Stopping()
                0x00414be0                vrtaIO::Starting()
                0x00414c40                vrtaBaseClock::Start()
                0x00414ce0                vrtaClock::Stop()
                0x00414d90                vrtaBaseClock::vrtaBaseClock(char*, unsigned int, char*, char*, char*, bool)
                0x00414d90                vrtaBaseClock::vrtaBaseClock(char*, unsigned int, char*, char*, char*, bool)
                0x00414e00                vrtaBaseClock::vrtaBaseClock(char*, unsigned int, bool)
                0x00414e00                vrtaBaseClock::vrtaBaseClock(char*, unsigned int, bool)
                0x00414e70                vrtaBaseClock::~vrtaBaseClock()
                0x00414e70                vrtaBaseClock::~vrtaBaseClock()
                0x00414ea0                non-virtual thunk to vrtaBaseClock::~vrtaBaseClock()
                0x00414eb0                vrtaBaseClock::~vrtaBaseClock()
                0x00414f00                non-virtual thunk to vrtaBaseClock::~vrtaBaseClock()
                0x00414f10                vrtaBaseClock::SetInterval(unsigned int)
                0x00414fb0                vrtaBaseClock::SetScale(unsigned int, unsigned int)
                0x00415090                vrtaBaseClock::OnAction(vrtaAction const*)
                0x00415120                vrtaAdaptiveClock::OnAction(vrtaAction const*)
                0x00415160                vrtaClock::vrtaClock(char*, unsigned int, bool)
                0x00415160                vrtaClock::vrtaClock(char*, unsigned int, bool)
                0x004151c0                vrtaClock::vrtaClock(char*, unsigned int, char*, char*, char*, bool)
                0x004151c0                vrtaClock::vrtaClock(char*, unsigned int, char*, char*, char*, bool)
                0x00415230                vrtaAdaptiveClock::vrtaAdaptiveClock(char*, unsigned int, bool)
                0x00415230                vrtaAdaptiveClock::vrtaAdaptiveClock(char*, unsigned int, bool)
                0x004152a0                vrtaAdaptiveClock::InjectTick()
                0x004152f0                vrtaCounter::vrtaCounter(char*, char*, vrtaBaseClock&)
                0x004152f0                vrtaCounter::vrtaCounter(char*, char*, vrtaBaseClock&)
                0x00415360                vrtaCounter::Start()
                0x00415370                vrtaCounter::Stop()
                0x00415380                vrtaCompare::vrtaCompare(char*, vrtaComparable&, unsigned int, unsigned int)
                0x00415380                vrtaCompare::vrtaCompare(char*, vrtaComparable&, unsigned int, unsigned int)
                0x004153f0                vrtaCompare::SetMatch(unsigned int)
                0x00415400                vrtaCompare::SetVector(unsigned int)
                0x00415410                vrtaCompare::NewValue(unsigned int)
                0x004154f0                vrtaComparable::CheckComparators()
                0x00415510                vrtaCounter::SetMin(unsigned int)
                0x00415570                vrtaCounter::SetMax(unsigned int)
                0x004155d0                vrtaCounter::OnAction(vrtaAction const*)
                0x004156d0                vrtaCounter::SetVal(unsigned int)
                0x00415730                vrtaUpCounter::Tick()
                0x004157a0                vrtaDownCounter::Tick()
                0x00415810                vrtaSensor::SetVal(unsigned int)
                0x004158c0                vrtaActuator::SetVal(unsigned int)
                0x00415970                vrtaSensor::vrtaSensor(char*)
                0x00415970                vrtaSensor::vrtaSensor(char*)
                0x004159c0                vrtaSensor::vrtaSensor(char*, char*, char*, char*)
                0x004159c0                vrtaSensor::vrtaSensor(char*, char*, char*, char*)
                0x00415a10                vrtaSensor::SetMax(unsigned int)
                0x00415b30                vrtaSensor::OnAction(vrtaAction const*)
                0x00415b90                vrtaSensorToggleSwitch::vrtaSensorToggleSwitch(char*)
                0x00415b90                vrtaSensorToggleSwitch::vrtaSensorToggleSwitch(char*)
                0x00415be0                vrtaSensorMultiwaySwitch::vrtaSensorMultiwaySwitch(char*, unsigned int)
                0x00415be0                vrtaSensorMultiwaySwitch::vrtaSensorMultiwaySwitch(char*, unsigned int)
                0x00415c30                vrtaActuator::vrtaActuator(char*)
                0x00415c30                vrtaActuator::vrtaActuator(char*)
                0x00415c80                vrtaActuator::vrtaActuator(char*, char*)
                0x00415c80                vrtaActuator::vrtaActuator(char*, char*)
                0x00415cd0                vrtaActuator::SetMax(unsigned int)
                0x00415df0                vrtaActuator::OnAction(vrtaAction const*)
                0x00415e50                vrtaActuatorLight::vrtaActuatorLight(char*)
                0x00415e50                vrtaActuatorLight::vrtaActuatorLight(char*)
                0x00415ea0                vrtaActuatorDimmableLight::vrtaActuatorDimmableLight(char*, unsigned int)
                0x00415ea0                vrtaActuatorDimmableLight::vrtaActuatorDimmableLight(char*, unsigned int)
                0x00415ef0                vrtaActuatorMultiColorLight::vrtaActuatorMultiColorLight(char*, unsigned int)
                0x00415ef0                vrtaActuatorMultiColorLight::vrtaActuatorMultiColorLight(char*, unsigned int)
                0x00415f40                vrtaIO::vrtaIO(char*, unsigned int)
                0x00415f40                vrtaIO::vrtaIO(char*, unsigned int)
                0x00415f90                vrtaIO::vrtaIO(char*, unsigned int, char*, char*, char*)
                0x00415f90                vrtaIO::vrtaIO(char*, unsigned int, char*, char*, char*)
                0x00415fe0                vrtaIO::Init(unsigned int)
                0x00416000                vrtaIO::SetValue(unsigned int, unsigned int)
                0x00416020                vrtaIO::SetValues(unsigned int, unsigned int const*, unsigned int)
                0x00416070                vrtaIO::GetValue(unsigned int) const
                0x004160a0                vrtaIO::GetValues() const
 .text          0x004160b0       0x90 C:/ETAS/RTA-CAR_12.2.0/RTA-CAR/workspace/Basic_Workflow/build/../src/os\RTAOS.lib(StartOS.o)
                0x004160b0                Os_StartOS
 .text          0x00416140       0x80 C:/ETAS/RTA-CAR_12.2.0/RTA-CAR/workspace/Basic_Workflow/build/../src/os\RTAOS.lib(ShutdownOS.o)
                0x00416140                Os_ShutdownOS
 .text          0x004161c0       0x60 C:/ETAS/RTA-CAR_12.2.0/RTA-CAR/workspace/Basic_Workflow/build/../src/os\RTAOS.lib(vrtaPrintf.o)
                0x004161c0                vrtaPrintf
                0x004161f0                printf
 .text          0x00416220       0xb0 C:/ETAS/RTA-CAR_12.2.0/RTA-CAR/workspace/Basic_Workflow/build/../src/os\RTAOS.lib(ActivateTask.o)
                0x00416220                Os_ActivateTask
 .text          0x004162d0       0x80 C:/ETAS/RTA-CAR_12.2.0/RTA-CAR/workspace/Basic_Workflow/build/../src/os\RTAOS.lib(ReleaseResource.o)
                0x004162d0                Os_ReleaseResource
 .text          0x00416350       0x20 C:/ETAS/RTA-CAR_12.2.0/RTA-CAR/workspace/Basic_Workflow/build/../src/os\RTAOS.lib(GetISRID.o)
                0x00416350                Os_GetISRID
 .text          0x00416370      0xa20 C:/ETAS/RTA-CAR_12.2.0/RTA-CAR/workspace/Basic_Workflow/build/../src/os\RTAOS.lib(vrtaLoggerDevice.o)
                0x00416370                Logger::GetPersistentDataSize()
                0x00416380                Logger::GetPersistentData()
                0x00416390                Logger::Starting()
                0x004164c0                Logger::SetPersistentData(unsigned char*, unsigned short)
                0x004164f0                Logger::AsyncGetState(vrtaEvent*)
                0x004165c0                Logger::Logger(char*)
                0x004165c0                Logger::Logger(char*)
                0x00416640                Logger::Logger(char*, Logger&)
                0x00416640                Logger::Logger(char*, Logger&)
                0x004166b0                Logger::setfile(char*)
                0x004167d0                Logger::Logger(char*, char*)
                0x004167d0                Logger::Logger(char*, char*)
                0x00416850                Logger::setduplicate(char*)
                0x00416970                Logger::Logger(char*, char*, char*)
                0x00416970                Logger::Logger(char*, char*, char*)
                0x00416a00                Logger::Stopping()
                0x00416a30                Logger::UpdateText()
                0x00416ba0                Logger::print(char*)
                0x00416c10                Logger::OnAction(vrtaAction const*)
                0x00416c80                Logger::print(char*, unsigned int)
                0x00416d00                Logger::printf(char*, char*)
                0x00416d60                Logger::printf(char*, ...)
 .text          0x00416d90       0xb0 C:/ETAS/RTA-CAR_12.2.0/RTA-CAR/workspace/Basic_Workflow/build/../src/os\RTAOS.lib(vrtaIdleHandling.o)
                0x00416d90                vrtaIdleSubscriber::vrtaIdleSubscriber()
                0x00416d90                vrtaIdleSubscriber::vrtaIdleSubscriber()
                0x00416da0                vrtaIdleSubscriber::Subscribe(vrtaIdleSubscriber*)
                0x00416dc0                vrtaRunIdleHandlers
 .text          0x00416e40      0x100 C:/ETAS/RTA-CAR_12.2.0/RTA-CAR/workspace/Basic_Workflow/build/../src/os\RTAOS.lib(DispatchTask.o)
                0x00416e40                Os_Dispatch
 .text          0x00416f40     0x1150 C:/ETAS/RTA-CAR_12.2.0/RTA-CAR/workspace/Basic_Workflow/build/../src/os\RTAOS.lib(vrtaCore.o)
                0x004178c0                vrtaDevice::WriteToPersistentStorage(unsigned short*, unsigned char**)
                0x00417900                vrtaDevice::ReadFromPersistentStorage(unsigned short*, unsigned char**)
                0x00417970                vrtaReadHPTime
                0x004179e0                vrtaReadHPCycles
                0x00417a10                vrtaLoadVM
                0x00417a30                vrtaUnloadVM()
                0x00417a40                vrtaSendAction
                0x00417a50                vrtaRaiseEvent
                0x00417a60                vrtaGetState
                0x00417a70                vrtaEventRegister
                0x00417a80                vrtaEventUnregister
                0x00417a90                vrtaHookEvent
                0x00417ab0                vrtaHookEventNotifications
                0x00417ac0                vrtaStart
                0x00417ad0                vrtaStartCore
                0x00417b10                vrtaGetCoreICUID
                0x00417b40                vrtaTerminate
                0x00417bb0                vrtaReset
                0x00417bc0                vrtaEnterUninterruptibleSection
                0x00417bd0                vrtaLeaveUninterruptibleSection
                0x00417be0                vrtaEnterGlobalUninterruptibleSection
                0x00417c00                vrtaLeaveGlobalUninterruptibleSection
                0x00417c20                vrtaIsIdle
                0x00417ca0                vrtaLowPowerIdleEnable
                0x00417cb0                vrtaLowPowerIdleEnabled
                0x00417cc0                vrtaLowPowerIdle
                0x00417cf0                vrtaYield
                0x00417d30                vrtaSpawnThread
                0x00417d40                vrtaInitialize
                0x00417d70                vrtaAddCore
                0x00417da0                vrtaGetCoreID
                0x00417dc0                vrtaRegisterVirtualDevice
                0x00417dd0                vrtaIsAppThread
                0x00417de0                vrtaIsAppFinished
                0x00417df0                vrtaIsAppRunning
                0x00417e00                vrtaNoneUserThread
                0x00417e10                vrtaCoreCount
                0x00417e30                vrtaOSGetUserStackBase
                0x00417e40                vrtaOSSetInterruptDeferVar
                0x00417e50                vrtaOSSetIPL
                0x00417e60                vrtaOSGetIPL
                0x00417e70                vrtaOSSetIrqMask
                0x00417e80                vrtaOSClearIrqMask
                0x00417e90                vrtaOSSetIrqPending
                0x00417ea0                vrtaOSClearIrqPending
                0x00417eb0                vrtaOSIsIrqPending
                0x00417ec0                vrtaDevice::vrtaDevice(char*, char*, char*, char*)
                0x00417ec0                vrtaDevice::vrtaDevice(char*, char*, char*, char*)
                0x00417f60                vrtaDevice::AssignCore(unsigned short)
                0x00417f80                vrtaDevice::RaiseEvent(vrtaEvent&)
                0x00417fa0                vrtaDevice::GetState(unsigned short, vrtaEvent&)
                0x00417fc0                vrtaDevice::SendAction(unsigned short, vrtaAction&)
                0x00417fe0                vrtaDevice::RaiseInterrupt(unsigned int)
                0x00418060                vrtaDevice::SpawnThread(void (*)())
                0x00418080                vrtaDevice::PersistThroughReset(unsigned int)
 .text          0x00418090      0x1a0 C:/ETAS/RTA-CAR_12.2.0/RTA-CAR/workspace/Basic_Workflow/build/../src/os\RTAOS.lib(vrtaAppMain.o)
                0x00418090                vrtaFireISR
                0x004180e0                Os_VRTA_IsDisabledInterrupt
                0x00418140                Os_VRTA_ClearPendingInterrupt
                0x00418190                Os_VRTA_EnableInterrupt
                0x004181e0                Os_VRTA_DisableInterrupt
 .text          0x00418230     0x18f0 C:/ETAS/RTA-CAR_12.2.0/RTA-CAR/workspace/Basic_Workflow/build/../src/os\RTAOS.lib(virtualDevice.o)
                0x00418230                VirtualDevice::StringBuilder::Content()
                0x00418260                VirtualDevice::EventHandler(vrtaEvent&)
                0x004182a0                VirtualDevice::GetPersistentDataSize()
                0x004182b0                VirtualDevice::GetPersistentData()
                0x004182c0                VirtualDevice::SetPersistentData(unsigned char*, unsigned short)
                0x004182d0                VirtualDevice::StringBuilder::~StringBuilder()
                0x004182d0                VirtualDevice::StringBuilder::~StringBuilder()
                0x004182f0                VirtualDevice::StringBuilder::~StringBuilder()
                0x00418320                VirtualDevice::EventZero(vrtaEvent const&)
                0x004183a0                VirtualDevice::ActionZero(vrtaAction const&)
                0x00418480                VirtualDevice::SetValue(vrtaEvent&, void*, unsigned int)
                0x004184e0                VECUAutoLock::VECUAutoLock()
                0x004184e0                VECUAutoLock::VECUAutoLock()
                0x004184f0                VECUAutoLock::~VECUAutoLock()
                0x004184f0                VECUAutoLock::~VECUAutoLock()
                0x00418500                VirtualDevice::StringBuilder::StringBuilder(int)
                0x00418500                VirtualDevice::StringBuilder::StringBuilder(int)
                0x00418530                VirtualDevice::StringBuilder::Append(char const*)
                0x004185b0                VirtualDevice::StringBuilder::Length()
                0x004185c0                VirtualDevice::OptList::OptList(int)
                0x004185c0                VirtualDevice::OptList::OptList(int)
                0x00418600                VirtualDevice::OptList::Add(char const*, char const*)
                0x00418670                VirtualDevice::OptList::Clear()
                0x00418690                VirtualDevice::OptList::Replace(int, char const*, char const*)
                0x004187c0                VirtualDevice::Linkable::Linkable()
                0x004187c0                VirtualDevice::Linkable::Linkable()
                0x004187d0                VirtualDevice::ParameterInfo::ParameterInfo(char const*, char const*, char const*)
                0x004187d0                VirtualDevice::ParameterInfo::ParameterInfo(char const*, char const*, char const*)
                0x004187f0                VirtualDevice::List::List()
                0x004187f0                VirtualDevice::List::List()
                0x00418800                VirtualDevice::List::First()
                0x00418810                VirtualDevice::List::Append(VirtualDevice::Linkable*)
                0x00418830                VirtualDevice::List::Replace(int, VirtualDevice::Linkable*)
                0x004188a0                VirtualDevice::ActionInfo::ActionInfo(char const*, char const*, char const*)
                0x004188a0                VirtualDevice::ActionInfo::ActionInfo(char const*, char const*, char const*)
                0x004188d0                VirtualDevice::ActionInfo::AddContent(VirtualDevice::OptList*)
                0x00418a10                VirtualDevice::ActionList::Content()
                0x00418a60                VirtualDevice::ActionInfo::In(char const*, char const*, char const*)
                0x00418ac0                VirtualDevice::EventInfo::EventInfo(char const*, char const*, char const*)
                0x00418ac0                VirtualDevice::EventInfo::EventInfo(char const*, char const*, char const*)
                0x00418b00                VirtualDevice::EventInfo::AddContent(VirtualDevice::OptList*)
                0x00418d00                VirtualDevice::EventList::Content()
                0x00418d50                VirtualDevice::EventInfo::Out(char const*, char const*, char const*)
                0x00418db0                VirtualDevice::EventInfo::In(char const*, char const*, char const*)
                0x00418e10                VirtualDevice::EventList::EventList()
                0x00418e10                VirtualDevice::EventList::EventList()
                0x00418e60                VirtualDevice::EventList::Add(char const*, char const*, char const*)
                0x00418ed0                VirtualDevice::EventList::Replace(int, char const*, char const*, char const*)
                0x00418f40                VirtualDevice::EventList::UpdateInfo(VirtualDevice::OptList&)
                0x004190c0                VirtualDevice::ActionList::ActionList()
                0x004190c0                VirtualDevice::ActionList::ActionList()
                0x00419110                VirtualDevice::ActionList::Add(char const*, char const*, char const*)
                0x00419170                VirtualDevice::ActionList::Replace(int, char const*, char const*, char const*)
                0x004191e0                VirtualDevice::ActionList::UpdateInfo(VirtualDevice::OptList&)
                0x00419350                VirtualDevice::VirtualDevice()
                0x00419350                VirtualDevice::VirtualDevice()
                0x004193f0                VirtualDevice::ActionHandler(vrtaAction const&)
                0x00419450                VirtualDevice::AddActionHandler(unsigned short (VirtualDevice::*)(vrtaAction const&))
                0x004194d0                VirtualDevice::AddEventHandler(unsigned short (VirtualDevice::*)(vrtaEvent const&))
                0x00419550                VirtualDevice::NullAction(vrtaAction const&)
                0x00419560                VirtualDevice::NullEvent(vrtaEvent const&)
                0x00419570                VirtualDevice::RegisterAs(char const*)
                0x00419780                VirtualDevice::~VirtualDevice()
                0x00419780                VirtualDevice::~VirtualDevice()
                0x004197a0                VirtualDevice::~VirtualDevice()
                0x004197e0                VirtualDevice::AssignCore(unsigned short)
                0x00419800                VirtualDevice::Raise(unsigned short (VirtualDevice::*)(vrtaEvent const&), vrtaEvent&)
                0x004198a0                VirtualDevice::Raise(unsigned short (VirtualDevice::*)(vrtaEvent const&))
                0x004198e0                VirtualDevice::Raise(vrtaEvent&)
                0x00419910                VirtualDevice::SendAction(unsigned short, unsigned short, vrtaAction&)
                0x00419940                VirtualDevice::RaiseInterrupt(unsigned int)
                0x004199b0                VirtualDevice::SpawnThread(void (*)())
                0x004199d0                VirtualDevice::PersistThroughReset(unsigned int)
                0x004199e0                VirtualDevice::ReadFromPersistentStorage(unsigned short*, unsigned char**)
                0x00419a00                VirtualDevice::WriteToPersistentStorage(unsigned short*, unsigned char**)
                0x00419a40                VirtualDevice::LockDevice()
                0x00419a50                VirtualDevice::ReleaseDevice()
                0x00419a60                VirtualDevice::DataHasPersisted()
                0x00419a70                VirtualDevice::DataHasPersisted(unsigned int)
                0x00419a80                VirtualDevice::SetID(unsigned short)
                0x00419a90                VirtualDevice::GetID()
                0x00419aa0                VirtualDevice::UnpackData(vrtaAction const&, void*, unsigned int)
                0x00419ae0                VirtualDevice::UnpackData(vrtaEvent const&, void*, unsigned int)
 .text          0x00419b20        0x0 C:/ETAS/RTA-CAR_12.2.0/RTA-CAR/workspace/Basic_Workflow/build/../src/os\RTAOS.lib(Os_vectors.o)
 .text          0x00419b20       0x40 C:/ETAS/RTA-CAR_12.2.0/RTA-CAR/workspace/Basic_Workflow/build/../src/os\RTAOS.lib(Os_Stack.o)
                0x00419b20                Os_GetSP
                0x00419b30                Os_ExtendStack
 .text          0x00419b60       0x70 C:/ETAS/RTA-CAR_12.2.0/RTA-CAR/workspace/Basic_Workflow/build/../src/os\RTAOS.lib(Os_Cfg_KL.o)
                0x00419b60                Os_ActivateTaskKL
 .text          0x00419bd0       0x10 C:/ETAS/RTA-CAR_12.2.0/RTA-CAR/workspace/Basic_Workflow/build/../src/os\RTAOS.lib(Os_fsb.o)
                0x00419bd0                @Os_fsb@4
 .text          0x00419be0       0x20 C:/ETAS/RTA-CAR_12.2.0/RTA-CAR/workspace/Basic_Workflow/build/../src/os\RTAOS.lib(GetStackValue.o)
                0x00419be0                Os_GetStackValue
 .text          0x00419c00      0x290 C:/ETAS/RTA-CAR_12.2.0/RTA-CAR/workspace/Basic_Workflow/build/../src/os\RTAOS.lib(vrtaSystemClockDevice.o)
                0x00419c20                SystemClockIdleHandler::Idle(unsigned int)
                0x00419d40                CSLThread
                0x00419e60                SystemClockTickUpdateNotification(unsigned int)
 .text          0x00419e90       0x10 C:/ETAS/RTA-CAR_12.2.0/RTA-CAR/workspace/Basic_Workflow/build/../src/os\RTAOS.lib(InShutdown.o)
                0x00419e90                Os_Cbk_InShutdown
 .text          0x00419ea0       0x50 C:/ETAS/RTA-CAR_12.2.0/RTA-CAR/workspace/Basic_Workflow/build/../src/os\RTAOS.lib(vrtaOSMonitorDevice.o)
                0x00419ea0                OSIdleHandler::Idle(unsigned int)
                0x00419ee0                EnableOsMonitor
 .text          0x00419ef0       0x60 C:/ETAS/RTA-CAR_12.2.0/RTA-CAR/workspace/Basic_Workflow/build/../src/os\RTAOS.lib(Os_wrapper.o)
                0x00419ef0                Os_ISRWrapper
 .text          0x00419f50        0x8 c:/mingw/bin/../lib/gcc/mingw32/6.3.0/../../..\libwinmm.a(drqcs00150.o)
                0x00419f50                timeSetEvent@20
 .text          0x00419f58        0x8 c:/mingw/bin/../lib/gcc/mingw32/6.3.0/../../..\libwinmm.a(drqcs00149.o)
                0x00419f58                timeKillEvent@4
 .text          0x00419f60        0x8 c:/mingw/bin/../lib/gcc/mingw32/6.3.0/../../..\libwinmm.a(drqcs00144.o)
                0x00419f60                timeBeginPeriod@4
 .text          0x00419f68        0x0 c:/mingw/bin/../lib/gcc/mingw32/6.3.0/../../..\libwinmm.a(drqch.o)
 .text          0x00419f68        0x0 c:/mingw/bin/../lib/gcc/mingw32/6.3.0/../../..\libwinmm.a(drqct.o)
 .text          0x00419f68        0x0 c:/mingw/bin/../lib/gcc/mingw32/6.3.0\libstdc++.a(eh_personality.o)
 .text          0x00419f68        0x0 c:/mingw/bin/../lib/gcc/mingw32/6.3.0\libstdc++.a(new_opv.o)
 .text          0x00419f68        0x0 c:/mingw/bin/../lib/gcc/mingw32/6.3.0\libstdc++.a(vmi_class_type_info.o)
 .text          0x00419f68        0x0 c:/mingw/bin/../lib/gcc/mingw32/6.3.0\libstdc++.a(del_opv.o)
 .text          0x00419f68        0x0 c:/mingw/bin/../lib/gcc/mingw32/6.3.0\libstdc++.a(del_ops.o)
 .text          0x00419f68        0x0 c:/mingw/bin/../lib/gcc/mingw32/6.3.0\libstdc++.a(eh_throw.o)
 .text          0x00419f68        0x0 c:/mingw/bin/../lib/gcc/mingw32/6.3.0\libstdc++.a(class_type_info.o)
 .text          0x00419f68        0x0 c:/mingw/bin/../lib/gcc/mingw32/6.3.0\libstdc++.a(eh_terminate.o)
 .text          0x00419f68        0x0 c:/mingw/bin/../lib/gcc/mingw32/6.3.0\libstdc++.a(eh_call.o)
 .text          0x00419f68        0x0 c:/mingw/bin/../lib/gcc/mingw32/6.3.0\libstdc++.a(eh_alloc.o)
 .text          0x00419f68        0x0 c:/mingw/bin/../lib/gcc/mingw32/6.3.0\libstdc++.a(eh_term_handler.o)
 .text          0x00419f68        0x0 c:/mingw/bin/../lib/gcc/mingw32/6.3.0\libstdc++.a(eh_aux_runtime.o)
 .text          0x00419f68        0x0 c:/mingw/bin/../lib/gcc/mingw32/6.3.0\libstdc++.a(eh_globals.o)
 .text          0x00419f68        0x0 c:/mingw/bin/../lib/gcc/mingw32/6.3.0\libstdc++.a(vterminate.o)
 .text          0x00419f68        0x0 c:/mingw/bin/../lib/gcc/mingw32/6.3.0\libstdc++.a(bad_cast.o)
 .text          0x00419f68        0x0 c:/mingw/bin/../lib/gcc/mingw32/6.3.0\libstdc++.a(si_class_type_info.o)
 .text          0x00419f68        0x0 c:/mingw/bin/../lib/gcc/mingw32/6.3.0\libstdc++.a(tinfo.o)
 .text          0x00419f68        0x0 c:/mingw/bin/../lib/gcc/mingw32/6.3.0\libstdc++.a(del_opvs.o)
 .text          0x00419f68        0x0 c:/mingw/bin/../lib/gcc/mingw32/6.3.0\libstdc++.a(eh_catch.o)
 .text          0x00419f68        0x0 c:/mingw/bin/../lib/gcc/mingw32/6.3.0\libstdc++.a(new_op.o)
 .text          0x00419f68        0x0 c:/mingw/bin/../lib/gcc/mingw32/6.3.0\libstdc++.a(del_op.o)
 .text          0x00419f68        0x0 c:/mingw/bin/../lib/gcc/mingw32/6.3.0\libstdc++.a(pure.o)
 .text          0x00419f68        0x0 c:/mingw/bin/../lib/gcc/mingw32/6.3.0\libstdc++.a(eh_exception.o)
 .text          0x00419f68        0x0 c:/mingw/bin/../lib/gcc/mingw32/6.3.0\libstdc++.a(bad_typeid.o)
 .text          0x00419f68        0x0 c:/mingw/bin/../lib/gcc/mingw32/6.3.0\libstdc++.a(eh_unex_handler.o)
 .text          0x00419f68        0x0 c:/mingw/bin/../lib/gcc/mingw32/6.3.0\libstdc++.a(bad_array_new.o)
 .text          0x00419f68        0x0 c:/mingw/bin/../lib/gcc/mingw32/6.3.0\libstdc++.a(bad_alloc.o)
 *fill*         0x00419f68        0x8 
 .text          0x00419f70     0x94b0 c:/mingw/bin/../lib/gcc/mingw32/6.3.0\libstdc++.a(cp-demangle.o)
                0x004232a0                __cxa_demangle
                0x004233e0                __gcclibcxx_demangle_callback
 .text          0x00423420        0x0 c:/mingw/bin/../lib/gcc/mingw32/6.3.0\libstdc++.a(eh_type.o)
 .text          0x00423420        0x0 c:/mingw/bin/../lib/gcc/mingw32/6.3.0\libstdc++.a(new_handler.o)
 .text          0x00423420        0x8 c:/mingw/bin/../lib/gcc/mingw32/6.3.0/../../..\libkernel32.a(dujcs01223.o)
                0x00423420                WaitForSingleObject@8
 .text          0x00423428        0x8 c:/mingw/bin/../lib/gcc/mingw32/6.3.0/../../..\libkernel32.a(dujcs01166.o)
                0x00423428                TerminateProcess@8
 .text          0x00423430        0x8 c:/mingw/bin/../lib/gcc/mingw32/6.3.0/../../..\libkernel32.a(dujcs01162.o)
                0x00423430                SwitchToThread@0
 .text          0x00423438        0x8 c:/mingw/bin/../lib/gcc/mingw32/6.3.0/../../..\libkernel32.a(dujcs01152.o)
                0x00423438                Sleep@4
 .text          0x00423440        0x8 c:/mingw/bin/../lib/gcc/mingw32/6.3.0/../../..\libkernel32.a(dujcs01140.o)
                0x00423440                SetUnhandledExceptionFilter@4
 .text          0x00423448        0x8 c:/mingw/bin/../lib/gcc/mingw32/6.3.0/../../..\libkernel32.a(dujcs01065.o)
                0x00423448                SetEvent@4
 .text          0x00423450        0x8 c:/mingw/bin/../lib/gcc/mingw32/6.3.0/../../..\libkernel32.a(dujcs00978.o)
                0x00423450                ReleaseSemaphore@12
 .text          0x00423458        0x8 c:/mingw/bin/../lib/gcc/mingw32/6.3.0/../../..\libkernel32.a(dujcs00974.o)
                0x00423458                ReleaseMutex@4
 .text          0x00423460        0x8 c:/mingw/bin/../lib/gcc/mingw32/6.3.0/../../..\libkernel32.a(dujcs00923.o)
                0x00423460                QueryPerformanceFrequency@4
 .text          0x00423468        0x8 c:/mingw/bin/../lib/gcc/mingw32/6.3.0/../../..\libkernel32.a(dujcs00922.o)
                0x00423468                QueryPerformanceCounter@4
 .text          0x00423470        0x8 c:/mingw/bin/../lib/gcc/mingw32/6.3.0/../../..\libkernel32.a(dujcs00844.o)
                0x00423470                MapViewOfFile@20
 .text          0x00423478        0x8 c:/mingw/bin/../lib/gcc/mingw32/6.3.0/../../..\libkernel32.a(dujcs00817.o)
                0x00423478                LoadLibraryA@4
 .text          0x00423480        0x8 c:/mingw/bin/../lib/gcc/mingw32/6.3.0/../../..\libkernel32.a(dujcs00577.o)
                0x00423480                GetProcAddress@8
 .text          0x00423488        0x8 c:/mingw/bin/../lib/gcc/mingw32/6.3.0/../../..\libkernel32.a(dujcs00529.o)
                0x00423488                GetModuleHandleA@4
 .text          0x00423490        0x8 c:/mingw/bin/../lib/gcc/mingw32/6.3.0/../../..\libkernel32.a(dujcs00510.o)
                0x00423490                GetLastError@0
 .text          0x00423498        0x8 c:/mingw/bin/../lib/gcc/mingw32/6.3.0/../../..\libkernel32.a(dujcs00473.o)
                0x00423498                GetEnvironmentVariableA@12
 .text          0x004234a0        0x8 c:/mingw/bin/../lib/gcc/mingw32/6.3.0/../../..\libkernel32.a(dujcs00446.o)
                0x004234a0                GetCurrentProcess@0
 .text          0x004234a8        0x8 c:/mingw/bin/../lib/gcc/mingw32/6.3.0/../../..\libkernel32.a(dujcs00352.o)
                0x004234a8                FreeLibrary@4
 .text          0x004234b0        0x8 c:/mingw/bin/../lib/gcc/mingw32/6.3.0/../../..\libkernel32.a(dujcs00347.o)
                0x004234b0                FormatMessageA@28
 .text          0x004234b8        0x8 c:/mingw/bin/../lib/gcc/mingw32/6.3.0/../../..\libkernel32.a(dujcs00280.o)
                0x004234b8                ExitThread@4
 .text          0x004234c0        0x8 c:/mingw/bin/../lib/gcc/mingw32/6.3.0/../../..\libkernel32.a(dujcs00279.o)
                0x004234c0                ExitProcess@4
 .text          0x004234c8        0x8 c:/mingw/bin/../lib/gcc/mingw32/6.3.0/../../..\libkernel32.a(dujcs00169.o)
                0x004234c8                CreateSemaphoreA@16
 .text          0x004234d0        0x8 c:/mingw/bin/../lib/gcc/mingw32/6.3.0/../../..\libkernel32.a(dujcs00154.o)
                0x004234d0                CreateMutexA@12
 .text          0x004234d8        0x8 c:/mingw/bin/../lib/gcc/mingw32/6.3.0/../../..\libkernel32.a(dujcs00136.o)
                0x004234d8                CreateFileMappingA@24
 .text          0x004234e0        0x8 c:/mingw/bin/../lib/gcc/mingw32/6.3.0/../../..\libkernel32.a(dujcs00129.o)
                0x004234e0                CreateEventA@16
 .text          0x004234e8        0x0 c:/mingw/bin/../lib/gcc/mingw32/6.3.0/../../..\libkernel32.a(dujch.o)
 .text          0x004234e8        0x0 c:/mingw/bin/../lib/gcc/mingw32/6.3.0/../../..\libkernel32.a(dujct.o)
 .text          0x004234e8        0x8 c:/mingw/bin/../lib/gcc/mingw32/6.3.0/../../..\libuser32.a(dtpcs00434.o)
                0x004234e8                MessageBoxA@16
 .text          0x004234f0        0x0 c:/mingw/bin/../lib/gcc/mingw32/6.3.0/../../..\libuser32.a(dtpch.o)
 .text          0x004234f0        0x0 c:/mingw/bin/../lib/gcc/mingw32/6.3.0/../../..\libuser32.a(dtpct.o)
 .text          0x004234f0        0x0 c:/mingw/bin/../lib/gcc/mingw32/6.3.0/../../..\libmingw32.a(CRTglob.o)
 .text          0x004234f0      0x3a0 c:/mingw/bin/../lib/gcc/mingw32/6.3.0/../../..\libmingw32.a(setargv.o)
                0x004234f0                _setargv
 .text          0x00423890        0x0 c:/mingw/bin/../lib/gcc/mingw32/6.3.0/../../..\libmingw32.a(CRTfmode.o)
 .text          0x00423890      0x110 c:/mingw/bin/../lib/gcc/mingw32/6.3.0/../../..\libmingw32.a(cpu_features.o)
                0x00423890                __cpu_features_init
 .text          0x004239a0        0x0 c:/mingw/bin/../lib/gcc/mingw32/6.3.0/../../..\libmingw32.a(CRT_fp10.o)
 .text          0x004239a0        0x0 c:/mingw/bin/../lib/gcc/mingw32/6.3.0/../../..\libmingw32.a(txtmode.o)
 .text          0x004239a0       0xa0 c:/mingw/bin/../lib/gcc/mingw32/6.3.0/../../..\libmingw32.a(gccmain.o)
                0x004239a0                __do_global_dtors
                0x004239d0                __do_global_ctors
                0x00423a20                __main
 .text          0x00423a40        0x0 c:/mingw/bin/../lib/gcc/mingw32/6.3.0/../../..\libmingw32.a(crtst.o)
 .text          0x00423a40       0xf0 c:/mingw/bin/../lib/gcc/mingw32/6.3.0/../../..\libmingw32.a(tlssup.o)
                0x00423a90                __dyn_tls_init@12
                0x00423b20                __tlregdtor
 .text          0x00423b30      0x230 c:/mingw/bin/../lib/gcc/mingw32/6.3.0/../../..\libmingw32.a(tlsthrd.o)
                0x00423b90                ___w64_mingwthr_add_key_dtor
                0x00423c20                ___w64_mingwthr_remove_key_dtor
                0x00423cc0                __mingw_TLScallback
 .text          0x00423d60      0x310 c:/mingw/bin/../lib/gcc/mingw32/6.3.0/../../..\libmingw32.a(pseudo-reloc.o)
                0x00423ea0                _pei386_runtime_relocator
 .text          0x00424070        0x0 c:/mingw/bin/../lib/gcc/mingw32/6.3.0/../../..\libmingw32.a(pseudo-reloc-list.o)
 .text          0x00424070       0x2c c:/mingw/bin/../lib/gcc/mingw32/6.3.0\libgcc.a(_chkstk_ms.o)
                0x00424070                __chkstk_ms
 .text          0x0042409c        0x0 c:/mingw/bin/../lib/gcc/mingw32/6.3.0\libgcc.a(_ctors.o)
 *fill*         0x0042409c        0x4 
 .text          0x004240a0      0x140 c:/mingw/bin/../lib/gcc/mingw32/6.3.0\libgcc.a(_divdi3.o)
                0x004240a0                __divdi3
 .text          0x004241e0      0x420 c:/mingw/bin/../lib/gcc/mingw32/6.3.0\libgcc.a(gthr-win32.o)
                0x004241e0                __gthr_win32_once
                0x00424260                __gthr_win32_key_create
                0x004242a0                __gthr_win32_key_delete
                0x004242d0                __gthr_win32_getspecific
                0x00424300                __gthr_win32_setspecific
                0x00424330                __gthr_win32_mutex_init_function
                0x00424370                __gthr_win32_mutex_destroy
                0x00424390                __gthr_win32_mutex_lock
                0x004243e0                __gthr_win32_mutex_trylock
                0x00424400                __gthr_win32_mutex_unlock
                0x00424450                __gthr_win32_recursive_mutex_init_function
                0x004244a0                __gthr_win32_recursive_mutex_lock
                0x00424530                __gthr_win32_recursive_mutex_trylock
                0x00424580                __gthr_win32_recursive_mutex_unlock
                0x004245e0                __gthr_win32_recursive_mutex_destroy
 .text          0x00424600     0x2530 c:/mingw/bin/../lib/gcc/mingw32/6.3.0\libgcc_eh.a(unwind-dw2.o)
                0x00426510                _Unwind_GetGR
                0x00426550                _Unwind_GetCFA
                0x00426560                _Unwind_SetGR
                0x004265b0                _Unwind_GetIP
                0x004265c0                _Unwind_GetIPInfo
                0x004265e0                _Unwind_SetIP
                0x004265f0                _Unwind_GetLanguageSpecificData
                0x00426600                _Unwind_GetRegionStart
                0x00426610                _Unwind_FindEnclosingFunction
                0x00426650                _Unwind_GetDataRelBase
                0x00426660                _Unwind_GetTextRelBase
                0x00426670                __frame_state_for
                0x00426760                _Unwind_RaiseException
                0x004268b0                _Unwind_ForcedUnwind
                0x00426950                _Unwind_Resume
                0x004269f0                _Unwind_Resume_or_Rethrow
                0x00426aa0                _Unwind_DeleteException
                0x00426ac0                _Unwind_Backtrace
 .text          0x00426b30     0x1810 c:/mingw/bin/../lib/gcc/mingw32/6.3.0\libgcc_eh.a(unwind-dw2-fde.o)
                0x00427c30                __register_frame_info_bases
                0x00427c60                __register_frame_info
                0x00427c90                __register_frame
                0x00427cd0                __register_frame_info_table_bases
                0x00427e30                __register_frame_info_table
                0x00427e60                __register_frame_table
                0x00427ea0                __deregister_frame_info_bases
                0x004280a0                __deregister_frame_info
                0x004280b0                __deregister_frame
                0x004280e0                _Unwind_Find_FDE
 .text          0x00428340        0x8 c:/mingw/bin/../lib/gcc/mingw32/6.3.0/../../..\libmoldname.a(dagwbs00109.o)
                0x00428340                write
 .text          0x00428348        0x0 c:/mingw/bin/../lib/gcc/mingw32/6.3.0/../../..\libmoldname.a(dagwbh.o)
 .text          0x00428348        0x0 c:/mingw/bin/../lib/gcc/mingw32/6.3.0/../../..\libmoldname.a(dagwbt.o)
 *fill*         0x00428348        0x8 
 .text          0x00428350       0x70 c:/mingw/bin/../lib/gcc/mingw32/6.3.0/../../..\libmingwex.a(fesetenv.o)
                0x00428350                fesetenv
 .text          0x004283c0       0x40 c:/mingw/bin/../lib/gcc/mingw32/6.3.0/../../..\libmingwex.a(feholdexcept.o)
                0x004283c0                feholdexcept
 .text          0x00428400     0x1080 c:/mingw/bin/../lib/gcc/mingw32/6.3.0/../../..\libmingwex.a(glob.o)
                0x00429330                __mingw_glob
                0x00429420                __mingw_globfree
 .text          0x00429480      0x400 c:/mingw/bin/../lib/gcc/mingw32/6.3.0/../../..\libmingwex.a(dirname.o)
                0x00429480                __mingw_dirname
 .text          0x00429880      0x4f0 c:/mingw/bin/../lib/gcc/mingw32/6.3.0/../../..\libmingwex.a(dirent.o)
                0x00429a00                __mingw_opendir
                0x00429bc0                __mingw_readdir
                0x00429c10                __mingw_closedir
                0x00429c60                __mingw_rewinddir
                0x00429cc0                __mingw_telldir
                0x00429cf0                __mingw_seekdir
 .text          0x00429d70        0x8 c:/mingw/bin/../lib/gcc/mingw32/6.3.0/../../..\libmsvcrt.a(djpvbs01325.o)
                0x00429d70                wcstombs
 .text          0x00429d78        0x8 c:/mingw/bin/../lib/gcc/mingw32/6.3.0/../../..\libmsvcrt.a(djpvbs01291.o)
                0x00429d78                vsprintf
 .text          0x00429d80        0x8 c:/mingw/bin/../lib/gcc/mingw32/6.3.0/../../..\libmsvcrt.a(djpvbs01284.o)
                0x00429d80                vfprintf
 .text          0x00429d88        0x8 c:/mingw/bin/../lib/gcc/mingw32/6.3.0/../../..\libmsvcrt.a(djpvbs01277.o)
                0x00429d88                tolower
 .text          0x00429d90        0x8 c:/mingw/bin/../lib/gcc/mingw32/6.3.0/../../..\libmsvcrt.a(djpvbs01253.o)
                0x00429d90                strncpy
 .text          0x00429d98        0x8 c:/mingw/bin/../lib/gcc/mingw32/6.3.0/../../..\libmsvcrt.a(djpvbs01249.o)
                0x00429d98                strlen
 .text          0x00429da0        0x8 c:/mingw/bin/../lib/gcc/mingw32/6.3.0/../../..\libmsvcrt.a(djpvbs01243.o)
                0x00429da0                strcpy
 .text          0x00429da8        0x8 c:/mingw/bin/../lib/gcc/mingw32/6.3.0/../../..\libmsvcrt.a(djpvbs01242.o)
                0x00429da8                strcoll
 .text          0x00429db0        0x8 c:/mingw/bin/../lib/gcc/mingw32/6.3.0/../../..\libmsvcrt.a(djpvbs01241.o)
                0x00429db0                strcmp
 .text          0x00429db8        0x8 c:/mingw/bin/../lib/gcc/mingw32/6.3.0/../../..\libmsvcrt.a(djpvbs01238.o)
                0x00429db8                strcat
 .text          0x00429dc0        0x8 c:/mingw/bin/../lib/gcc/mingw32/6.3.0/../../..\libmsvcrt.a(djpvbs01232.o)
                0x00429dc0                sprintf
 .text          0x00429dc8        0x8 c:/mingw/bin/../lib/gcc/mingw32/6.3.0/../../..\libmsvcrt.a(djpvbs01229.o)
                0x00429dc8                signal
 .text          0x00429dd0        0x8 c:/mingw/bin/../lib/gcc/mingw32/6.3.0/../../..\libmsvcrt.a(djpvbs01227.o)
                0x00429dd0                setlocale
 .text          0x00429dd8        0x8 c:/mingw/bin/../lib/gcc/mingw32/6.3.0/../../..\libmsvcrt.a(djpvbs01220.o)
                0x00429dd8                realloc
 .text          0x00429de0        0x8 c:/mingw/bin/../lib/gcc/mingw32/6.3.0/../../..\libmsvcrt.a(djpvbs01203.o)
                0x00429de0                memset
 .text          0x00429de8        0x8 c:/mingw/bin/../lib/gcc/mingw32/6.3.0/../../..\libmsvcrt.a(djpvbs01199.o)
                0x00429de8                memcpy
 .text          0x00429df0        0x8 c:/mingw/bin/../lib/gcc/mingw32/6.3.0/../../..\libmsvcrt.a(djpvbs01198.o)
                0x00429df0                memcmp
 .text          0x00429df8        0x8 c:/mingw/bin/../lib/gcc/mingw32/6.3.0/../../..\libmsvcrt.a(djpvbs01194.o)
                0x00429df8                mbstowcs
 .text          0x00429e00        0x8 c:/mingw/bin/../lib/gcc/mingw32/6.3.0/../../..\libmsvcrt.a(djpvbs01187.o)
                0x00429e00                malloc
 .text          0x00429e08        0x8 c:/mingw/bin/../lib/gcc/mingw32/6.3.0/../../..\libmsvcrt.a(djpvbs01142.o)
                0x00429e08                fwrite
 .text          0x00429e10        0x8 c:/mingw/bin/../lib/gcc/mingw32/6.3.0/../../..\libmsvcrt.a(djpvbs01131.o)
                0x00429e10                free
 .text          0x00429e18        0x8 c:/mingw/bin/../lib/gcc/mingw32/6.3.0/../../..\libmsvcrt.a(djpvbs01127.o)
                0x00429e18                fputs
 .text          0x00429e20        0x8 c:/mingw/bin/../lib/gcc/mingw32/6.3.0/../../..\libmsvcrt.a(djpvbs01126.o)
                0x00429e20                fputc
 .text          0x00429e28        0x8 c:/mingw/bin/../lib/gcc/mingw32/6.3.0/../../..\libmsvcrt.a(djpvbs01122.o)
                0x00429e28                fopen
 .text          0x00429e30        0x8 c:/mingw/bin/../lib/gcc/mingw32/6.3.0/../../..\libmsvcrt.a(djpvbs01114.o)
                0x00429e30                fflush
 .text          0x00429e38        0x8 c:/mingw/bin/../lib/gcc/mingw32/6.3.0/../../..\libmsvcrt.a(djpvbs01111.o)
                0x00429e38                fclose
 .text          0x00429e40        0x8 c:/mingw/bin/../lib/gcc/mingw32/6.3.0/../../..\libmsvcrt.a(djpvbs01108.o)
                0x00429e40                exit
 .text          0x00429e48        0x8 c:/mingw/bin/../lib/gcc/mingw32/6.3.0/../../..\libmsvcrt.a(djpvbs01098.o)
                0x00429e48                calloc
 .text          0x00429e50        0x8 c:/mingw/bin/../lib/gcc/mingw32/6.3.0/../../..\libmsvcrt.a(djpvbs01093.o)
                0x00429e50                atoi
 .text          0x00429e58        0x0 c:/mingw/bin/../lib/gcc/mingw32/6.3.0/../../..\libmsvcrt.a(djpvbs01091.o)
 .text          0x00429e58        0x8 c:/mingw/bin/../lib/gcc/mingw32/6.3.0/../../..\libmsvcrt.a(djpvbs01083.o)
                0x00429e58                abort
 .text          0x00429e60        0x8 c:/mingw/bin/../lib/gcc/mingw32/6.3.0/../../..\libmsvcrt.a(djpvbs00753.o)
                0x00429e60                _setmode
 .text          0x00429e68        0x0 c:/mingw/bin/../lib/gcc/mingw32/6.3.0/../../..\libmsvcrt.a(djpvbs00698.o)
 .text          0x00429e68        0x0 c:/mingw/bin/../lib/gcc/mingw32/6.3.0/../../..\libmsvcrt.a(djpvbs00689.o)
 .text          0x00429e68        0x8 c:/mingw/bin/../lib/gcc/mingw32/6.3.0/../../..\libmsvcrt.a(djpvbs00422.o)
                0x00429e68                _isctype
 .text          0x00429e70        0x0 c:/mingw/bin/../lib/gcc/mingw32/6.3.0/../../..\libmsvcrt.a(djpvbs00417.o)
 .text          0x00429e70        0x8 c:/mingw/bin/../lib/gcc/mingw32/6.3.0/../../..\libmsvcrt.a(djpvbs00350.o)
                0x00429e70                _fullpath
 .text          0x00429e78        0x8 c:/mingw/bin/../lib/gcc/mingw32/6.3.0/../../..\libmsvcrt.a(djpvbs00285.o)
                0x00429e78                _errno
 .text          0x00429e80        0x8 c:/mingw/bin/../lib/gcc/mingw32/6.3.0/../../..\libmsvcrt.a(djpvbs00219.o)
                0x00429e80                _cexit
 .text          0x00429e88        0x8 c:/mingw/bin/../lib/gcc/mingw32/6.3.0/../../..\libmsvcrt.a(djpvbs00133.o)
                0x00429e88                __p__fmode
 .text          0x00429e90        0x8 c:/mingw/bin/../lib/gcc/mingw32/6.3.0/../../..\libmsvcrt.a(djpvbs00131.o)
                0x00429e90                __p__environ
 .text          0x00429e98        0x0 c:/mingw/bin/../lib/gcc/mingw32/6.3.0/../../..\libmsvcrt.a(djpvbs00119.o)
 .text          0x00429e98        0x8 c:/mingw/bin/../lib/gcc/mingw32/6.3.0/../../..\libmsvcrt.a(djpvbs00088.o)
                0x00429e98                __getmainargs
 .text          0x00429ea0        0x0 c:/mingw/bin/../lib/gcc/mingw32/6.3.0/../../..\libmsvcrt.a(djpvbh.o)
 .text          0x00429ea0        0x0 c:/mingw/bin/../lib/gcc/mingw32/6.3.0/../../..\libmsvcrt.a(djpvbt.o)
 .text          0x00429ea0        0x8 c:/mingw/bin/../lib/gcc/mingw32/6.3.0/../../..\libkernel32.a(dujcs01215.o)
                0x00429ea0                VirtualQuery@12
 .text          0x00429ea8        0x8 c:/mingw/bin/../lib/gcc/mingw32/6.3.0/../../..\libkernel32.a(dujcs01213.o)
                0x00429ea8                VirtualProtect@16
 .text          0x00429eb0        0x8 c:/mingw/bin/../lib/gcc/mingw32/6.3.0/../../..\libkernel32.a(dujcs01174.o)
                0x00429eb0                TlsSetValue@8
 .text          0x00429eb8        0x8 c:/mingw/bin/../lib/gcc/mingw32/6.3.0/../../..\libkernel32.a(dujcs01173.o)
                0x00429eb8                TlsGetValue@4
 .text          0x00429ec0        0x8 c:/mingw/bin/../lib/gcc/mingw32/6.3.0/../../..\libkernel32.a(dujcs01172.o)
                0x00429ec0                TlsFree@4
 .text          0x00429ec8        0x8 c:/mingw/bin/../lib/gcc/mingw32/6.3.0/../../..\libkernel32.a(dujcs01171.o)
                0x00429ec8                TlsAlloc@0
 .text          0x00429ed0        0x8 c:/mingw/bin/../lib/gcc/mingw32/6.3.0/../../..\libkernel32.a(dujcs01091.o)
                0x00429ed0                SetLastError@4
 .text          0x00429ed8        0x8 c:/mingw/bin/../lib/gcc/mingw32/6.3.0/../../..\libkernel32.a(dujcs00814.o)
                0x00429ed8                LeaveCriticalSection@4
 .text          0x00429ee0        0x8 c:/mingw/bin/../lib/gcc/mingw32/6.3.0/../../..\libkernel32.a(dujcs00747.o)
                0x00429ee0                InterlockedIncrement@4
 .text          0x00429ee8        0x8 c:/mingw/bin/../lib/gcc/mingw32/6.3.0/../../..\libkernel32.a(dujcs00743.o)
                0x00429ee8                InterlockedDecrement@4
 .text          0x00429ef0        0x8 c:/mingw/bin/../lib/gcc/mingw32/6.3.0/../../..\libkernel32.a(dujcs00734.o)
                0x00429ef0                InitializeCriticalSection@4
 .text          0x00429ef8        0x8 c:/mingw/bin/../lib/gcc/mingw32/6.3.0/../../..\libkernel32.a(dujcs00451.o)
                0x00429ef8                GetCurrentThreadId@0
 .text          0x00429f00        0x8 c:/mingw/bin/../lib/gcc/mingw32/6.3.0/../../..\libkernel32.a(dujcs00388.o)
                0x00429f00                GetCommandLineA@0
 .text          0x00429f08        0x8 c:/mingw/bin/../lib/gcc/mingw32/6.3.0/../../..\libkernel32.a(dujcs00321.o)
                0x00429f08                FindNextFileA@8
 .text          0x00429f10        0x8 c:/mingw/bin/../lib/gcc/mingw32/6.3.0/../../..\libkernel32.a(dujcs00304.o)
                0x00429f10                FindFirstFileA@8
 .text          0x00429f18        0x8 c:/mingw/bin/../lib/gcc/mingw32/6.3.0/../../..\libkernel32.a(dujcs00300.o)
                0x00429f18                FindClose@4
 .text          0x00429f20        0x8 c:/mingw/bin/../lib/gcc/mingw32/6.3.0/../../..\libkernel32.a(dujcs00236.o)
                0x00429f20                EnterCriticalSection@4
 .text          0x00429f28        0x8 c:/mingw/bin/../lib/gcc/mingw32/6.3.0/../../..\libkernel32.a(dujcs00207.o)
                0x00429f28                DeleteCriticalSection@4
 .text          0x00429f30        0x8 c:/mingw/bin/../lib/gcc/mingw32/6.3.0/../../..\libkernel32.a(dujcs00172.o)
                0x00429f30                CreateSemaphoreW@16
 .text          0x00429f38        0x8 c:/mingw/bin/../lib/gcc/mingw32/6.3.0/../../..\libkernel32.a(dujcs00082.o)
                0x00429f38                CloseHandle@4
 .text          0x00429f40       0x30 c:/mingw/bin/../lib/gcc/mingw32/6.3.0/../../..\libmingw32.a(tlsmthread.o)
                0x00429f40                __mingwthr_remove_key_dtor
                0x00429f50                __mingwthr_key_dtor
 .text          0x00429f70        0x8 c:/mingw/bin/../lib/gcc/mingw32/6.3.0/../../..\libmoldname.a(dagwbs00082.o)
                0x00429f70                stricoll
 .text          0x00429f78        0x8 c:/mingw/bin/../lib/gcc/mingw32/6.3.0/../../..\libmoldname.a(dagwbs00080.o)
                0x00429f78                strdup
 .text          0x00429f80        0x0 c:/mingw/bin/../lib/gcc/mingw32/6.3.0/crtend.o
 *(SORT(.text$*))
 .text$_ZGTtNKSt13bad_exception4whatEv
                0x00429f80       0x10 c:/mingw/bin/../lib/gcc/mingw32/6.3.0\libstdc++.a(eh_exception.o)
                0x00429f80                transaction clone for std::bad_exception::what() const
                0x00429f80                std::bad_exception::what() const
 .text$_ZGTtNKSt13bad_exceptionD1Ev
                0x00429f90       0x10 c:/mingw/bin/../lib/gcc/mingw32/6.3.0\libstdc++.a(eh_exception.o)
                0x00429f90                transaction clone for std::bad_exception::~bad_exception() const
 .text$_ZGTtNKSt9exception4whatEv
                0x00429fa0       0x10 c:/mingw/bin/../lib/gcc/mingw32/6.3.0\libstdc++.a(eh_exception.o)
                0x00429fa0                transaction clone for std::exception::what() const
                0x00429fa0                std::exception::what() const
 .text$_ZGTtNKSt9exceptionD1Ev
                0x00429fb0       0x10 c:/mingw/bin/../lib/gcc/mingw32/6.3.0\libstdc++.a(eh_exception.o)
                0x00429fb0                transaction clone for std::exception::~exception() const
 .text$_ZL15eh_globals_dtorPv
                0x00429fc0       0x40 c:/mingw/bin/../lib/gcc/mingw32/6.3.0\libstdc++.a(eh_globals.o)
 .text$_ZL15get_ttype_entryP16lsda_header_infom
                0x0042a000       0x80 c:/mingw/bin/../lib/gcc/mingw32/6.3.0\libstdc++.a(eh_personality.o)
 .text$_ZL16get_adjusted_ptrPKSt9type_infoS1_PPv
                0x0042a080       0x60 c:/mingw/bin/../lib/gcc/mingw32/6.3.0\libstdc++.a(eh_personality.o)
 .text$_ZL17parse_lsda_headerP15_Unwind_ContextPKhP16lsda_header_info
                0x0042a0e0       0xf0 c:/mingw/bin/../lib/gcc/mingw32/6.3.0\libstdc++.a(eh_personality.o)
 .text$_ZL20check_exception_specP16lsda_header_infoPKSt9type_infoPvl
                0x0042a1d0       0x70 c:/mingw/bin/../lib/gcc/mingw32/6.3.0\libstdc++.a(eh_personality.o)
 .text$_ZL21base_of_encoded_valuehP15_Unwind_Context
                0x0042a240       0x70 c:/mingw/bin/../lib/gcc/mingw32/6.3.0\libstdc++.a(eh_personality.o)
 .text$_ZL23__gxx_exception_cleanup19_Unwind_Reason_CodeP17_Unwind_Exception
                0x0042a2b0       0x50 c:/mingw/bin/../lib/gcc/mingw32/6.3.0\libstdc++.a(eh_throw.o)
 .text$_ZL28read_encoded_value_with_basehjPKhPj
                0x0042a300      0x140 c:/mingw/bin/../lib/gcc/mingw32/6.3.0\libstdc++.a(eh_personality.o)
 .text$_ZN10__cxxabiv111__terminateEPFvvE
                0x0042a440       0x20 c:/mingw/bin/../lib/gcc/mingw32/6.3.0\libstdc++.a(eh_terminate.o)
                0x0042a440                __cxxabiv1::__terminate(void (*)())
 .text$_ZN10__cxxabiv112__unexpectedEPFvvE
                0x0042a460       0x10 c:/mingw/bin/../lib/gcc/mingw32/6.3.0\libstdc++.a(eh_terminate.o)
                0x0042a460                __cxxabiv1::__unexpected(void (*)())
 .text$_ZN10__cxxabiv115__forced_unwindD0Ev
                0x0042a470       0x20 c:/mingw/bin/../lib/gcc/mingw32/6.3.0\libstdc++.a(eh_exception.o)
                0x0042a470                __cxxabiv1::__forced_unwind::~__forced_unwind()
 .text$_ZN10__cxxabiv115__forced_unwindD2Ev
                0x0042a490       0x10 c:/mingw/bin/../lib/gcc/mingw32/6.3.0\libstdc++.a(eh_exception.o)
                0x0042a490                __cxxabiv1::__forced_unwind::~__forced_unwind()
                0x0042a490                __cxxabiv1::__forced_unwind::~__forced_unwind()
 .text$_ZN10__cxxabiv117__class_type_infoD0Ev
                0x0042a4a0       0x30 c:/mingw/bin/../lib/gcc/mingw32/6.3.0\libstdc++.a(class_type_info.o)
                0x0042a4a0                __cxxabiv1::__class_type_info::~__class_type_info()
 .text$_ZN10__cxxabiv117__class_type_infoD2Ev
                0x0042a4d0       0x10 c:/mingw/bin/../lib/gcc/mingw32/6.3.0\libstdc++.a(class_type_info.o)
                0x0042a4d0                __cxxabiv1::__class_type_info::~__class_type_info()
                0x0042a4d0                __cxxabiv1::__class_type_info::~__class_type_info()
 .text$_ZN10__cxxabiv119__foreign_exceptionD0Ev
                0x0042a4e0       0x20 c:/mingw/bin/../lib/gcc/mingw32/6.3.0\libstdc++.a(eh_exception.o)
                0x0042a4e0                __cxxabiv1::__foreign_exception::~__foreign_exception()
 .text$_ZN10__cxxabiv119__foreign_exceptionD2Ev
                0x0042a500       0x10 c:/mingw/bin/../lib/gcc/mingw32/6.3.0\libstdc++.a(eh_exception.o)
                0x0042a500                __cxxabiv1::__foreign_exception::~__foreign_exception()
                0x0042a500                __cxxabiv1::__foreign_exception::~__foreign_exception()
 .text$_ZN10__cxxabiv120__si_class_type_infoD0Ev
                0x0042a510       0x30 c:/mingw/bin/../lib/gcc/mingw32/6.3.0\libstdc++.a(si_class_type_info.o)
                0x0042a510                __cxxabiv1::__si_class_type_info::~__si_class_type_info()
 .text$_ZN10__cxxabiv120__si_class_type_infoD2Ev
                0x0042a540       0x10 c:/mingw/bin/../lib/gcc/mingw32/6.3.0\libstdc++.a(si_class_type_info.o)
                0x0042a540                __cxxabiv1::__si_class_type_info::~__si_class_type_info()
                0x0042a540                __cxxabiv1::__si_class_type_info::~__si_class_type_info()
 .text$_ZN10__cxxabiv121__vmi_class_type_infoD0Ev
                0x0042a550       0x30 c:/mingw/bin/../lib/gcc/mingw32/6.3.0\libstdc++.a(vmi_class_type_info.o)
                0x0042a550                __cxxabiv1::__vmi_class_type_info::~__vmi_class_type_info()
 .text$_ZN10__cxxabiv121__vmi_class_type_infoD2Ev
                0x0042a580       0x10 c:/mingw/bin/../lib/gcc/mingw32/6.3.0\libstdc++.a(vmi_class_type_info.o)
                0x0042a580                __cxxabiv1::__vmi_class_type_info::~__vmi_class_type_info()
                0x0042a580                __cxxabiv1::__vmi_class_type_info::~__vmi_class_type_info()
 .text$_ZN10vrtaDevice17GetPersistentDataEv
                0x0042a590       0x10 C:/ETAS/RTA-CAR_12.2.0/RTA-CAR/workspace/Basic_Workflow/build/../src/os\RTAOS.lib(vrtaCore.o)
                0x0042a590                vrtaDevice::GetPersistentData()
 .text$_ZN10vrtaDevice17SetPersistentDataEPht
                0x0042a5a0       0x10 C:/ETAS/RTA-CAR_12.2.0/RTA-CAR/workspace/Basic_Workflow/build/../src/os\RTAOS.lib(vrtaCore.o)
                0x0042a5a0                vrtaDevice::SetPersistentData(unsigned char*, unsigned short)
 .text$_ZN10vrtaDevice21GetPersistentDataSizeEv
                0x0042a5b0       0x10 C:/ETAS/RTA-CAR_12.2.0/RTA-CAR/workspace/Basic_Workflow/build/../src/os\RTAOS.lib(vrtaCore.o)
                0x0042a5b0                vrtaDevice::GetPersistentDataSize()
 .text$_ZN10vrtaSensor17GetPersistentDataEv
                0x0042a5c0       0x40 C:/ETAS/RTA-CAR_12.2.0/RTA-CAR/workspace/Basic_Workflow/build/../src/os\RTAOS.lib(vrtaSampleDevices.o)
                0x0042a5c0                vrtaSensor::GetPersistentData()
 .text$_ZN10vrtaSensor21GetPersistentDataSizeEv
                0x0042a600       0x10 C:/ETAS/RTA-CAR_12.2.0/RTA-CAR/workspace/Basic_Workflow/build/../src/os\RTAOS.lib(vrtaSampleDevices.o)
                0x0042a600                vrtaSensor::GetPersistentDataSize()
 .text$_ZN10vrtaSensor8StartingEv
                0x0042a610       0x10 C:/ETAS/RTA-CAR_12.2.0/RTA-CAR/workspace/Basic_Workflow/build/../src/os\RTAOS.lib(vrtaSampleDevices.o)
                0x0042a610                vrtaSensor::Starting()
 .text$_ZN10vrtaSensor8StoppingEv
                0x0042a620       0x10 C:/ETAS/RTA-CAR_12.2.0/RTA-CAR/workspace/Basic_Workflow/build/../src/os\RTAOS.lib(vrtaSampleDevices.o)
                0x0042a620                vrtaSensor::Stopping()
 .text$_ZN11vrtaCompare17GetPersistentDataEv
                0x0042a630       0x10 C:/ETAS/RTA-CAR_12.2.0/RTA-CAR/workspace/Basic_Workflow/build/../src/os\RTAOS.lib(vrtaSampleDevices.o)
                0x0042a630                vrtaCompare::GetPersistentData()
 .text$_ZN11vrtaCompare21GetPersistentDataSizeEv
                0x0042a640       0x10 C:/ETAS/RTA-CAR_12.2.0/RTA-CAR/workspace/Basic_Workflow/build/../src/os\RTAOS.lib(vrtaSampleDevices.o)
                0x0042a640                vrtaCompare::GetPersistentDataSize()
 .text$_ZN11vrtaCompare8StartingEv
                0x0042a650       0x10 C:/ETAS/RTA-CAR_12.2.0/RTA-CAR/workspace/Basic_Workflow/build/../src/os\RTAOS.lib(vrtaSampleDevices.o)
                0x0042a650                vrtaCompare::Starting()
 .text$_ZN11vrtaCompare8StoppingEv
                0x0042a660       0x10 C:/ETAS/RTA-CAR_12.2.0/RTA-CAR/workspace/Basic_Workflow/build/../src/os\RTAOS.lib(vrtaSampleDevices.o)
                0x0042a660                vrtaCompare::Stopping()
 .text$_ZN11vrtaCounter17GetPersistentDataEv
                0x0042a670       0x40 C:/ETAS/RTA-CAR_12.2.0/RTA-CAR/workspace/Basic_Workflow/build/../src/os\RTAOS.lib(vrtaSampleDevices.o)
                0x0042a670                vrtaCounter::GetPersistentData()
 .text$_ZN11vrtaCounter21GetPersistentDataSizeEv
                0x0042a6b0       0x10 C:/ETAS/RTA-CAR_12.2.0/RTA-CAR/workspace/Basic_Workflow/build/../src/os\RTAOS.lib(vrtaSampleDevices.o)
                0x0042a6b0                vrtaCounter::GetPersistentDataSize()
 .text$_ZN12_GLOBAL__N_14pool4freeEPv.constprop.2
                0x0042a6c0      0x160 c:/mingw/bin/../lib/gcc/mingw32/6.3.0\libstdc++.a(eh_alloc.o)
 .text$_ZN12_GLOBAL__N_14pool8allocateEj.constprop.3
                0x0042a820      0x150 c:/mingw/bin/../lib/gcc/mingw32/6.3.0\libstdc++.a(eh_alloc.o)
 .text$_ZN12vrtaActuator17GetPersistentDataEv
                0x0042a970       0x40 C:/ETAS/RTA-CAR_12.2.0/RTA-CAR/workspace/Basic_Workflow/build/../src/os\RTAOS.lib(vrtaSampleDevices.o)
                0x0042a970                vrtaActuator::GetPersistentData()
 .text$_ZN12vrtaActuator21GetPersistentDataSizeEv
                0x0042a9b0       0x10 C:/ETAS/RTA-CAR_12.2.0/RTA-CAR/workspace/Basic_Workflow/build/../src/os\RTAOS.lib(vrtaSampleDevices.o)
                0x0042a9b0                vrtaActuator::GetPersistentDataSize()
 .text$_ZN12vrtaActuator8StartingEv
                0x0042a9c0       0x10 C:/ETAS/RTA-CAR_12.2.0/RTA-CAR/workspace/Basic_Workflow/build/../src/os\RTAOS.lib(vrtaSampleDevices.o)
                0x0042a9c0                vrtaActuator::Starting()
 .text$_ZN12vrtaActuator8StoppingEv
                0x0042a9d0       0x10 C:/ETAS/RTA-CAR_12.2.0/RTA-CAR/workspace/Basic_Workflow/build/../src/os\RTAOS.lib(vrtaSampleDevices.o)
                0x0042a9d0                vrtaActuator::Stopping()
 .text$_ZN13Can_VirtualHw11ForceBusOffEv
                0x0042a9e0       0x24 CMakeFiles\Basic_workflow.dir/objects.a(VirtualCan.cpp.obj)
                0x0042a9e0                Can_VirtualHw::ForceBusOff()
 .text$_ZN13Can_VirtualHw11ForceWakeupEv
                0x0042aa04       0x24 CMakeFiles\Basic_workflow.dir/objects.a(VirtualCan.cpp.obj)
                0x0042aa04                Can_VirtualHw::ForceWakeup()
 .text$_ZN13Can_VirtualHw11SetBaudrateEPK22Can_Hwp_BaudrateConfig
                0x0042aa28       0x2c CMakeFiles\Basic_workflow.dir/objects.a(VirtualCan.cpp.obj)
                0x0042aa28                Can_VirtualHw::SetBaudrate(Can_Hwp_BaudrateConfig const*)
 .text$_ZN13Can_VirtualHw12CausedWakeupEv
                0x0042aa54       0x24 CMakeFiles\Basic_workflow.dir/objects.a(VirtualCan.cpp.obj)
                0x0042aa54                Can_VirtualHw::CausedWakeup()
 .text$_ZN13Can_VirtualHw15ReadCurrentTimeEP17Can_TimeStampTypeh
                0x0042aa78       0x3c CMakeFiles\Basic_workflow.dir/objects.a(VirtualCan.cpp.obj)
                0x0042aa78                Can_VirtualHw::ReadCurrentTime(Can_TimeStampType*, unsigned char)
 .text$_ZN13Can_VirtualHw17InjectCurrentTimeE17Can_TimeStampType
                0x0042aab4       0x34 CMakeFiles\Basic_workflow.dir/objects.a(VirtualCan.cpp.obj)
                0x0042aab4                Can_VirtualHw::InjectCurrentTime(Can_TimeStampType)
 .text$_ZN13Can_VirtualHw18GetEgressTimeStampEttP17Can_TimeStampType
                0x0042aae8       0x50 CMakeFiles\Basic_workflow.dir/objects.a(VirtualCan.cpp.obj)
                0x0042aae8                Can_VirtualHw::GetEgressTimeStamp(unsigned short, unsigned short, Can_TimeStampType*)
 .text$_ZN13Can_VirtualHw19GetIngressTimeStampEtP17Can_TimeStampType
                0x0042ab38       0x3c CMakeFiles\Basic_workflow.dir/objects.a(VirtualCan.cpp.obj)
                0x0042ab38                Can_VirtualHw::GetIngressTimeStamp(unsigned short, Can_TimeStampType*)
 .text$_ZN13Can_VirtualHw21EnableEgressTimeStampEt
                0x0042ab74       0x38 CMakeFiles\Basic_workflow.dir/objects.a(VirtualCan.cpp.obj)
                0x0042ab74                Can_VirtualHw::EnableEgressTimeStamp(unsigned short)
 .text$_ZN13Can_VirtualHw21InjectEgressTimeStampEtt17Can_TimeStampType
                0x0042abac       0x5c CMakeFiles\Basic_workflow.dir/objects.a(VirtualCan.cpp.obj)
                0x0042abac                Can_VirtualHw::InjectEgressTimeStamp(unsigned short, unsigned short, Can_TimeStampType)
 .text$_ZN13Can_VirtualHw22InjectIngressTimeStampEt17Can_TimeStampType
                0x0042ac08       0x48 CMakeFiles\Basic_workflow.dir/objects.a(VirtualCan.cpp.obj)
                0x0042ac08                Can_VirtualHw::InjectIngressTimeStamp(unsigned short, Can_TimeStampType)
 .text$_ZN13Can_VirtualHw24EnableTransmitProcessingEb
                0x0042ac50       0x34 CMakeFiles\Basic_workflow.dir/objects.a(VirtualCan.cpp.obj)
                0x0042ac50                Can_VirtualHw::EnableTransmitProcessing(bool)
 .text$_ZN13Can_VirtualHw27GetControllerRxErrorCounterEPh
                0x0042ac84       0x30 CMakeFiles\Basic_workflow.dir/objects.a(VirtualCan.cpp.obj)
                0x0042ac84                Can_VirtualHw::GetControllerRxErrorCounter(unsigned char*)
 .text$_ZN13Can_VirtualHw27GetControllerTxErrorCounterEPh
                0x0042acb4       0x30 CMakeFiles\Basic_workflow.dir/objects.a(VirtualCan.cpp.obj)
                0x0042acb4                Can_VirtualHw::GetControllerTxErrorCounter(unsigned char*)
 .text$_ZN13Can_VirtualHw27InjectEnableEgressTimeStampEth
                0x0042ace4       0x44 CMakeFiles\Basic_workflow.dir/objects.a(VirtualCan.cpp.obj)
                0x0042ace4                Can_VirtualHw::InjectEnableEgressTimeStamp(unsigned short, unsigned char)
 .text$_ZN13Can_VirtualHw28InjectControllerRxErrorCountEh
                0x0042ad28       0x38 CMakeFiles\Basic_workflow.dir/objects.a(VirtualCan.cpp.obj)
                0x0042ad28                Can_VirtualHw::InjectControllerRxErrorCount(unsigned char)
 .text$_ZN13Can_VirtualHw28InjectControllerTxErrorCountEh
                0x0042ad60       0x38 CMakeFiles\Basic_workflow.dir/objects.a(VirtualCan.cpp.obj)
                0x0042ad60                Can_VirtualHw::InjectControllerTxErrorCount(unsigned char)
 .text$_ZN13Can_VirtualHw4StopEv
                0x0042ad98       0x24 CMakeFiles\Basic_workflow.dir/objects.a(VirtualCan.cpp.obj)
                0x0042ad98                Can_VirtualHw::Stop()
 .text$_ZN13Can_VirtualHw5SleepEv
                0x0042adbc       0x24 CMakeFiles\Basic_workflow.dir/objects.a(VirtualCan.cpp.obj)
                0x0042adbc                Can_VirtualHw::Sleep()
 .text$_ZN13Can_VirtualHw5StartEv
                0x0042ade0       0x24 CMakeFiles\Basic_workflow.dir/objects.a(VirtualCan.cpp.obj)
                0x0042ade0                Can_VirtualHw::Start()
 .text$_ZN13Can_VirtualHw5StateEv
                0x0042ae04       0x24 CMakeFiles\Basic_workflow.dir/objects.a(VirtualCan.cpp.obj)
                0x0042ae04                Can_VirtualHw::State()
 .text$_ZN13Can_VirtualHw5WriteEtP13Can_Hwp_Frame
                0x0042ae28       0x3c CMakeFiles\Basic_workflow.dir/objects.a(VirtualCan.cpp.obj)
                0x0042ae28                Can_VirtualHw::Write(unsigned short, Can_Hwp_Frame*)
 .text$_ZN13Can_VirtualHw6DeInitEv
                0x0042ae64       0x18 CMakeFiles\Basic_workflow.dir/objects.a(VirtualCan.cpp.obj)
                0x0042ae64                Can_VirtualHw::DeInit()
 .text$_ZN13Can_VirtualHw9ConfigureEPK21Can_Hwp_ChannelConfig
                0x0042ae7c       0x2c CMakeFiles\Basic_workflow.dir/objects.a(VirtualCan.cpp.obj)
                0x0042ae7c                Can_VirtualHw::Configure(Can_Hwp_ChannelConfig const*)
 .text$_ZN13Can_VirtualHwC1EPFvj13Can_Hwp_EventtP13Can_Hwp_FrameEjj
                0x0042aea8       0x94 CMakeFiles\Basic_workflow.dir/objects.a(VirtualCan.cpp.obj)
                0x0042aea8                Can_VirtualHw::Can_VirtualHw(void (*)(unsigned int, Can_Hwp_Event, unsigned short, Can_Hwp_Frame*), unsigned int, unsigned int)
 .text$_ZN13Can_VirtualHwD0Ev
                0x0042af3c       0x28 CMakeFiles\Basic_workflow.dir/objects.a(VirtualCan.cpp.obj)
                0x0042af3c                Can_VirtualHw::~Can_VirtualHw()
 .text$_ZN13Can_VirtualHwD1Ev
                0x0042af64       0x20 CMakeFiles\Basic_workflow.dir/objects.a(VirtualCan.cpp.obj)
                0x0042af64                Can_VirtualHw::~Can_VirtualHw()
 *fill*         0x0042af84        0xc 
 .text$_ZN13VirtualDevice10ActionListD0Ev
                0x0042af90       0x30 C:/ETAS/RTA-CAR_12.2.0/RTA-CAR/workspace/Basic_Workflow/build/../src/os\RTAOS.lib(virtualDevice.o)
                0x0042af90                VirtualDevice::ActionList::~ActionList()
 .text$_ZN13VirtualDevice10ActionListD1Ev
                0x0042afc0       0x20 C:/ETAS/RTA-CAR_12.2.0/RTA-CAR/workspace/Basic_Workflow/build/../src/os\RTAOS.lib(virtualDevice.o)
                0x0042afc0                VirtualDevice::ActionList::~ActionList()
 .text$_ZN13VirtualDevice10UnpackDataI18Can_ErrorStateTypeEEvRK10vrtaActionRT_
                0x0042afe0       0x30 CMakeFiles\Basic_workflow.dir/objects.a(Can_Device.cpp.obj)
                0x0042afe0                void VirtualDevice::UnpackData<Can_ErrorStateType>(vrtaAction const&, Can_ErrorStateType&)
 .text$_ZN13VirtualDevice10UnpackDataIN19CanControllerDevice12RxActionTypeEEEvRK10vrtaActionRT_
                0x0042b010       0x30 CMakeFiles\Basic_workflow.dir/objects.a(Can_Device.cpp.obj)
                0x0042b010                void VirtualDevice::UnpackData<CanControllerDevice::RxActionType>(vrtaAction const&, CanControllerDevice::RxActionType&)
 .text$_ZN13VirtualDevice10UnpackDataIN19CanControllerDevice15WriteActionTypeEEEvRK10vrtaActionRT_
                0x0042b040       0x30 CMakeFiles\Basic_workflow.dir/objects.a(Can_Device.cpp.obj)
                0x0042b040                void VirtualDevice::UnpackData<CanControllerDevice::WriteActionType>(vrtaAction const&, CanControllerDevice::WriteActionType&)
 .text$_ZN13VirtualDevice10UnpackDataIN19CanControllerDevice27InjectCurrentTimeActionTypeEEEvRK10vrtaActionRT_
                0x0042b070       0x30 CMakeFiles\Basic_workflow.dir/objects.a(Can_Device.cpp.obj)
                0x0042b070                void VirtualDevice::UnpackData<CanControllerDevice::InjectCurrentTimeActionType>(vrtaAction const&, CanControllerDevice::InjectCurrentTimeActionType&)
 .text$_ZN13VirtualDevice10UnpackDataIN19CanControllerDevice31InjectEgressTimeStampActionTypeEEEvRK10vrtaActionRT_
                0x0042b0a0       0x30 CMakeFiles\Basic_workflow.dir/objects.a(Can_Device.cpp.obj)
                0x0042b0a0                void VirtualDevice::UnpackData<CanControllerDevice::InjectEgressTimeStampActionType>(vrtaAction const&, CanControllerDevice::InjectEgressTimeStampActionType&)
 .text$_ZN13VirtualDevice10UnpackDataIN19CanControllerDevice32InjectIngressTimeStampActionTypeEEEvRK10vrtaActionRT_
                0x0042b0d0       0x30 CMakeFiles\Basic_workflow.dir/objects.a(Can_Device.cpp.obj)
                0x0042b0d0                void VirtualDevice::UnpackData<CanControllerDevice::InjectIngressTimeStampActionType>(vrtaAction const&, CanControllerDevice::InjectIngressTimeStampActionType&)
 .text$_ZN13VirtualDevice10UnpackDataIN19CanControllerDevice37InjectEnableEgressTimeStampActionTypeEEEvRK10vrtaActionRT_
                0x0042b100       0x30 CMakeFiles\Basic_workflow.dir/objects.a(Can_Device.cpp.obj)
                0x0042b100                void VirtualDevice::UnpackData<CanControllerDevice::InjectEnableEgressTimeStampActionType>(vrtaAction const&, CanControllerDevice::InjectEnableEgressTimeStampActionType&)
 .text$_ZN13VirtualDevice10UnpackDataIhEEvRK10vrtaActionRT_
                0x0042b130       0x30 CMakeFiles\Basic_workflow.dir/objects.a(Can_Device.cpp.obj)
                0x0042b130                void VirtualDevice::UnpackData<unsigned char>(vrtaAction const&, unsigned char&)
 .text$_ZN13VirtualDevice10UnpackDataIjEEvRK10vrtaActionRT_
                0x0042b160       0x30 CMakeFiles\Basic_workflow.dir/objects.a(Can_Device.cpp.obj)
                0x0042b160                void VirtualDevice::UnpackData<unsigned int>(vrtaAction const&, unsigned int&)
 .text$_ZN13VirtualDevice16UnsignedValueForERK10vrtaAction
                0x0042b190       0x14 CMakeFiles\Basic_workflow.dir/objects.a(Mcu_Device.cpp.obj)
                0x0042b190                VirtualDevice::UnsignedValueFor(vrtaAction const&)
 .text$_ZN13VirtualDevice6NoDataER10vrtaAction
                0x0042b1a4       0x24 CMakeFiles\Basic_workflow.dir/objects.a(Mcu_Device.cpp.obj)
                0x0042b1a4                VirtualDevice::NoData(vrtaAction&)
 *fill*         0x0042b1c8        0x8 
 .text$_ZN13VirtualDevice7OptListD0Ev
                0x0042b1d0       0x30 C:/ETAS/RTA-CAR_12.2.0/RTA-CAR/workspace/Basic_Workflow/build/../src/os\RTAOS.lib(virtualDevice.o)
                0x0042b1d0                VirtualDevice::OptList::~OptList()
 .text$_ZN13VirtualDevice7OptListD1Ev
                0x0042b200       0x20 C:/ETAS/RTA-CAR_12.2.0/RTA-CAR/workspace/Basic_Workflow/build/../src/os\RTAOS.lib(virtualDevice.o)
                0x0042b200                VirtualDevice::OptList::~OptList()
 .text$_ZN13VirtualDevice8PackDataIN19CanControllerDevice11RxEventTypeEEEvR9vrtaEventRT_i
                0x0042b220       0x60 CMakeFiles\Basic_workflow.dir/objects.a(Can_Device.cpp.obj)
                0x0042b220                void VirtualDevice::PackData<CanControllerDevice::RxEventType>(vrtaEvent&, CanControllerDevice::RxEventType&, int)
 .text$_ZN13VirtualDevice8PackDataIN19CanControllerDevice11TxEventTypeEEEvR9vrtaEventRT_i
                0x0042b280       0x60 CMakeFiles\Basic_workflow.dir/objects.a(Can_Device.cpp.obj)
                0x0042b280                void VirtualDevice::PackData<CanControllerDevice::TxEventType>(vrtaEvent&, CanControllerDevice::TxEventType&, int)
 .text$_ZN13VirtualDevice8PackDataIN19CanControllerDevice14WriteEventTypeEEEvR9vrtaEventRT_i
                0x0042b2e0       0x60 CMakeFiles\Basic_workflow.dir/objects.a(Can_Device.cpp.obj)
                0x0042b2e0                void VirtualDevice::PackData<CanControllerDevice::WriteEventType>(vrtaEvent&, CanControllerDevice::WriteEventType&, int)
 .text$_ZN13VirtualDevice8PackDataIN19CanControllerDevice15CurrentTimeTypeEEEvR9vrtaEventRT_i
                0x0042b340       0x60 CMakeFiles\Basic_workflow.dir/objects.a(Can_Device.cpp.obj)
                0x0042b340                void VirtualDevice::PackData<CanControllerDevice::CurrentTimeType>(vrtaEvent&, CanControllerDevice::CurrentTimeType&, int)
 .text$_ZN13VirtualDevice8PackDataIN19CanControllerDevice15StatusEventTypeEEEvR9vrtaEventRT_i
                0x0042b3a0       0x60 CMakeFiles\Basic_workflow.dir/objects.a(Can_Device.cpp.obj)
                0x0042b3a0                void VirtualDevice::PackData<CanControllerDevice::StatusEventType>(vrtaEvent&, CanControllerDevice::StatusEventType&, int)
 .text$_ZN13VirtualDevice8PackDataIN19CanControllerDevice19EgressTimeStampTypeEEEvR9vrtaEventRT_i
                0x0042b400       0x60 CMakeFiles\Basic_workflow.dir/objects.a(Can_Device.cpp.obj)
                0x0042b400                void VirtualDevice::PackData<CanControllerDevice::EgressTimeStampType>(vrtaEvent&, CanControllerDevice::EgressTimeStampType&, int)
 .text$_ZN13VirtualDevice8PackDataIN19CanControllerDevice20IngressTimeStampTypeEEEvR9vrtaEventRT_i
                0x0042b460       0x60 CMakeFiles\Basic_workflow.dir/objects.a(Can_Device.cpp.obj)
                0x0042b460                void VirtualDevice::PackData<CanControllerDevice::IngressTimeStampType>(vrtaEvent&, CanControllerDevice::IngressTimeStampType&, int)
 .text$_ZN13VirtualDevice8PackDataIN19CanControllerDevice25EnableEgressTimeStampTypeEEEvR9vrtaEventRT_i
                0x0042b4c0       0x60 CMakeFiles\Basic_workflow.dir/objects.a(Can_Device.cpp.obj)
                0x0042b4c0                void VirtualDevice::PackData<CanControllerDevice::EnableEgressTimeStampType>(vrtaEvent&, CanControllerDevice::EnableEgressTimeStampType&, int)
 .text$_ZN13VirtualDevice8PackDataIjEEvR9vrtaEventRT_i
                0x0042b520       0x60 CMakeFiles\Basic_workflow.dir/objects.a(Can_Device.cpp.obj)
                0x0042b520                void VirtualDevice::PackData<unsigned int>(vrtaEvent&, unsigned int&, int)
 .text$_ZN13VirtualDevice8SetValueIhEEvR9vrtaEventT_
                0x0042b580       0x64 CMakeFiles\Basic_workflow.dir/objects.a(Can_Device.cpp.obj)
                0x0042b580                void VirtualDevice::SetValue<unsigned char>(vrtaEvent&, unsigned char)
 .text$_ZN13VirtualDevice8SetValueIjEEvR9vrtaEventT_
                0x0042b5e4       0x5c CMakeFiles\Basic_workflow.dir/objects.a(Mcu_Device.cpp.obj)
                0x0042b5e4                void VirtualDevice::SetValue<unsigned int>(vrtaEvent&, unsigned int)
 .text$_ZN13VirtualDevice8SetValueItEEvR9vrtaEventT_
                0x0042b640       0x64 CMakeFiles\Basic_workflow.dir/objects.a(Can_Device.cpp.obj)
                0x0042b640                void VirtualDevice::SetValue<unsigned short>(vrtaEvent&, unsigned short)
 .text$_ZN13VirtualDevice8StartingEv
                0x0042b6a4        0xc CMakeFiles\Basic_workflow.dir/objects.a(Can_Device.cpp.obj)
                0x0042b6a4                VirtualDevice::Starting()
 .text$_ZN13VirtualDevice8StoppingEv
                0x0042b6b0        0xc CMakeFiles\Basic_workflow.dir/objects.a(Can_Device.cpp.obj)
                0x0042b6b0                VirtualDevice::Stopping()
 *fill*         0x0042b6bc        0x4 
 .text$_ZN13VirtualDevice9EventListD0Ev
                0x0042b6c0       0x30 C:/ETAS/RTA-CAR_12.2.0/RTA-CAR/workspace/Basic_Workflow/build/../src/os\RTAOS.lib(virtualDevice.o)
                0x0042b6c0                VirtualDevice::EventList::~EventList()
 .text$_ZN13VirtualDevice9EventListD1Ev
                0x0042b6f0       0x20 C:/ETAS/RTA-CAR_12.2.0/RTA-CAR/workspace/Basic_Workflow/build/../src/os\RTAOS.lib(virtualDevice.o)
                0x0042b6f0                VirtualDevice::EventList::~EventList()
 .text$_ZN13vrtaBaseClock17GetPersistentDataEv
                0x0042b710       0x20 C:/ETAS/RTA-CAR_12.2.0/RTA-CAR/workspace/Basic_Workflow/build/../src/os\RTAOS.lib(vrtaSampleDevices.o)
                0x0042b710                vrtaBaseClock::GetPersistentData()
 .text$_ZN13vrtaBaseClock21GetPersistentDataSizeEv
                0x0042b730       0x10 C:/ETAS/RTA-CAR_12.2.0/RTA-CAR/workspace/Basic_Workflow/build/../src/os\RTAOS.lib(vrtaSampleDevices.o)
                0x0042b730                vrtaBaseClock::GetPersistentDataSize()
 .text$_ZN13vrtaBaseClock4StopEv
                0x0042b740       0x10 C:/ETAS/RTA-CAR_12.2.0/RTA-CAR/workspace/Basic_Workflow/build/../src/os\RTAOS.lib(vrtaSampleDevices.o)
                0x0042b740                vrtaBaseClock::Stop()
 .text$_ZN13vrtaBaseClock8StoppingEv
                0x0042b750       0x10 C:/ETAS/RTA-CAR_12.2.0/RTA-CAR/workspace/Basic_Workflow/build/../src/os\RTAOS.lib(vrtaSampleDevices.o)
                0x0042b750                vrtaBaseClock::Stopping()
 .text$_ZN13vrtaUpCounterC1EPcR13vrtaBaseClock
                0x0042b760       0x3c CMakeFiles\Basic_workflow.dir/objects.a(VRTA_SystemClock.cpp.obj)
                0x0042b760                vrtaUpCounter::vrtaUpCounter(char*, vrtaBaseClock&)
 .text$_ZN14Can_HwProviderD2Ev
                0x0042b79c       0x20 CMakeFiles\Basic_workflow.dir/objects.a(VirtualCan.cpp.obj)
                0x0042b79c                Can_HwProvider::~Can_HwProvider()
 *fill*         0x0042b7bc        0x4 
 .text$_ZN14vrtaComparable17GetPersistentDataEv
                0x0042b7c0       0x10 C:/ETAS/RTA-CAR_12.2.0/RTA-CAR/workspace/Basic_Workflow/build/../src/os\RTAOS.lib(vrtaSampleDevices.o)
                0x0042b7c0                vrtaComparable::GetPersistentData()
 .text$_ZN14vrtaComparable21GetPersistentDataSizeEv
                0x0042b7d0       0x10 C:/ETAS/RTA-CAR_12.2.0/RTA-CAR/workspace/Basic_Workflow/build/../src/os\RTAOS.lib(vrtaSampleDevices.o)
                0x0042b7d0                vrtaComparable::GetPersistentDataSize()
 .text$_ZN14vrtaComparable5ValueEv
                0x0042b7e0       0x14 CMakeFiles\Basic_workflow.dir/objects.a(VRTA_SystemClock.cpp.obj)
                0x0042b7e0                vrtaComparable::Value()
 *fill*         0x0042b7f4        0xc 
 .text$_ZN14vrtaComparable6SetValEj
                0x0042b800       0x10 C:/ETAS/RTA-CAR_12.2.0/RTA-CAR/workspace/Basic_Workflow/build/../src/os\RTAOS.lib(vrtaSampleDevices.o)
                0x0042b800                vrtaComparable::SetVal(unsigned int)
 .text$_ZN15MCAL_HwProviderD2Ev
                0x0042b810       0x18 CMakeFiles\Basic_workflow.dir/objects.a(VirtualCan.cpp.obj)
                0x0042b810                MCAL_HwProvider::~MCAL_HwProvider()
 *fill*         0x0042b828        0x8 
 .text$_ZN17SystemClockDevice10AutoActionERK10vrtaAction
                0x0042b830       0x40 C:/ETAS/RTA-CAR_12.2.0/RTA-CAR/workspace/Basic_Workflow/build/../src/os\RTAOS.lib(vrtaSystemClockDevice.o)
                0x0042b830                SystemClockDevice::AutoAction(vrtaAction const&)
 .text$_ZN17SystemClockDevice10CSLIFEventER9vrtaEvent
                0x0042b870       0x40 C:/ETAS/RTA-CAR_12.2.0/RTA-CAR/workspace/Basic_Workflow/build/../src/os\RTAOS.lib(vrtaSystemClockDevice.o)
                0x0042b870                SystemClockDevice::CSLIFEvent(vrtaEvent&)
 .text$_ZN17SystemClockDevice10ScaleEventER9vrtaEvent
                0x0042b8b0       0x30 C:/ETAS/RTA-CAR_12.2.0/RTA-CAR/workspace/Basic_Workflow/build/../src/os\RTAOS.lib(vrtaSystemClockDevice.o)
                0x0042b8b0                SystemClockDevice::ScaleEvent(vrtaEvent&)
 .text$_ZN17SystemClockDevice10TicksEventER9vrtaEvent
                0x0042b8e0       0x20 C:/ETAS/RTA-CAR_12.2.0/RTA-CAR/workspace/Basic_Workflow/build/../src/os\RTAOS.lib(vrtaSystemClockDevice.o)
                0x0042b8e0                SystemClockDevice::TicksEvent(vrtaEvent&)
 .text$_ZN17SystemClockDevice11DirectEventER9vrtaEvent
                0x0042b900       0x80 C:/ETAS/RTA-CAR_12.2.0/RTA-CAR/workspace/Basic_Workflow/build/../src/os\RTAOS.lib(vrtaSystemClockDevice.o)
                0x0042b900                SystemClockDevice::DirectEvent(vrtaEvent&)
 .text$_ZN17SystemClockDevice11PauseActionERK10vrtaAction
                0x0042b980       0x40 C:/ETAS/RTA-CAR_12.2.0/RTA-CAR/workspace/Basic_Workflow/build/../src/os\RTAOS.lib(vrtaSystemClockDevice.o)
                0x0042b980                SystemClockDevice::PauseAction(vrtaAction const&)
 .text$_ZN17SystemClockDevice11ScaleActionERK10vrtaAction
                0x0042b9c0       0x40 C:/ETAS/RTA-CAR_12.2.0/RTA-CAR/workspace/Basic_Workflow/build/../src/os\RTAOS.lib(vrtaSystemClockDevice.o)
                0x0042b9c0                SystemClockDevice::ScaleAction(vrtaAction const&)
 .text$_ZN17SystemClockDevice11TickEndDataER9vrtaEvent
                0x0042ba00       0x90 C:/ETAS/RTA-CAR_12.2.0/RTA-CAR/workspace/Basic_Workflow/build/../src/os\RTAOS.lib(vrtaSystemClockDevice.o)
                0x0042ba00                SystemClockDevice::TickEndData(vrtaEvent&)
 .text$_ZN17SystemClockDevice12DirectActionERK10vrtaAction
                0x0042ba90       0x40 C:/ETAS/RTA-CAR_12.2.0/RTA-CAR/workspace/Basic_Workflow/build/../src/os\RTAOS.lib(vrtaSystemClockDevice.o)
                0x0042ba90                SystemClockDevice::DirectAction(vrtaAction const&)
 .text$_ZN17SystemClockDevice12DirectFreezeERK10vrtaAction
                0x0042bad0       0x30 C:/ETAS/RTA-CAR_12.2.0/RTA-CAR/workspace/Basic_Workflow/build/../src/os\RTAOS.lib(vrtaSystemClockDevice.o)
                0x0042bad0                SystemClockDevice::DirectFreeze(vrtaAction const&)
 .text$_ZN17SystemClockDevice12ResumeActionERK10vrtaAction
                0x0042bb00       0x40 C:/ETAS/RTA-CAR_12.2.0/RTA-CAR/workspace/Basic_Workflow/build/../src/os\RTAOS.lib(vrtaSystemClockDevice.o)
                0x0042bb00                SystemClockDevice::ResumeAction(vrtaAction const&)
 .text$_ZN17SystemClockDevice13GetDeviceInfoERN13VirtualDevice7OptListE
                0x0042bb40       0x60 C:/ETAS/RTA-CAR_12.2.0/RTA-CAR/workspace/Basic_Workflow/build/../src/os\RTAOS.lib(vrtaSystemClockDevice.o)
                0x0042bb40                SystemClockDevice::GetDeviceInfo(VirtualDevice::OptList&)
 .text$_ZN17SystemClockDevice13MonitorEventsERK10vrtaAction
                0x0042bba0       0xa0 C:/ETAS/RTA-CAR_12.2.0/RTA-CAR/workspace/Basic_Workflow/build/../src/os\RTAOS.lib(vrtaSystemClockDevice.o)
                0x0042bba0                SystemClockDevice::MonitorEvents(vrtaAction const&)
 .text$_ZN17SystemClockDevice13StrategyEventER9vrtaEvent
                0x0042bc40       0x40 C:/ETAS/RTA-CAR_12.2.0/RTA-CAR/workspace/Basic_Workflow/build/../src/os\RTAOS.lib(vrtaSystemClockDevice.o)
                0x0042bc40                SystemClockDevice::StrategyEvent(vrtaEvent&)
 .text$_ZN17SystemClockDevice13UpdateAndTickERK10vrtaAction
                0x0042bc80       0xe0 C:/ETAS/RTA-CAR_12.2.0/RTA-CAR/workspace/Basic_Workflow/build/../src/os\RTAOS.lib(vrtaSystemClockDevice.o)
                0x0042bc80                SystemClockDevice::UpdateAndTick(vrtaAction const&)
 .text$_ZN17SystemClockDevice14IdleTickActionERK10vrtaAction
                0x0042bd60       0x40 C:/ETAS/RTA-CAR_12.2.0/RTA-CAR/workspace/Basic_Workflow/build/../src/os\RTAOS.lib(vrtaSystemClockDevice.o)
                0x0042bd60                SystemClockDevice::IdleTickAction(vrtaAction const&)
 .text$_ZN17SystemClockDevice14StrategyActionERK10vrtaAction
                0x0042bda0       0x50 C:/ETAS/RTA-CAR_12.2.0/RTA-CAR/workspace/Basic_Workflow/build/../src/os\RTAOS.lib(vrtaSystemClockDevice.o)
                0x0042bda0                SystemClockDevice::StrategyAction(vrtaAction const&)
 .text$_ZN17SystemClockDevice15DirectTickYieldERK10vrtaAction
                0x0042bdf0       0x30 C:/ETAS/RTA-CAR_12.2.0/RTA-CAR/workspace/Basic_Workflow/build/../src/os\RTAOS.lib(vrtaSystemClockDevice.o)
                0x0042bdf0                SystemClockDevice::DirectTickYield(vrtaAction const&)
 .text$_ZN17SystemClockDevice15GetDeviceEventsERN13VirtualDevice9EventListE
                0x0042be20      0x3c0 C:/ETAS/RTA-CAR_12.2.0/RTA-CAR/workspace/Basic_Workflow/build/../src/os\RTAOS.lib(vrtaSystemClockDevice.o)
                0x0042be20                SystemClockDevice::GetDeviceEvents(VirtualDevice::EventList&)
 .text$_ZN17SystemClockDevice16GetDeviceActionsERN13VirtualDevice10ActionListE
                0x0042c1e0      0x3e0 C:/ETAS/RTA-CAR_12.2.0/RTA-CAR/workspace/Basic_Workflow/build/../src/os\RTAOS.lib(vrtaSystemClockDevice.o)
                0x0042c1e0                SystemClockDevice::GetDeviceActions(VirtualDevice::ActionList&)
 .text$_ZN17SystemClockDevice17GetPersistentDataEv
                0x0042c5c0       0x10 C:/ETAS/RTA-CAR_12.2.0/RTA-CAR/workspace/Basic_Workflow/build/../src/os\RTAOS.lib(vrtaSystemClockDevice.o)
                0x0042c5c0                SystemClockDevice::GetPersistentData()
 .text$_ZN17SystemClockDevice17SetPersistentDataEPht
                0x0042c5d0       0xa0 C:/ETAS/RTA-CAR_12.2.0/RTA-CAR/workspace/Basic_Workflow/build/../src/os\RTAOS.lib(vrtaSystemClockDevice.o)
                0x0042c5d0                SystemClockDevice::SetPersistentData(unsigned char*, unsigned short)
 .text$_ZN17SystemClockDevice19TicksRemainingEventER9vrtaEvent
                0x0042c670       0x30 C:/ETAS/RTA-CAR_12.2.0/RTA-CAR/workspace/Basic_Workflow/build/../src/os\RTAOS.lib(vrtaSystemClockDevice.o)
                0x0042c670                SystemClockDevice::TicksRemainingEvent(vrtaEvent&)
 .text$_ZN17SystemClockDevice20DirectTickYieldEventER9vrtaEvent
                0x0042c6a0       0x40 C:/ETAS/RTA-CAR_12.2.0/RTA-CAR/workspace/Basic_Workflow/build/../src/os\RTAOS.lib(vrtaSystemClockDevice.o)
                0x0042c6a0                SystemClockDevice::DirectTickYieldEvent(vrtaEvent&)
 .text$_ZN17SystemClockDevice21GetPersistentDataSizeEv
                0x0042c6e0       0x10 C:/ETAS/RTA-CAR_12.2.0/RTA-CAR/workspace/Basic_Workflow/build/../src/os\RTAOS.lib(vrtaSystemClockDevice.o)
                0x0042c6e0                SystemClockDevice::GetPersistentDataSize()
 .text$_ZN17SystemClockDevice5CSLIFERK10vrtaAction
                0x0042c6f0      0x1f0 C:/ETAS/RTA-CAR_12.2.0/RTA-CAR/workspace/Basic_Workflow/build/../src/os\RTAOS.lib(vrtaSystemClockDevice.o)
                0x0042c6f0                SystemClockDevice::CSLIF(vrtaAction const&)
 .text$_ZN17SystemClockDevice7MSEventER9vrtaEvent
                0x0042c8e0       0x30 C:/ETAS/RTA-CAR_12.2.0/RTA-CAR/workspace/Basic_Workflow/build/../src/os\RTAOS.lib(vrtaSystemClockDevice.o)
                0x0042c8e0                SystemClockDevice::MSEvent(vrtaEvent&)
 .text$_ZN17SystemClockDevice9ModeEventER9vrtaEvent
                0x0042c910       0x60 C:/ETAS/RTA-CAR_12.2.0/RTA-CAR/workspace/Basic_Workflow/build/../src/os\RTAOS.lib(vrtaSystemClockDevice.o)
                0x0042c910                SystemClockDevice::ModeEvent(vrtaEvent&)
 .text$_ZN17SystemClockDeviceD0Ev
                0x0042c970       0x30 C:/ETAS/RTA-CAR_12.2.0/RTA-CAR/workspace/Basic_Workflow/build/../src/os\RTAOS.lib(vrtaSystemClockDevice.o)
                0x0042c970                SystemClockDevice::~SystemClockDevice()
 .text$_ZN17SystemClockDeviceD1Ev
                0x0042c9a0       0x10 C:/ETAS/RTA-CAR_12.2.0/RTA-CAR/workspace/Basic_Workflow/build/../src/os\RTAOS.lib(vrtaSystemClockDevice.o)
                0x0042c9a0                SystemClockDevice::~SystemClockDevice()
 .text$_ZN17vrtaAdaptiveClockD0Ev
                0x0042c9b0       0x50 C:/ETAS/RTA-CAR_12.2.0/RTA-CAR/workspace/Basic_Workflow/build/../src/os\RTAOS.lib(vrtaSampleDevices.o)
                0x0042c9b0                vrtaAdaptiveClock::~vrtaAdaptiveClock()
 .text$_ZN17vrtaAdaptiveClockD1Ev
                0x0042ca00       0x30 C:/ETAS/RTA-CAR_12.2.0/RTA-CAR/workspace/Basic_Workflow/build/../src/os\RTAOS.lib(vrtaSampleDevices.o)
                0x0042ca00                vrtaAdaptiveClock::~vrtaAdaptiveClock()
 .text$_ZN18Can_HwobjStateType5resetEv
                0x0042ca30       0x20 CMakeFiles\Basic_workflow.dir/objects.a(Can_Implementation.cpp.obj)
                0x0042ca30                Can_HwobjStateType::reset()
 .text$_ZN18Can_HwobjStateTypeC1Ev
                0x0042ca50       0x7c CMakeFiles\Basic_workflow.dir/objects.a(Can_Implementation.cpp.obj)
                0x0042ca50                Can_HwobjStateType::Can_HwobjStateType()
 .text$_ZN18Can_Virtual_Driver10InitialiseEv
                0x0042cacc       0xcc CMakeFiles\Basic_workflow.dir/objects.a(VirtualCan.cpp.obj)
                0x0042cacc                Can_Virtual_Driver::Initialise()
 .text$_ZN18Can_Virtual_Driver10SetupEventERPv
                0x0042cb98       0x6c CMakeFiles\Basic_workflow.dir/objects.a(VirtualCan.cpp.obj)
                0x0042cb98                Can_Virtual_Driver::SetupEvent(void*&)
 .text$_ZN18Can_Virtual_Driver11CurrentTimeEhP17Can_TimeStampTypeh
                0x0042cc04       0x80 CMakeFiles\Basic_workflow.dir/objects.a(VirtualCan.cpp.obj)
                0x0042cc04                Can_Virtual_Driver::CurrentTime(unsigned char, Can_TimeStampType*, unsigned char)
 .text$_ZN18Can_Virtual_Driver11ForceBusOffEj
                0x0042cc84       0x68 CMakeFiles\Basic_workflow.dir/objects.a(VirtualCan.cpp.obj)
                0x0042cc84                Can_Virtual_Driver::ForceBusOff(unsigned int)
 .text$_ZN18Can_Virtual_Driver11ForceWakeupEj
                0x0042ccec       0x68 CMakeFiles\Basic_workflow.dir/objects.a(VirtualCan.cpp.obj)
                0x0042ccec                Can_Virtual_Driver::ForceWakeup(unsigned int)
 .text$_ZN18Can_Virtual_Driver11HandleErrorEP22Can_Virtual_Controller
                0x0042cd54      0x1ec CMakeFiles\Basic_workflow.dir/objects.a(VirtualCan.cpp.obj)
                0x0042cd54                Can_Virtual_Driver::HandleError(Can_Virtual_Controller*)
 .text$_ZN18Can_Virtual_Driver12DeInitialiseEv
                0x0042cf40       0x74 CMakeFiles\Basic_workflow.dir/objects.a(VirtualCan.cpp.obj)
                0x0042cf40                Can_Virtual_Driver::DeInitialise()
 .text$_ZN18Can_Virtual_Driver12HandleBusOffEP22Can_Virtual_Controller
                0x0042cfb4       0x4c CMakeFiles\Basic_workflow.dir/objects.a(VirtualCan.cpp.obj)
                0x0042cfb4                Can_Virtual_Driver::HandleBusOff(Can_Virtual_Controller*)
 .text$_ZN18Can_Virtual_Driver12HandleWakeupEP22Can_Virtual_Controller
                0x0042d000       0x54 CMakeFiles\Basic_workflow.dir/objects.a(VirtualCan.cpp.obj)
                0x0042d000                Can_Virtual_Driver::HandleWakeup(Can_Virtual_Controller*)
 .text$_ZN18Can_Virtual_Driver12ReceiveFrameEP22Can_Virtual_ControllerS1_P13Can_Hwp_Frame
                0x0042d054      0x25c CMakeFiles\Basic_workflow.dir/objects.a(VirtualCan.cpp.obj)
                0x0042d054                Can_Virtual_Driver::ReceiveFrame(Can_Virtual_Controller*, Can_Virtual_Controller*, Can_Hwp_Frame*)
 .text$_ZN18Can_Virtual_Driver12WaitForEventEPv
                0x0042d2b0       0x24 CMakeFiles\Basic_workflow.dir/objects.a(VirtualCan.cpp.obj)
                0x0042d2b0                Can_Virtual_Driver::WaitForEvent(void*)
 .text$_ZN18Can_Virtual_Driver12WorkerThreadEv
                0x0042d2d4      0x194 CMakeFiles\Basic_workflow.dir/objects.a(VirtualCan.cpp.obj)
                0x0042d2d4                Can_Virtual_Driver::WorkerThread()
 .text$_ZN18Can_Virtual_Driver13AddControllerEjPKcPFvj13Can_Hwp_EventtP13Can_Hwp_FrameEj
                0x0042d468       0x78 CMakeFiles\Basic_workflow.dir/objects.a(VirtualCan.cpp.obj)
                0x0042d468                Can_Virtual_Driver::AddController(unsigned int, char const*, void (*)(unsigned int, Can_Hwp_Event, unsigned short, Can_Hwp_Frame*), unsigned int)
 .text$_ZN18Can_Virtual_Driver14StopControllerEj
                0x0042d4e0       0x6c CMakeFiles\Basic_workflow.dir/objects.a(VirtualCan.cpp.obj)
                0x0042d4e0                Can_Virtual_Driver::StopController(unsigned int)
 .text$_ZN18Can_Virtual_Driver14TransmitFramesEP22Can_Virtual_Controllerj
                0x0042d54c      0x1ec CMakeFiles\Basic_workflow.dir/objects.a(VirtualCan.cpp.obj)
                0x0042d54c                Can_Virtual_Driver::TransmitFrames(Can_Virtual_Controller*, unsigned int)
 .text$_ZN18Can_Virtual_Driver15SleepControllerEj
                0x0042d738       0x74 CMakeFiles\Basic_workflow.dir/objects.a(VirtualCan.cpp.obj)
                0x0042d738                Can_Virtual_Driver::SleepController(unsigned int)
 .text$_ZN18Can_Virtual_Driver15StartControllerEj
                0x0042d7ac       0x6c CMakeFiles\Basic_workflow.dir/objects.a(VirtualCan.cpp.obj)
                0x0042d7ac                Can_Virtual_Driver::StartController(unsigned int)
 .text$_ZN18Can_Virtual_Driver17InjectCurrentTimeEh17Can_TimeStampType
                0x0042d818       0x74 CMakeFiles\Basic_workflow.dir/objects.a(VirtualCan.cpp.obj)
                0x0042d818                Can_Virtual_Driver::InjectCurrentTime(unsigned char, Can_TimeStampType)
 .text$_ZN18Can_Virtual_Driver18GetEgressTimeStampEhttP17Can_TimeStampType
                0x0042d88c      0x120 CMakeFiles\Basic_workflow.dir/objects.a(VirtualCan.cpp.obj)
                0x0042d88c                Can_Virtual_Driver::GetEgressTimeStamp(unsigned char, unsigned short, unsigned short, Can_TimeStampType*)
 .text$_ZN18Can_Virtual_Driver19ConfigureControllerEjPK21Can_Hwp_ChannelConfig
                0x0042d9ac      0x484 CMakeFiles\Basic_workflow.dir/objects.a(VirtualCan.cpp.obj)
                0x0042d9ac                Can_Virtual_Driver::ConfigureController(unsigned int, Can_Hwp_ChannelConfig const*)
 .text$_ZN18Can_Virtual_Driver19GetIngressTimeStampEhtP17Can_TimeStampType
                0x0042de30       0xf4 CMakeFiles\Basic_workflow.dir/objects.a(VirtualCan.cpp.obj)
                0x0042de30                Can_Virtual_Driver::GetIngressTimeStamp(unsigned char, unsigned short, Can_TimeStampType*)
 .text$_ZN18Can_Virtual_Driver19IsControllerPresentEj
                0x0042df24       0x5c CMakeFiles\Basic_workflow.dir/objects.a(VirtualCan.cpp.obj)
                0x0042df24                Can_Virtual_Driver::IsControllerPresent(unsigned int)
 .text$_ZN18Can_Virtual_Driver20ResetTransmitObjectsEP22Can_Virtual_Controller
                0x0042df80       0x5c CMakeFiles\Basic_workflow.dir/objects.a(VirtualCan.cpp.obj)
                0x0042df80                Can_Virtual_Driver::ResetTransmitObjects(Can_Virtual_Controller*)
 .text$_ZN18Can_Virtual_Driver21ChangeControllerStateEP22Can_Virtual_Controller
                0x0042dfdc       0x54 CMakeFiles\Basic_workflow.dir/objects.a(VirtualCan.cpp.obj)
                0x0042dfdc                Can_Virtual_Driver::ChangeControllerState(Can_Virtual_Controller*)
 .text$_ZN18Can_Virtual_Driver21EnableEgressTimeStampEht
                0x0042e030       0xd8 CMakeFiles\Basic_workflow.dir/objects.a(VirtualCan.cpp.obj)
                0x0042e030                Can_Virtual_Driver::EnableEgressTimeStamp(unsigned char, unsigned short)
 .text$_ZN18Can_Virtual_Driver21InjectEgressTimeStampEhtt17Can_TimeStampType
                0x0042e108      0x12c CMakeFiles\Basic_workflow.dir/objects.a(VirtualCan.cpp.obj)
                0x0042e108                Can_Virtual_Driver::InjectEgressTimeStamp(unsigned char, unsigned short, unsigned short, Can_TimeStampType)
 .text$_ZN18Can_Virtual_Driver21SetControllerBaudrateEjPK22Can_Hwp_BaudrateConfig
                0x0042e234       0x88 CMakeFiles\Basic_workflow.dir/objects.a(VirtualCan.cpp.obj)
                0x0042e234                Can_Virtual_Driver::SetControllerBaudrate(unsigned int, Can_Hwp_BaudrateConfig const*)
 .text$_ZN18Can_Virtual_Driver22ControllerCausedWakeupEj
                0x0042e2bc       0x5c CMakeFiles\Basic_workflow.dir/objects.a(VirtualCan.cpp.obj)
                0x0042e2bc                Can_Virtual_Driver::ControllerCausedWakeup(unsigned int)
 .text$_ZN18Can_Virtual_Driver22InjectIngressTimeStampEht17Can_TimeStampType
                0x0042e318      0x100 CMakeFiles\Basic_workflow.dir/objects.a(VirtualCan.cpp.obj)
                0x0042e318                Can_Virtual_Driver::InjectIngressTimeStamp(unsigned char, unsigned short, Can_TimeStampType)
 .text$_ZN18Can_Virtual_Driver24EnableTransmitProcessingEjb
                0x0042e418       0x68 CMakeFiles\Basic_workflow.dir/objects.a(VirtualCan.cpp.obj)
                0x0042e418                Can_Virtual_Driver::EnableTransmitProcessing(unsigned int, bool)
 .text$_ZN18Can_Virtual_Driver27GetControllerRxErrorCounterEhPh
                0x0042e480       0x70 CMakeFiles\Basic_workflow.dir/objects.a(VirtualCan.cpp.obj)
                0x0042e480                Can_Virtual_Driver::GetControllerRxErrorCounter(unsigned char, unsigned char*)
 .text$_ZN18Can_Virtual_Driver27GetControllerTxErrorCounterEhPh
                0x0042e4f0       0x70 CMakeFiles\Basic_workflow.dir/objects.a(VirtualCan.cpp.obj)
                0x0042e4f0                Can_Virtual_Driver::GetControllerTxErrorCounter(unsigned char, unsigned char*)
 .text$_ZN18Can_Virtual_Driver27InjectEnableEgressTimeStampEhth
                0x0042e560       0xe4 CMakeFiles\Basic_workflow.dir/objects.a(VirtualCan.cpp.obj)
                0x0042e560                Can_Virtual_Driver::InjectEnableEgressTimeStamp(unsigned char, unsigned short, unsigned char)
 .text$_ZN18Can_Virtual_Driver28InjectControllerRxErrorCountEhh
                0x0042e644       0x64 CMakeFiles\Basic_workflow.dir/objects.a(VirtualCan.cpp.obj)
                0x0042e644                Can_Virtual_Driver::InjectControllerRxErrorCount(unsigned char, unsigned char)
 .text$_ZN18Can_Virtual_Driver28InjectControllerTxErrorCountEhh
                0x0042e6a8       0x64 CMakeFiles\Basic_workflow.dir/objects.a(VirtualCan.cpp.obj)
                0x0042e6a8                Can_Virtual_Driver::InjectControllerTxErrorCount(unsigned char, unsigned char)
 .text$_ZN18Can_Virtual_Driver5StateEj
                0x0042e70c       0x58 CMakeFiles\Basic_workflow.dir/objects.a(VirtualCan.cpp.obj)
                0x0042e70c                Can_Virtual_Driver::State(unsigned int)
 .text$_ZN18Can_Virtual_Driver5WriteEjtP13Can_Hwp_Frame
                0x0042e764      0x374 CMakeFiles\Basic_workflow.dir/objects.a(VirtualCan.cpp.obj)
                0x0042e764                Can_Virtual_Driver::Write(unsigned int, unsigned short, Can_Hwp_Frame*)
 .text$_ZN18Can_Virtual_Driver8TeardownEv
                0x0042ead8        0xc CMakeFiles\Basic_workflow.dir/objects.a(VirtualCan.cpp.obj)
                0x0042ead8                Can_Virtual_Driver::Teardown()
 .text$_ZN18Can_Virtual_Driver9SendEventEPv
                0x0042eae4       0x1c CMakeFiles\Basic_workflow.dir/objects.a(VirtualCan.cpp.obj)
                0x0042eae4                Can_Virtual_Driver::SendEvent(void*)
 .text$_ZN18Can_Virtual_DriverC1Ev
                0x0042eb00       0x40 CMakeFiles\Basic_workflow.dir/objects.a(VirtualCan.cpp.obj)
                0x0042eb00                Can_Virtual_Driver::Can_Virtual_Driver()
 .text$_ZN18Can_Virtual_DriverD1Ev
                0x0042eb40       0x70 CMakeFiles\Basic_workflow.dir/objects.a(VirtualCan.cpp.obj)
                0x0042eb40                Can_Virtual_Driver::~Can_Virtual_Driver()
 .text$_ZN19CanControllerDevice10ErrorEventER9vrtaEvent
                0x0042ebb0       0x50 CMakeFiles\Basic_workflow.dir/objects.a(Can_Device.cpp.obj)
                0x0042ebb0                CanControllerDevice::ErrorEvent(vrtaEvent&)
 .text$_ZN19CanControllerDevice10StateEventER9vrtaEvent
                0x0042ec00       0x60 CMakeFiles\Basic_workflow.dir/objects.a(Can_Device.cpp.obj)
                0x0042ec00                CanControllerDevice::StateEvent(vrtaEvent&)
 .text$_ZN19CanControllerDevice10WriteEventER9vrtaEvent
                0x0042ec60       0x54 CMakeFiles\Basic_workflow.dir/objects.a(Can_Device.cpp.obj)
                0x0042ec60                CanControllerDevice::WriteEvent(vrtaEvent&)
 .text$_ZN19CanControllerDevice11StateActionERK10vrtaAction
                0x0042ecb4       0x54 CMakeFiles\Basic_workflow.dir/objects.a(Can_Device.cpp.obj)
                0x0042ecb4                CanControllerDevice::StateAction(vrtaAction const&)
 .text$_ZN19CanControllerDevice12RaiseRxEventEitP13Can_Hwp_Frame
                0x0042ed08       0xa8 CMakeFiles\Basic_workflow.dir/objects.a(Can_Device.cpp.obj)
                0x0042ed08                CanControllerDevice::RaiseRxEvent(int, unsigned short, Can_Hwp_Frame*)
 .text$_ZN19CanControllerDevice12RaiseTxEventEitP13Can_Hwp_Frame
                0x0042edb0       0xbc CMakeFiles\Basic_workflow.dir/objects.a(Can_Device.cpp.obj)
                0x0042edb0                CanControllerDevice::RaiseTxEvent(int, unsigned short, Can_Hwp_Frame*)
 .text$_ZN19CanControllerDevice13GetDeviceInfoERN13VirtualDevice7OptListE
                0x0042ee6c       0x5c CMakeFiles\Basic_workflow.dir/objects.a(Can_Device.cpp.obj)
                0x0042ee6c                CanControllerDevice::GetDeviceInfo(VirtualDevice::OptList&)
 .text$_ZN19CanControllerDevice14InjectRxActionERK10vrtaAction
                0x0042eec8       0xac CMakeFiles\Basic_workflow.dir/objects.a(Can_Device.cpp.obj)
                0x0042eec8                CanControllerDevice::InjectRxAction(vrtaAction const&)
 .text$_ZN19CanControllerDevice15DropWriteActionERK10vrtaAction
                0x0042ef74       0x48 CMakeFiles\Basic_workflow.dir/objects.a(Can_Device.cpp.obj)
                0x0042ef74                CanControllerDevice::DropWriteAction(vrtaAction const&)
 .text$_ZN19CanControllerDevice15ErrorStateEventER9vrtaEvent
                0x0042efbc       0x50 CMakeFiles\Basic_workflow.dir/objects.a(Can_Device.cpp.obj)
                0x0042efbc                CanControllerDevice::ErrorStateEvent(vrtaEvent&)
 .text$_ZN19CanControllerDevice15GetDeviceEventsERN13VirtualDevice9EventListE
                0x0042f00c      0x874 CMakeFiles\Basic_workflow.dir/objects.a(Can_Device.cpp.obj)
                0x0042f00c                CanControllerDevice::GetDeviceEvents(VirtualDevice::EventList&)
 .text$_ZN19CanControllerDevice15RaiseErrorEventEj
                0x0042f880       0x3c CMakeFiles\Basic_workflow.dir/objects.a(Can_Device.cpp.obj)
                0x0042f880                CanControllerDevice::RaiseErrorEvent(unsigned int)
 .text$_ZN19CanControllerDevice15RaiseStateEventEi14Can_EventStatePKc
                0x0042f8bc       0x84 CMakeFiles\Basic_workflow.dir/objects.a(Can_Device.cpp.obj)
                0x0042f8bc                CanControllerDevice::RaiseStateEvent(int, Can_EventState, char const*)
 .text$_ZN19CanControllerDevice15RaiseWriteEventEihhtP13Can_Hwp_Frame
                0x0042f940      0x12c CMakeFiles\Basic_workflow.dir/objects.a(Can_Device.cpp.obj)
                0x0042f940                CanControllerDevice::RaiseWriteEvent(int, unsigned char, unsigned char, unsigned short, Can_Hwp_Frame*)
 .text$_ZN19CanControllerDevice16CurrentTimeEventER9vrtaEvent
                0x0042fa6c       0x50 CMakeFiles\Basic_workflow.dir/objects.a(Can_Device.cpp.obj)
                0x0042fa6c                CanControllerDevice::CurrentTimeEvent(vrtaEvent&)
 .text$_ZN19CanControllerDevice16GetDeviceActionsERN13VirtualDevice10ActionListE
                0x0042fabc      0x7b4 CMakeFiles\Basic_workflow.dir/objects.a(Can_Device.cpp.obj)
                0x0042fabc                CanControllerDevice::GetDeviceActions(VirtualDevice::ActionList&)
 .text$_ZN19CanControllerDevice17DropReceiveActionERK10vrtaAction
                0x00430270       0x48 CMakeFiles\Basic_workflow.dir/objects.a(Can_Device.cpp.obj)
                0x00430270                CanControllerDevice::DropReceiveAction(vrtaAction const&)
 .text$_ZN19CanControllerDevice17ForceWakeupActionERK10vrtaAction
                0x004302b8       0x24 CMakeFiles\Basic_workflow.dir/objects.a(Can_Device.cpp.obj)
                0x004302b8                CanControllerDevice::ForceWakeupAction(vrtaAction const&)
 .text$_ZN19CanControllerDevice17InjectErrorActionERK10vrtaAction
                0x004302dc       0x4c CMakeFiles\Basic_workflow.dir/objects.a(Can_Device.cpp.obj)
                0x004302dc                CanControllerDevice::InjectErrorAction(vrtaAction const&)
 .text$_ZN19CanControllerDevice17InjectWriteActionERK10vrtaAction
                0x00430328       0x80 CMakeFiles\Basic_workflow.dir/objects.a(Can_Device.cpp.obj)
                0x00430328                CanControllerDevice::InjectWriteAction(vrtaAction const&)
 .text$_ZN19CanControllerDevice19RxErrorCounterEventER9vrtaEvent
                0x004303a8       0x50 CMakeFiles\Basic_workflow.dir/objects.a(Can_Device.cpp.obj)
                0x004303a8                CanControllerDevice::RxErrorCounterEvent(vrtaEvent&)
 .text$_ZN19CanControllerDevice19TxErrorCounterEventER9vrtaEvent
                0x004303f8       0x50 CMakeFiles\Basic_workflow.dir/objects.a(Can_Device.cpp.obj)
                0x004303f8                CanControllerDevice::TxErrorCounterEvent(vrtaEvent&)
 .text$_ZN19CanControllerDevice20EgressTimeStampEventER9vrtaEvent
                0x00430448       0x50 CMakeFiles\Basic_workflow.dir/objects.a(Can_Device.cpp.obj)
                0x00430448                CanControllerDevice::EgressTimeStampEvent(vrtaEvent&)
 .text$_ZN19CanControllerDevice20RaiseErrorStateEventEj
                0x00430498       0x3c CMakeFiles\Basic_workflow.dir/objects.a(Can_Device.cpp.obj)
                0x00430498                CanControllerDevice::RaiseErrorStateEvent(unsigned int)
 .text$_ZN19CanControllerDevice21IngressTimeStampEventER9vrtaEvent
                0x004304d4       0x50 CMakeFiles\Basic_workflow.dir/objects.a(Can_Device.cpp.obj)
                0x004304d4                CanControllerDevice::IngressTimeStampEvent(vrtaEvent&)
 .text$_ZN19CanControllerDevice21RaiseCurrentTimeEventE17Can_TimeStampType
                0x00430524       0x48 CMakeFiles\Basic_workflow.dir/objects.a(Can_Device.cpp.obj)
                0x00430524                CanControllerDevice::RaiseCurrentTimeEvent(Can_TimeStampType)
 .text$_ZN19CanControllerDevice22InjectErrorStateActionERK10vrtaAction
                0x0043056c       0x48 CMakeFiles\Basic_workflow.dir/objects.a(Can_Device.cpp.obj)
                0x0043056c                CanControllerDevice::InjectErrorStateAction(vrtaAction const&)
 .text$_ZN19CanControllerDevice23InjectCurrentTimeActionERK10vrtaAction
                0x004305b4       0x58 CMakeFiles\Basic_workflow.dir/objects.a(Can_Device.cpp.obj)
                0x004305b4                CanControllerDevice::InjectCurrentTimeAction(vrtaAction const&)
 .text$_ZN19CanControllerDevice24RaiseRxErrorCounterEventEh
                0x0043060c       0x44 CMakeFiles\Basic_workflow.dir/objects.a(Can_Device.cpp.obj)
                0x0043060c                CanControllerDevice::RaiseRxErrorCounterEvent(unsigned char)
 .text$_ZN19CanControllerDevice24RaiseTxErrorCounterEventEh
                0x00430650       0x44 CMakeFiles\Basic_workflow.dir/objects.a(Can_Device.cpp.obj)
                0x00430650                CanControllerDevice::RaiseTxErrorCounterEvent(unsigned char)
 .text$_ZN19CanControllerDevice25RaiseEgressTimeStampEventEtt17Can_TimeStampType
                0x00430694       0x70 CMakeFiles\Basic_workflow.dir/objects.a(Can_Device.cpp.obj)
                0x00430694                CanControllerDevice::RaiseEgressTimeStampEvent(unsigned short, unsigned short, Can_TimeStampType)
 .text$_ZN19CanControllerDevice26EnableEgressTimeStampEventER9vrtaEvent
                0x00430704       0x50 CMakeFiles\Basic_workflow.dir/objects.a(Can_Device.cpp.obj)
                0x00430704                CanControllerDevice::EnableEgressTimeStampEvent(vrtaEvent&)
 .text$_ZN19CanControllerDevice26RaiseIngressTimeStampEventEt17Can_TimeStampType
                0x00430754       0x5c CMakeFiles\Basic_workflow.dir/objects.a(Can_Device.cpp.obj)
                0x00430754                CanControllerDevice::RaiseIngressTimeStampEvent(unsigned short, Can_TimeStampType)
 .text$_ZN19CanControllerDevice27InjectEgressTimeStampActionERK10vrtaAction
                0x004307b0       0x64 CMakeFiles\Basic_workflow.dir/objects.a(Can_Device.cpp.obj)
                0x004307b0                CanControllerDevice::InjectEgressTimeStampAction(vrtaAction const&)
 .text$_ZN19CanControllerDevice28InjectIngressTimeStampActionERK10vrtaAction
                0x00430814       0x54 CMakeFiles\Basic_workflow.dir/objects.a(Can_Device.cpp.obj)
                0x00430814                CanControllerDevice::InjectIngressTimeStampAction(vrtaAction const&)
 .text$_ZN19CanControllerDevice31RaiseEnableEgressTimeStampEventEtj
                0x00430868       0x50 CMakeFiles\Basic_workflow.dir/objects.a(Can_Device.cpp.obj)
                0x00430868                CanControllerDevice::RaiseEnableEgressTimeStampEvent(unsigned short, unsigned int)
 .text$_ZN19CanControllerDevice33InjectEnableEgressTimeStampActionERK10vrtaAction
                0x004308b8       0x44 CMakeFiles\Basic_workflow.dir/objects.a(Can_Device.cpp.obj)
                0x004308b8                CanControllerDevice::InjectEnableEgressTimeStampAction(vrtaAction const&)
 .text$_ZN19CanControllerDevice34InjectControllerRxErrorCountActionERK10vrtaAction
                0x004308fc       0x4c CMakeFiles\Basic_workflow.dir/objects.a(Can_Device.cpp.obj)
                0x004308fc                CanControllerDevice::InjectControllerRxErrorCountAction(vrtaAction const&)
 .text$_ZN19CanControllerDevice34InjectControllerTxErrorCountActionERK10vrtaAction
                0x00430948       0x4c CMakeFiles\Basic_workflow.dir/objects.a(Can_Device.cpp.obj)
                0x00430948                CanControllerDevice::InjectControllerTxErrorCountAction(vrtaAction const&)
 .text$_ZN19CanControllerDevice6ParentER9vrtaEvent
                0x00430994       0x48 CMakeFiles\Basic_workflow.dir/objects.a(Can_Device.cpp.obj)
                0x00430994                CanControllerDevice::Parent(vrtaEvent&)
 .text$_ZN19CanControllerDevice7RxEventER9vrtaEvent
                0x004309dc       0x58 CMakeFiles\Basic_workflow.dir/objects.a(Can_Device.cpp.obj)
                0x004309dc                CanControllerDevice::RxEvent(vrtaEvent&)
 .text$_ZN19CanControllerDevice7TxEventER9vrtaEvent
                0x00430a34       0x58 CMakeFiles\Basic_workflow.dir/objects.a(Can_Device.cpp.obj)
                0x00430a34                CanControllerDevice::TxEvent(vrtaEvent&)
 .text$_ZN19CanControllerDeviceC1EPKchht
                0x00430a8c      0x284 CMakeFiles\Basic_workflow.dir/objects.a(Can_Device.cpp.obj)
                0x00430a8c                CanControllerDevice::CanControllerDevice(char const*, unsigned char, unsigned char, unsigned short)
 .text$_ZN19CanControllerDeviceD0Ev
                0x00430d10       0x28 CMakeFiles\Basic_workflow.dir/objects.a(Can_Device.cpp.obj)
                0x00430d10                CanControllerDevice::~CanControllerDevice()
 .text$_ZN19CanControllerDeviceD1Ev
                0x00430d38       0x20 CMakeFiles\Basic_workflow.dir/objects.a(Can_Device.cpp.obj)
                0x00430d38                CanControllerDevice::~CanControllerDevice()
 .text$_ZN19Can_RxHwObjFifoType5clearEv
                0x00430d58       0xe0 CMakeFiles\Basic_workflow.dir/objects.a(Can_Implementation.cpp.obj)
                0x00430d58                Can_RxHwObjFifoType::clear()
 .text$_ZN19Can_RxHwObjFifoType7dequeueER11PduInfoTypeR10Can_HwTypej
                0x00430e38      0x130 CMakeFiles\Basic_workflow.dir/objects.a(Can_Implementation.cpp.obj)
                0x00430e38                Can_RxHwObjFifoType::dequeue(PduInfoType&, Can_HwType&, unsigned int)
 .text$_ZN19Can_RxHwObjFifoType7enqueueEPK13Can_Hwp_Framet
                0x00430f68       0xe0 CMakeFiles\Basic_workflow.dir/objects.a(Can_Implementation.cpp.obj)
                0x00430f68                Can_RxHwObjFifoType::enqueue(Can_Hwp_Frame const*, unsigned short)
 .text$_ZN19Can_RxHwObjFifoTypeC1Ev
                0x00431048       0x34 CMakeFiles\Basic_workflow.dir/objects.a(Can_Implementation.cpp.obj)
                0x00431048                Can_RxHwObjFifoType::Can_RxHwObjFifoType()
 .text$_ZN20Can_ChannelStateTypeC1Ev
                0x0043107c       0x84 CMakeFiles\Basic_workflow.dir/objects.a(Can_Implementation.cpp.obj)
                0x0043107c                Can_ChannelStateType::Can_ChannelStateType()
 .text$_ZN20Can_Virtual_TxObjectC1Ev
                0x00431100       0x6c CMakeFiles\Basic_workflow.dir/objects.a(VirtualCan.cpp.obj)
                0x00431100                Can_Virtual_TxObject::Can_Virtual_TxObject()
 .text$_ZN22Can_Virtual_Controller6UpCallE13Can_Hwp_EventtP13Can_Hwp_Frame
                0x0043116c       0x44 CMakeFiles\Basic_workflow.dir/objects.a(VirtualCan.cpp.obj)
                0x0043116c                Can_Virtual_Controller::UpCall(Can_Hwp_Event, unsigned short, Can_Hwp_Frame*)
 .text$_ZN22Can_Virtual_ControllerC1Ev
                0x004311b0      0x12c CMakeFiles\Basic_workflow.dir/objects.a(VirtualCan.cpp.obj)
                0x004311b0                Can_Virtual_Controller::Can_Virtual_Controller()
 .text$_ZN22Can_Virtual_ControllerD1Ev
                0x004312dc       0x84 CMakeFiles\Basic_workflow.dir/objects.a(VirtualCan.cpp.obj)
                0x004312dc                Can_Virtual_Controller::~Can_Virtual_Controller()
 .text$_ZN22Can_Virtual_HwProvider11GetHardwareEPFvj13Can_Hwp_EventtP13Can_Hwp_FrameEjj
                0x00431360       0x88 CMakeFiles\Basic_workflow.dir/objects.a(VirtualCan.cpp.obj)
                0x00431360                Can_Virtual_HwProvider::GetHardware(void (*)(unsigned int, Can_Hwp_Event, unsigned short, Can_Hwp_Frame*), unsigned int, unsigned int)
 .text$_ZN22Can_Virtual_HwProvider14IsHardwareHereEj
                0x004313e8       0x20 CMakeFiles\Basic_workflow.dir/objects.a(VirtualCan.cpp.obj)
                0x004313e8                Can_Virtual_HwProvider::IsHardwareHere(unsigned int)
 .text$_ZN22Can_Virtual_HwProvider17IsHardwarePresentEj
                0x00431408       0x20 CMakeFiles\Basic_workflow.dir/objects.a(VirtualCan.cpp.obj)
                0x00431408                Can_Virtual_HwProvider::IsHardwarePresent(unsigned int)
 .text$_ZN22Can_Virtual_HwProviderD0Ev
                0x00431428       0x28 CMakeFiles\Basic_workflow.dir/objects.a(VirtualCan.cpp.obj)
                0x00431428                Can_Virtual_HwProvider::~Can_Virtual_HwProvider()
 .text$_ZN22Can_Virtual_HwProviderD1Ev
                0x00431450       0x20 CMakeFiles\Basic_workflow.dir/objects.a(VirtualCan.cpp.obj)
                0x00431450                Can_Virtual_HwProvider::~Can_Virtual_HwProvider()
 .text$_ZN26vrtaSystemClockIdleHandler4IdleEj
                0x00431470      0x140 C:/ETAS/RTA-CAR_12.2.0/RTA-CAR/workspace/Basic_Workflow/build/../src/os\RTAOS.lib(vrtaSystemClock.o)
                0x00431470                vrtaSystemClockIdleHandler::Idle(unsigned int)
 .text$_ZN34vrtaCustomTickSourceImplementation4TickEv
                0x004315b0       0x30 C:/ETAS/RTA-CAR_12.2.0/RTA-CAR/workspace/Basic_Workflow/build/../src/os\RTAOS.lib(vrtaSystemClock.o)
                0x004315b0                vrtaCustomTickSourceImplementation::Tick()
 .text$_ZN34vrtaCustomTickSourceImplementationD0Ev
                0x004315e0       0x40 C:/ETAS/RTA-CAR_12.2.0/RTA-CAR/workspace/Basic_Workflow/build/../src/os\RTAOS.lib(vrtaSystemClock.o)
                0x004315e0                vrtaCustomTickSourceImplementation::~vrtaCustomTickSourceImplementation()
 .text$_ZN34vrtaCustomTickSourceImplementationD1Ev
                0x00431620       0x30 C:/ETAS/RTA-CAR_12.2.0/RTA-CAR/workspace/Basic_Workflow/build/../src/os\RTAOS.lib(vrtaSystemClock.o)
                0x00431620                vrtaCustomTickSourceImplementation::~vrtaCustomTickSourceImplementation()
 .text$_ZN6Can_Hw24EnableTransmitProcessingEb
                0x00431650       0x14 CMakeFiles\Basic_workflow.dir/objects.a(VirtualCan.cpp.obj)
                0x00431650                Can_Hw::EnableTransmitProcessing(bool)
 .text$_ZN6Can_Hw4NameEv
                0x00431664       0x14 CMakeFiles\Basic_workflow.dir/objects.a(Can_Implementation.cpp.obj)
                0x00431664                Can_Hw::Name()
 .text$_ZN6Can_HwC2EPFvj13Can_Hwp_EventtP13Can_Hwp_FrameEj
                0x00431678       0x40 CMakeFiles\Basic_workflow.dir/objects.a(VirtualCan.cpp.obj)
                0x00431678                Can_Hw::Can_Hw(void (*)(unsigned int, Can_Hwp_Event, unsigned short, Can_Hwp_Frame*), unsigned int)
 .text$_ZN6Can_HwD2Ev
                0x004316b8       0x18 CMakeFiles\Basic_workflow.dir/objects.a(VirtualCan.cpp.obj)
                0x004316b8                Can_Hw::~Can_Hw()
 .text$_ZN6OsCore10RunningISRER9vrtaEvent
                0x004316d0       0x30 C:/ETAS/RTA-CAR_12.2.0/RTA-CAR/workspace/Basic_Workflow/build/../src/os\RTAOS.lib(vrtaOSMonitorDevice.o)
                0x004316d0                OsCore::RunningISR(vrtaEvent&)
 .text$_ZN6OsCore11RunningTaskER9vrtaEvent
                0x00431700       0x70 C:/ETAS/RTA-CAR_12.2.0/RTA-CAR/workspace/Basic_Workflow/build/../src/os\RTAOS.lib(vrtaOSMonitorDevice.o)
                0x00431700                OsCore::RunningTask(vrtaEvent&)
 .text$_ZN6OsCore13GetDeviceInfoERN13VirtualDevice7OptListE
                0x00431770       0x80 C:/ETAS/RTA-CAR_12.2.0/RTA-CAR/workspace/Basic_Workflow/build/../src/os\RTAOS.lib(vrtaOSMonitorDevice.o)
                0x00431770                OsCore::GetDeviceInfo(VirtualDevice::OptList&)
 .text$_ZN6OsCore15GetDeviceEventsERN13VirtualDevice9EventListE
                0x004317f0      0x240 C:/ETAS/RTA-CAR_12.2.0/RTA-CAR/workspace/Basic_Workflow/build/../src/os\RTAOS.lib(vrtaOSMonitorDevice.o)
                0x004317f0                OsCore::GetDeviceEvents(VirtualDevice::EventList&)
 .text$_ZN6OsCore16GetDeviceActionsERN13VirtualDevice10ActionListE
                0x00431a30       0x70 C:/ETAS/RTA-CAR_12.2.0/RTA-CAR/workspace/Basic_Workflow/build/../src/os\RTAOS.lib(vrtaOSMonitorDevice.o)
                0x00431a30                OsCore::GetDeviceActions(VirtualDevice::ActionList&)
 .text$_ZN6OsCore5AppIDER9vrtaEvent
                0x00431aa0       0x20 C:/ETAS/RTA-CAR_12.2.0/RTA-CAR/workspace/Basic_Workflow/build/../src/os\RTAOS.lib(vrtaOSMonitorDevice.o)
                0x00431aa0                OsCore::AppID(vrtaEvent&)
 .text$_ZN6OsCore5IdlesER9vrtaEvent
                0x00431ac0       0x20 C:/ETAS/RTA-CAR_12.2.0/RTA-CAR/workspace/Basic_Workflow/build/../src/os\RTAOS.lib(vrtaOSMonitorDevice.o)
                0x00431ac0                OsCore::Idles(vrtaEvent&)
 .text$_ZN6OsCore6ParentER9vrtaEvent
                0x00431ae0       0x30 C:/ETAS/RTA-CAR_12.2.0/RTA-CAR/workspace/Basic_Workflow/build/../src/os\RTAOS.lib(vrtaOSMonitorDevice.o)
                0x00431ae0                OsCore::Parent(vrtaEvent&)
 .text$_ZN6OsCore7IdleSetERK10vrtaAction
                0x00431b10       0x10 C:/ETAS/RTA-CAR_12.2.0/RTA-CAR/workspace/Basic_Workflow/build/../src/os\RTAOS.lib(vrtaOSMonitorDevice.o)
                0x00431b10                OsCore::IdleSet(vrtaAction const&)
 .text$_ZN6OsCore9LastErrorER9vrtaEvent
                0x00431b20       0x30 C:/ETAS/RTA-CAR_12.2.0/RTA-CAR/workspace/Basic_Workflow/build/../src/os\RTAOS.lib(vrtaOSMonitorDevice.o)
                0x00431b20                OsCore::LastError(vrtaEvent&)
 .text$_ZN6OsCoreD0Ev
                0x00431b50       0x30 C:/ETAS/RTA-CAR_12.2.0/RTA-CAR/workspace/Basic_Workflow/build/../src/os\RTAOS.lib(vrtaOSMonitorDevice.o)
                0x00431b50                OsCore::~OsCore()
 .text$_ZN6OsCoreD1Ev
                0x00431b80       0x10 C:/ETAS/RTA-CAR_12.2.0/RTA-CAR/workspace/Basic_Workflow/build/../src/os\RTAOS.lib(vrtaOSMonitorDevice.o)
                0x00431b80                OsCore::~OsCore()
 .text$_ZN9CanDevice10StateEventER9vrtaEvent
                0x00431b90       0x34 CMakeFiles\Basic_workflow.dir/objects.a(Can_Device.cpp.obj)
                0x00431b90                CanDevice::StateEvent(vrtaEvent&)
 .text$_ZN9CanDevice11UpdateErrorEij
                0x00431bc4       0x2c CMakeFiles\Basic_workflow.dir/objects.a(Can_Device.cpp.obj)
                0x00431bc4                CanDevice::UpdateError(int, unsigned int)
 .text$_ZN9CanDevice13GetDeviceInfoERN13VirtualDevice7OptListE
                0x00431bf0       0x5c CMakeFiles\Basic_workflow.dir/objects.a(Can_Device.cpp.obj)
                0x00431bf0                CanDevice::GetDeviceInfo(VirtualDevice::OptList&)
 .text$_ZN9CanDevice13RaiseCanStateE16Can_DriverStatus
                0x00431c4c       0x4c CMakeFiles\Basic_workflow.dir/objects.a(Can_Device.cpp.obj)
                0x00431c4c                CanDevice::RaiseCanState(Can_DriverStatus)
 .text$_ZN9CanDevice13UpdateRxEventEitP13Can_Hwp_Frame
                0x00431c98       0x44 CMakeFiles\Basic_workflow.dir/objects.a(Can_Device.cpp.obj)
                0x00431c98                CanDevice::UpdateRxEvent(int, unsigned short, Can_Hwp_Frame*)
 .text$_ZN9CanDevice13UpdateTxEventEitP13Can_Hwp_Frame
                0x00431cdc       0x44 CMakeFiles\Basic_workflow.dir/objects.a(Can_Device.cpp.obj)
                0x00431cdc                CanDevice::UpdateTxEvent(int, unsigned short, Can_Hwp_Frame*)
 .text$_ZN9CanDevice15GetDeviceEventsERN13VirtualDevice9EventListE
                0x00431d20       0x70 CMakeFiles\Basic_workflow.dir/objects.a(Can_Device.cpp.obj)
                0x00431d20                CanDevice::GetDeviceEvents(VirtualDevice::EventList&)
 .text$_ZN9CanDevice16GetDeviceActionsERN13VirtualDevice10ActionListE
                0x00431d90       0x10 CMakeFiles\Basic_workflow.dir/objects.a(Can_Device.cpp.obj)
                0x00431d90                CanDevice::GetDeviceActions(VirtualDevice::ActionList&)
 .text$_ZN9CanDevice16UpdateErrorStateEij
                0x00431da0       0x2c CMakeFiles\Basic_workflow.dir/objects.a(Can_Device.cpp.obj)
                0x00431da0                CanDevice::UpdateErrorState(int, unsigned int)
 .text$_ZN9CanDevice16UpdateStateEventEi14Can_EventStatePKc
                0x00431dcc       0x3c CMakeFiles\Basic_workflow.dir/objects.a(Can_Device.cpp.obj)
                0x00431dcc                CanDevice::UpdateStateEvent(int, Can_EventState, char const*)
 .text$_ZN9CanDevice16UpdateWriteEventEihhtP13Can_Hwp_Frame
                0x00431e08       0x64 CMakeFiles\Basic_workflow.dir/objects.a(Can_Device.cpp.obj)
                0x00431e08                CanDevice::UpdateWriteEvent(int, unsigned char, unsigned char, unsigned short, Can_Hwp_Frame*)
 .text$_ZN9CanDevice17UpdateCurrentTimeEi17Can_TimeStampType
                0x00431e6c       0x30 CMakeFiles\Basic_workflow.dir/objects.a(Can_Device.cpp.obj)
                0x00431e6c                CanDevice::UpdateCurrentTime(int, Can_TimeStampType)
 .text$_ZN9CanDevice22UpdateIngressTimeStampEit17Can_TimeStampType
                0x00431e9c       0x44 CMakeFiles\Basic_workflow.dir/objects.a(Can_Device.cpp.obj)
                0x00431e9c                CanDevice::UpdateIngressTimeStamp(int, unsigned short, Can_TimeStampType)
 .text$_ZN9CanDevice26UpdateEgressTimeStampEventEitt17Can_TimeStampType
                0x00431ee0       0x58 CMakeFiles\Basic_workflow.dir/objects.a(Can_Device.cpp.obj)
                0x00431ee0                CanDevice::UpdateEgressTimeStampEvent(int, unsigned short, unsigned short, Can_TimeStampType)
 .text$_ZN9CanDevice27UpdateEnableEgressTimeStampEith
                0x00431f38       0x48 CMakeFiles\Basic_workflow.dir/objects.a(Can_Device.cpp.obj)
                0x00431f38                CanDevice::UpdateEnableEgressTimeStamp(int, unsigned short, unsigned char)
 .text$_ZN9CanDevice30UpdateControllerRxErrorCounterEih
                0x00431f80       0x34 CMakeFiles\Basic_workflow.dir/objects.a(Can_Device.cpp.obj)
                0x00431f80                CanDevice::UpdateControllerRxErrorCounter(int, unsigned char)
 .text$_ZN9CanDevice30UpdateControllerTxErrorCounterEih
                0x00431fb4       0x34 CMakeFiles\Basic_workflow.dir/objects.a(Can_Device.cpp.obj)
                0x00431fb4                CanDevice::UpdateControllerTxErrorCounter(int, unsigned char)
 .text$_ZN9CanDevice8RaiseIsrEv
                0x00431fe8        0xc CMakeFiles\Basic_workflow.dir/objects.a(Can_Device.cpp.obj)
                0x00431fe8                CanDevice::RaiseIsr()
 .text$_ZN9CanDeviceC1EPKc
                0x00431ff4       0xe8 CMakeFiles\Basic_workflow.dir/objects.a(Can_Device.cpp.obj)
                0x00431ff4                CanDevice::CanDevice(char const*)
 .text$_ZN9CanDeviceD0Ev
                0x004320dc       0x28 CMakeFiles\Basic_workflow.dir/objects.a(Can_Device.cpp.obj)
                0x004320dc                CanDevice::~CanDevice()
 .text$_ZN9CanDeviceD1Ev
                0x00432104       0x20 CMakeFiles\Basic_workflow.dir/objects.a(Can_Device.cpp.obj)
                0x00432104                CanDevice::~CanDevice()
 .text$_ZN9McuDevice11ResetReasonE13Mcu_ResetType
                0x00432124       0xb0 CMakeFiles\Basic_workflow.dir/objects.a(Mcu_Device.cpp.obj)
                0x00432124                McuDevice::ResetReason(Mcu_ResetType)
 .text$_ZN9McuDevice11Reset_countEv
                0x004321d4       0x14 CMakeFiles\Basic_workflow.dir/objects.a(Mcu_Device.cpp.obj)
                0x004321d4                McuDevice::Reset_count()
 .text$_ZN9McuDevice13GetDeviceInfoERN13VirtualDevice7OptListE
                0x004321e8       0x5c CMakeFiles\Basic_workflow.dir/objects.a(Mcu_Device.cpp.obj)
                0x004321e8                McuDevice::GetDeviceInfo(VirtualDevice::OptList&)
 .text$_ZN9McuDevice15GetDeviceEventsERN13VirtualDevice9EventListE
                0x00432244       0xd8 CMakeFiles\Basic_workflow.dir/objects.a(Mcu_Device.cpp.obj)
                0x00432244                McuDevice::GetDeviceEvents(VirtualDevice::EventList&)
 .text$_ZN9McuDevice15ResetCountEventER9vrtaEvent
                0x0043231c       0x30 CMakeFiles\Basic_workflow.dir/objects.a(Mcu_Device.cpp.obj)
                0x0043231c                McuDevice::ResetCountEvent(vrtaEvent&)
 .text$_ZN9McuDevice16GetDeviceActionsERN13VirtualDevice10ActionListE
                0x0043234c       0x70 CMakeFiles\Basic_workflow.dir/objects.a(Mcu_Device.cpp.obj)
                0x0043234c                McuDevice::GetDeviceActions(VirtualDevice::ActionList&)
 .text$_ZN9McuDevice16ResetReasonEventER9vrtaEvent
                0x004323bc       0x34 CMakeFiles\Basic_workflow.dir/objects.a(Mcu_Device.cpp.obj)
                0x004323bc                McuDevice::ResetReasonEvent(vrtaEvent&)
 .text$_ZN9McuDevice17GetPersistentDataEv
                0x004323f0       0x14 CMakeFiles\Basic_workflow.dir/objects.a(Mcu_Device.cpp.obj)
                0x004323f0                McuDevice::GetPersistentData()
 .text$_ZN9McuDevice17InjectResetActionERK10vrtaAction
                0x00432404       0x34 CMakeFiles\Basic_workflow.dir/objects.a(Mcu_Device.cpp.obj)
                0x00432404                McuDevice::InjectResetAction(vrtaAction const&)
 .text$_ZN9McuDevice17SetPersistentDataEPht
                0x00432438       0x20 CMakeFiles\Basic_workflow.dir/objects.a(Mcu_Device.cpp.obj)
                0x00432438                McuDevice::SetPersistentData(unsigned char*, unsigned short)
 .text$_ZN9McuDevice21GetPersistentDataSizeEv
                0x00432458       0x10 CMakeFiles\Basic_workflow.dir/objects.a(Mcu_Device.cpp.obj)
                0x00432458                McuDevice::GetPersistentDataSize()
 .text$_ZN9McuDeviceC1EPKc
                0x00432468       0x94 CMakeFiles\Basic_workflow.dir/objects.a(Mcu_Device.cpp.obj)
                0x00432468                McuDevice::McuDevice(char const*)
 .text$_ZN9McuDeviceD0Ev
                0x004324fc       0x28 CMakeFiles\Basic_workflow.dir/objects.a(Mcu_Device.cpp.obj)
                0x004324fc                McuDevice::~McuDevice()
 .text$_ZN9McuDeviceD1Ev
                0x00432524       0x20 CMakeFiles\Basic_workflow.dir/objects.a(Mcu_Device.cpp.obj)
                0x00432524                McuDevice::~McuDevice()
 *fill*         0x00432544        0xc 
 .text$_ZN9OsMonitor12AppModeEventER9vrtaEvent
                0x00432550       0x30 C:/ETAS/RTA-CAR_12.2.0/RTA-CAR/workspace/Basic_Workflow/build/../src/os\RTAOS.lib(vrtaOSMonitorDevice.o)
                0x00432550                OsMonitor::AppModeEvent(vrtaEvent&)
 .text$_ZN9OsMonitor12TASKInitTaskER9vrtaEvent
                0x00432580       0x50 C:/ETAS/RTA-CAR_12.2.0/RTA-CAR/workspace/Basic_Workflow/build/../src/os\RTAOS.lib(vrtaOSMonitorDevice.o)
                0x00432580                OsMonitor::TASKInitTask(vrtaEvent&)
 .text$_ZN9OsMonitor13GetDeviceInfoERN13VirtualDevice7OptListE
                0x004325d0      0x170 C:/ETAS/RTA-CAR_12.2.0/RTA-CAR/workspace/Basic_Workflow/build/../src/os\RTAOS.lib(vrtaOSMonitorDevice.o)
                0x004325d0                OsMonitor::GetDeviceInfo(VirtualDevice::OptList&)
 .text$_ZN9OsMonitor14TASKOsTask_ASWER9vrtaEvent
                0x00432740       0x50 C:/ETAS/RTA-CAR_12.2.0/RTA-CAR/workspace/Basic_Workflow/build/../src/os\RTAOS.lib(vrtaOSMonitorDevice.o)
                0x00432740                OsMonitor::TASKOsTask_ASW(vrtaEvent&)
 .text$_ZN9OsMonitor14TASKOsTask_BSWER9vrtaEvent
                0x00432790       0x50 C:/ETAS/RTA-CAR_12.2.0/RTA-CAR/workspace/Basic_Workflow/build/../src/os\RTAOS.lib(vrtaOSMonitorDevice.o)
                0x00432790                OsMonitor::TASKOsTask_BSW(vrtaEvent&)
 .text$_ZN9OsMonitor15GetDeviceEventsERN13VirtualDevice9EventListE
                0x004327e0      0x380 C:/ETAS/RTA-CAR_12.2.0/RTA-CAR/workspace/Basic_Workflow/build/../src/os\RTAOS.lib(vrtaOSMonitorDevice.o)
                0x004327e0                OsMonitor::GetDeviceEvents(VirtualDevice::EventList&)
 .text$_ZN9OsMonitor16GetDeviceActionsERN13VirtualDevice10ActionListE
                0x00432b60       0x10 C:/ETAS/RTA-CAR_12.2.0/RTA-CAR/workspace/Basic_Workflow/build/../src/os\RTAOS.lib(vrtaOSMonitorDevice.o)
                0x00432b60                OsMonitor::GetDeviceActions(VirtualDevice::ActionList&)
 .text$_ZN9OsMonitor22CounterRte_TickCounterER9vrtaEvent
                0x00432b70       0x60 C:/ETAS/RTA-CAR_12.2.0/RTA-CAR/workspace/Basic_Workflow/build/../src/os\RTAOS.lib(vrtaOSMonitorDevice.o)
                0x00432b70                OsMonitor::CounterRte_TickCounter(vrtaEvent&)
 .text$_ZN9OsMonitor22TableRte_ScheduleTableER9vrtaEvent
                0x00432bd0       0x60 C:/ETAS/RTA-CAR_12.2.0/RTA-CAR/workspace/Basic_Workflow/build/../src/os\RTAOS.lib(vrtaOSMonitorDevice.o)
                0x00432bd0                OsMonitor::TableRte_ScheduleTable(vrtaEvent&)
 .text$_ZN9OsMonitor23ISRVECU_SystemClock_ISRER9vrtaEvent
                0x00432c30       0x30 C:/ETAS/RTA-CAR_12.2.0/RTA-CAR/workspace/Basic_Workflow/build/../src/os\RTAOS.lib(vrtaOSMonitorDevice.o)
                0x00432c30                OsMonitor::ISRVECU_SystemClock_ISR(vrtaEvent&)
 .text$_ZN9OsMonitorC1EPKc
                0x00432c60      0x120 C:/ETAS/RTA-CAR_12.2.0/RTA-CAR/workspace/Basic_Workflow/build/../src/os\RTAOS.lib(vrtaOSMonitorDevice.o)
                0x00432c60                OsMonitor::OsMonitor(char const*)
 .text$_ZN9OsMonitorD0Ev
                0x00432d80       0x30 C:/ETAS/RTA-CAR_12.2.0/RTA-CAR/workspace/Basic_Workflow/build/../src/os\RTAOS.lib(vrtaOSMonitorDevice.o)
                0x00432d80                OsMonitor::~OsMonitor()
 .text$_ZN9OsMonitorD1Ev
                0x00432db0       0x10 C:/ETAS/RTA-CAR_12.2.0/RTA-CAR/workspace/Basic_Workflow/build/../src/os\RTAOS.lib(vrtaOSMonitorDevice.o)
                0x00432db0                OsMonitor::~OsMonitor()
 .text$_ZN9__gnu_cxx24__concurrence_lock_errorD0Ev
                0x00432dc0       0x30 c:/mingw/bin/../lib/gcc/mingw32/6.3.0\libstdc++.a(eh_alloc.o)
                0x00432dc0                __gnu_cxx::__concurrence_lock_error::~__concurrence_lock_error()
 .text$_ZN9__gnu_cxx24__concurrence_lock_errorD1Ev
                0x00432df0       0x10 c:/mingw/bin/../lib/gcc/mingw32/6.3.0\libstdc++.a(eh_alloc.o)
                0x00432df0                __gnu_cxx::__concurrence_lock_error::~__concurrence_lock_error()
 .text$_ZN9__gnu_cxx26__concurrence_unlock_errorD0Ev
                0x00432e00       0x30 c:/mingw/bin/../lib/gcc/mingw32/6.3.0\libstdc++.a(eh_alloc.o)
                0x00432e00                __gnu_cxx::__concurrence_unlock_error::~__concurrence_unlock_error()
 .text$_ZN9__gnu_cxx26__concurrence_unlock_errorD1Ev
                0x00432e30       0x10 c:/mingw/bin/../lib/gcc/mingw32/6.3.0\libstdc++.a(eh_alloc.o)
                0x00432e30                __gnu_cxx::__concurrence_unlock_error::~__concurrence_unlock_error()
 .text$_ZN9__gnu_cxx27__verbose_terminate_handlerEv
                0x00432e40      0x1b0 c:/mingw/bin/../lib/gcc/mingw32/6.3.0\libstdc++.a(vterminate.o)
                0x00432e40                __gnu_cxx::__verbose_terminate_handler()
 .text$_ZN9__gnu_cxx30__throw_concurrence_lock_errorEv
                0x00432ff0       0x30 c:/mingw/bin/../lib/gcc/mingw32/6.3.0\libstdc++.a(eh_alloc.o)
                0x00432ff0                __gnu_cxx::__throw_concurrence_lock_error()
 .text$_ZN9__gnu_cxx9__freeresEv
                0x00433020       0x30 c:/mingw/bin/../lib/gcc/mingw32/6.3.0\libstdc++.a(eh_alloc.o)
                0x00433020                __gnu_cxx::__freeres()
 .text$_ZN9vrtaClockD0Ev
                0x00433050       0x50 C:/ETAS/RTA-CAR_12.2.0/RTA-CAR/workspace/Basic_Workflow/build/../src/os\RTAOS.lib(vrtaSampleDevices.o)
                0x00433050                vrtaClock::~vrtaClock()
 .text$_ZN9vrtaClockD1Ev
                0x004330a0       0x2c CMakeFiles\Basic_workflow.dir/objects.a(VRTA_SystemClock.cpp.obj)
                0x004330a0                vrtaClock::~vrtaClock()
 *fill*         0x004330cc        0x4 
 .text$_ZNK10__cxxabiv117__class_type_info10__do_catchEPKSt9type_infoPPvj
                0x004330d0       0x50 c:/mingw/bin/../lib/gcc/mingw32/6.3.0\libstdc++.a(class_type_info.o)
                0x004330d0                __cxxabiv1::__class_type_info::__do_catch(std::type_info const*, void**, unsigned int) const
 .text$_ZNK10__cxxabiv117__class_type_info11__do_upcastEPKS0_PKvRNS0_15__upcast_resultE
                0x00433120       0x40 c:/mingw/bin/../lib/gcc/mingw32/6.3.0\libstdc++.a(class_type_info.o)
                0x00433120                __cxxabiv1::__class_type_info::__do_upcast(__cxxabiv1::__class_type_info const*, void const*, __cxxabiv1::__class_type_info::__upcast_result&) const
 .text$_ZNK10__cxxabiv117__class_type_info11__do_upcastEPKS0_PPv
                0x00433160       0x70 c:/mingw/bin/../lib/gcc/mingw32/6.3.0\libstdc++.a(class_type_info.o)
                0x00433160                __cxxabiv1::__class_type_info::__do_upcast(__cxxabiv1::__class_type_info const*, void**) const
 .text$_ZNK10__cxxabiv117__class_type_info12__do_dyncastEiNS0_10__sub_kindEPKS0_PKvS3_S5_RNS0_16__dyncast_resultE
                0x004331d0       0x80 c:/mingw/bin/../lib/gcc/mingw32/6.3.0\libstdc++.a(class_type_info.o)
                0x004331d0                __cxxabiv1::__class_type_info::__do_dyncast(int, __cxxabiv1::__class_type_info::__sub_kind, __cxxabiv1::__class_type_info const*, void const*, __cxxabiv1::__class_type_info const*, void const*, __cxxabiv1::__class_type_info::__dyncast_result&) const
 .text$_ZNK10__cxxabiv117__class_type_info20__do_find_public_srcEiPKvPKS0_S2_
                0x00433250       0x20 c:/mingw/bin/../lib/gcc/mingw32/6.3.0\libstdc++.a(class_type_info.o)
                0x00433250                __cxxabiv1::__class_type_info::__do_find_public_src(int, void const*, __cxxabiv1::__class_type_info const*, void const*) const
 .text$_ZNK10__cxxabiv120__si_class_type_info11__do_upcastEPKNS_17__class_type_infoEPKvRNS1_15__upcast_resultE
                0x00433270       0x60 c:/mingw/bin/../lib/gcc/mingw32/6.3.0\libstdc++.a(si_class_type_info.o)
                0x00433270                __cxxabiv1::__si_class_type_info::__do_upcast(__cxxabiv1::__class_type_info const*, void const*, __cxxabiv1::__class_type_info::__upcast_result&) const
 .text$_ZNK10__cxxabiv120__si_class_type_info12__do_dyncastEiNS_17__class_type_info10__sub_kindEPKS1_PKvS4_S6_RNS1_16__dyncast_resultE
                0x004332d0       0xf0 c:/mingw/bin/../lib/gcc/mingw32/6.3.0\libstdc++.a(si_class_type_info.o)
                0x004332d0                __cxxabiv1::__si_class_type_info::__do_dyncast(int, __cxxabiv1::__class_type_info::__sub_kind, __cxxabiv1::__class_type_info const*, void const*, __cxxabiv1::__class_type_info const*, void const*, __cxxabiv1::__class_type_info::__dyncast_result&) const
 .text$_ZNK10__cxxabiv120__si_class_type_info20__do_find_public_srcEiPKvPKNS_17__class_type_infoES2_
                0x004333c0       0x70 c:/mingw/bin/../lib/gcc/mingw32/6.3.0\libstdc++.a(si_class_type_info.o)
                0x004333c0                __cxxabiv1::__si_class_type_info::__do_find_public_src(int, void const*, __cxxabiv1::__class_type_info const*, void const*) const
 .text$_ZNK10__cxxabiv121__vmi_class_type_info11__do_upcastEPKNS_17__class_type_infoEPKvRNS1_15__upcast_resultE
                0x00433430      0x240 c:/mingw/bin/../lib/gcc/mingw32/6.3.0\libstdc++.a(vmi_class_type_info.o)
                0x00433430                __cxxabiv1::__vmi_class_type_info::__do_upcast(__cxxabiv1::__class_type_info const*, void const*, __cxxabiv1::__class_type_info::__upcast_result&) const
 .text$_ZNK10__cxxabiv121__vmi_class_type_info12__do_dyncastEiNS_17__class_type_info10__sub_kindEPKS1_PKvS4_S6_RNS1_16__dyncast_resultE
                0x00433670      0x6f0 c:/mingw/bin/../lib/gcc/mingw32/6.3.0\libstdc++.a(vmi_class_type_info.o)
                0x00433670                __cxxabiv1::__vmi_class_type_info::__do_dyncast(int, __cxxabiv1::__class_type_info::__sub_kind, __cxxabiv1::__class_type_info const*, void const*, __cxxabiv1::__class_type_info const*, void const*, __cxxabiv1::__class_type_info::__dyncast_result&) const
 .text$_ZNK10__cxxabiv121__vmi_class_type_info20__do_find_public_srcEiPKvPKNS_17__class_type_infoES2_
                0x00433d60       0xd0 c:/mingw/bin/../lib/gcc/mingw32/6.3.0\libstdc++.a(vmi_class_type_info.o)
                0x00433d60                __cxxabiv1::__vmi_class_type_info::__do_find_public_src(int, void const*, __cxxabiv1::__class_type_info const*, void const*) const
 .text$_ZNK19Can_RxHwObjFifoType7isEmptyEv
                0x00433e30       0x40 CMakeFiles\Basic_workflow.dir/objects.a(Can_Implementation.cpp.obj)
                0x00433e30                Can_RxHwObjFifoType::isEmpty() const
 .text$_ZNK9__gnu_cxx24__concurrence_lock_error4whatEv
                0x00433e70       0x10 c:/mingw/bin/../lib/gcc/mingw32/6.3.0\libstdc++.a(eh_alloc.o)
                0x00433e70                __gnu_cxx::__concurrence_lock_error::what() const
 .text$_ZNK9__gnu_cxx26__concurrence_unlock_error4whatEv
                0x00433e80       0x10 c:/mingw/bin/../lib/gcc/mingw32/6.3.0\libstdc++.a(eh_alloc.o)
                0x00433e80                __gnu_cxx::__concurrence_unlock_error::what() const
 .text$_ZNKSt10bad_typeid4whatEv
                0x00433e90       0x10 c:/mingw/bin/../lib/gcc/mingw32/6.3.0\libstdc++.a(bad_typeid.o)
                0x00433e90                std::bad_typeid::what() const
 .text$_ZNKSt20bad_array_new_length4whatEv
                0x00433ea0       0x10 c:/mingw/bin/../lib/gcc/mingw32/6.3.0\libstdc++.a(bad_array_new.o)
                0x00433ea0                std::bad_array_new_length::what() const
 .text$_ZNKSt8bad_cast4whatEv
                0x00433eb0       0x10 c:/mingw/bin/../lib/gcc/mingw32/6.3.0\libstdc++.a(bad_cast.o)
                0x00433eb0                std::bad_cast::what() const
 .text$_ZNKSt9bad_alloc4whatEv
                0x00433ec0       0x10 c:/mingw/bin/../lib/gcc/mingw32/6.3.0\libstdc++.a(bad_alloc.o)
                0x00433ec0                std::bad_alloc::what() const
 .text$_ZNKSt9type_info10__do_catchEPKS_PPvj
                0x00433ed0       0x20 c:/mingw/bin/../lib/gcc/mingw32/6.3.0\libstdc++.a(tinfo.o)
                0x00433ed0                std::type_info::__do_catch(std::type_info const*, void**, unsigned int) const
 .text$_ZNKSt9type_info11__do_upcastEPKN10__cxxabiv117__class_type_infoEPPv
                0x00433ef0       0x10 c:/mingw/bin/../lib/gcc/mingw32/6.3.0\libstdc++.a(tinfo.o)
                0x00433ef0                std::type_info::__do_upcast(__cxxabiv1::__class_type_info const*, void**) const
 .text$_ZNKSt9type_info15__is_function_pEv
                0x00433f00       0x10 c:/mingw/bin/../lib/gcc/mingw32/6.3.0\libstdc++.a(tinfo.o)
                0x00433f00                std::type_info::__is_function_p() const
                0x00433f00                std::type_info::__is_pointer_p() const
 .text$_ZNKSt9type_infoeqERKS_
                0x00433f10       0x60 c:/mingw/bin/../lib/gcc/mingw32/6.3.0\libstdc++.a(tinfo.o)
                0x00433f10                std::type_info::operator==(std::type_info const&) const
 .text$_ZNSt10bad_typeidD0Ev
                0x00433f70       0x30 c:/mingw/bin/../lib/gcc/mingw32/6.3.0\libstdc++.a(bad_typeid.o)
                0x00433f70                std::bad_typeid::~bad_typeid()
 .text$_ZNSt10bad_typeidD2Ev
                0x00433fa0       0x10 c:/mingw/bin/../lib/gcc/mingw32/6.3.0\libstdc++.a(bad_typeid.o)
                0x00433fa0                std::bad_typeid::~bad_typeid()
                0x00433fa0                std::bad_typeid::~bad_typeid()
 .text$_ZNSt13bad_exceptionD0Ev
                0x00433fb0       0x20 c:/mingw/bin/../lib/gcc/mingw32/6.3.0\libstdc++.a(eh_exception.o)
                0x00433fb0                std::bad_exception::~bad_exception()
 .text$_ZNSt13bad_exceptionD2Ev
                0x00433fd0       0x10 c:/mingw/bin/../lib/gcc/mingw32/6.3.0\libstdc++.a(eh_exception.o)
                0x00433fd0                std::bad_exception::~bad_exception()
                0x00433fd0                std::bad_exception::~bad_exception()
 .text$_ZNSt20bad_array_new_lengthD0Ev
                0x00433fe0       0x20 c:/mingw/bin/../lib/gcc/mingw32/6.3.0\libstdc++.a(bad_array_new.o)
                0x00433fe0                std::bad_array_new_length::~bad_array_new_length()
 .text$_ZNSt20bad_array_new_lengthD2Ev
                0x00434000       0x10 c:/mingw/bin/../lib/gcc/mingw32/6.3.0\libstdc++.a(bad_array_new.o)
                0x00434000                std::bad_array_new_length::~bad_array_new_length()
                0x00434000                std::bad_array_new_length::~bad_array_new_length()
 .text$_ZNSt8bad_castD0Ev
                0x00434010       0x30 c:/mingw/bin/../lib/gcc/mingw32/6.3.0\libstdc++.a(bad_cast.o)
                0x00434010                std::bad_cast::~bad_cast()
 .text$_ZNSt8bad_castD2Ev
                0x00434040       0x10 c:/mingw/bin/../lib/gcc/mingw32/6.3.0\libstdc++.a(bad_cast.o)
                0x00434040                std::bad_cast::~bad_cast()
                0x00434040                std::bad_cast::~bad_cast()
 .text$_ZNSt9bad_allocD0Ev
                0x00434050       0x30 c:/mingw/bin/../lib/gcc/mingw32/6.3.0\libstdc++.a(bad_alloc.o)
                0x00434050                std::bad_alloc::~bad_alloc()
 .text$_ZNSt9bad_allocD2Ev
                0x00434080       0x10 c:/mingw/bin/../lib/gcc/mingw32/6.3.0\libstdc++.a(bad_alloc.o)
                0x00434080                std::bad_alloc::~bad_alloc()
                0x00434080                std::bad_alloc::~bad_alloc()
 .text$_ZNSt9exceptionD0Ev
                0x00434090       0x20 c:/mingw/bin/../lib/gcc/mingw32/6.3.0\libstdc++.a(eh_exception.o)
                0x00434090                std::exception::~exception()
 .text$_ZNSt9exceptionD2Ev
                0x004340b0       0x10 c:/mingw/bin/../lib/gcc/mingw32/6.3.0\libstdc++.a(eh_exception.o)
                0x004340b0                std::exception::~exception()
                0x004340b0                std::exception::~exception()
 .text$_ZNSt9type_infoD0Ev
                0x004340c0       0x20 c:/mingw/bin/../lib/gcc/mingw32/6.3.0\libstdc++.a(tinfo.o)
                0x004340c0                std::type_info::~type_info()
 .text$_ZNSt9type_infoD2Ev
                0x004340e0       0x10 c:/mingw/bin/../lib/gcc/mingw32/6.3.0\libstdc++.a(tinfo.o)
                0x004340e0                std::type_info::~type_info()
                0x004340e0                std::type_info::~type_info()
 .text$_ZSt10unexpectedv
                0x004340f0       0x10 c:/mingw/bin/../lib/gcc/mingw32/6.3.0\libstdc++.a(eh_terminate.o)
                0x004340f0                std::unexpected()
 .text$_ZSt13get_terminatev
                0x00434100       0x10 c:/mingw/bin/../lib/gcc/mingw32/6.3.0\libstdc++.a(eh_terminate.o)
                0x00434100                std::get_terminate()
 .text$_ZSt13set_terminatePFvvE
                0x00434110       0x10 c:/mingw/bin/../lib/gcc/mingw32/6.3.0\libstdc++.a(eh_terminate.o)
                0x00434110                std::set_terminate(void (*)())
 .text$_ZSt14get_unexpectedv
                0x00434120       0x10 c:/mingw/bin/../lib/gcc/mingw32/6.3.0\libstdc++.a(eh_terminate.o)
                0x00434120                std::get_unexpected()
 .text$_ZSt14set_unexpectedPFvvE
                0x00434130       0x10 c:/mingw/bin/../lib/gcc/mingw32/6.3.0\libstdc++.a(eh_terminate.o)
                0x00434130                std::set_unexpected(void (*)())
 .text$_ZSt15get_new_handlerv
                0x00434140       0x10 c:/mingw/bin/../lib/gcc/mingw32/6.3.0\libstdc++.a(new_handler.o)
                0x00434140                std::get_new_handler()
 .text$_ZSt15set_new_handlerPFvvE
                0x00434150       0x10 c:/mingw/bin/../lib/gcc/mingw32/6.3.0\libstdc++.a(new_handler.o)
                0x00434150                std::set_new_handler(void (*)())
 .text$_ZSt18uncaught_exceptionv
                0x00434160       0x20 c:/mingw/bin/../lib/gcc/mingw32/6.3.0\libstdc++.a(eh_catch.o)
                0x00434160                std::uncaught_exception()
 .text$_ZSt19uncaught_exceptionsv
                0x00434180       0x10 c:/mingw/bin/../lib/gcc/mingw32/6.3.0\libstdc++.a(eh_catch.o)
                0x00434180                std::uncaught_exceptions()
 .text$_ZSt9terminatev
                0x00434190       0x10 c:/mingw/bin/../lib/gcc/mingw32/6.3.0\libstdc++.a(eh_terminate.o)
                0x00434190                std::terminate()
 .text$_ZThn36_N17vrtaAdaptiveClockD0Ev
                0x004341a0       0x10 C:/ETAS/RTA-CAR_12.2.0/RTA-CAR/workspace/Basic_Workflow/build/../src/os\RTAOS.lib(vrtaSampleDevices.o)
                0x004341a0                non-virtual thunk to vrtaAdaptiveClock::~vrtaAdaptiveClock()
 .text$_ZThn36_N17vrtaAdaptiveClockD1Ev
                0x004341b0       0x10 C:/ETAS/RTA-CAR_12.2.0/RTA-CAR/workspace/Basic_Workflow/build/../src/os\RTAOS.lib(vrtaSampleDevices.o)
                0x004341b0                non-virtual thunk to vrtaAdaptiveClock::~vrtaAdaptiveClock()
 .text$_ZThn36_N9vrtaClockD0Ev
                0x004341c0       0x10 C:/ETAS/RTA-CAR_12.2.0/RTA-CAR/workspace/Basic_Workflow/build/../src/os\RTAOS.lib(vrtaSampleDevices.o)
                0x004341c0                non-virtual thunk to vrtaClock::~vrtaClock()
 .text$_ZThn36_N9vrtaClockD1Ev
                0x004341d0        0x8 CMakeFiles\Basic_workflow.dir/objects.a(VRTA_SystemClock.cpp.obj)
                0x004341d0                non-virtual thunk to vrtaClock::~vrtaClock()
 *fill*         0x004341d8        0x8 
 .text$_ZdaPv   0x004341e0       0x10 c:/mingw/bin/../lib/gcc/mingw32/6.3.0\libstdc++.a(del_opv.o)
                0x004341e0                operator delete[](void*)
 .text$_ZdaPvj  0x004341f0       0x10 c:/mingw/bin/../lib/gcc/mingw32/6.3.0\libstdc++.a(del_opvs.o)
                0x004341f0                operator delete[](void*, unsigned int)
 .text$_ZdlPv   0x00434200       0x10 c:/mingw/bin/../lib/gcc/mingw32/6.3.0\libstdc++.a(del_op.o)
                0x00434200                operator delete(void*)
 .text$_ZdlPvj  0x00434210       0x10 c:/mingw/bin/../lib/gcc/mingw32/6.3.0\libstdc++.a(del_ops.o)
                0x00434210                operator delete(void*, unsigned int)
 .text$_Znaj    0x00434220       0x10 c:/mingw/bin/../lib/gcc/mingw32/6.3.0\libstdc++.a(new_opv.o)
                0x00434220                operator new[](unsigned int)
 .text$_Znwj    0x00434230       0x60 c:/mingw/bin/../lib/gcc/mingw32/6.3.0\libstdc++.a(new_op.o)
                0x00434230                operator new(unsigned int)
 .text$__cxa_allocate_dependent_exception
                0x00434290       0x60 c:/mingw/bin/../lib/gcc/mingw32/6.3.0\libstdc++.a(eh_alloc.o)
                0x00434290                __cxa_allocate_dependent_exception
 .text$__cxa_allocate_exception
                0x004342f0       0x60 c:/mingw/bin/../lib/gcc/mingw32/6.3.0\libstdc++.a(eh_alloc.o)
                0x004342f0                __cxa_allocate_exception
 .text$__cxa_bad_cast
                0x00434350       0x30 c:/mingw/bin/../lib/gcc/mingw32/6.3.0\libstdc++.a(eh_aux_runtime.o)
                0x00434350                __cxa_bad_cast
 .text$__cxa_bad_typeid
                0x00434380       0x30 c:/mingw/bin/../lib/gcc/mingw32/6.3.0\libstdc++.a(eh_aux_runtime.o)
                0x00434380                __cxa_bad_typeid
 .text$__cxa_begin_catch
                0x004343b0       0x70 c:/mingw/bin/../lib/gcc/mingw32/6.3.0\libstdc++.a(eh_catch.o)
                0x004343b0                __cxa_begin_catch
 .text$__cxa_call_terminate
                0x00434420       0x50 c:/mingw/bin/../lib/gcc/mingw32/6.3.0\libstdc++.a(eh_call.o)
                0x00434420                __cxa_call_terminate
 .text$__cxa_call_unexpected
                0x00434470       0xd0 c:/mingw/bin/../lib/gcc/mingw32/6.3.0\libstdc++.a(eh_personality.o)
                0x00434470                __cxa_call_unexpected
 .text$__cxa_current_exception_type
                0x00434540       0x40 c:/mingw/bin/../lib/gcc/mingw32/6.3.0\libstdc++.a(eh_type.o)
                0x00434540                __cxa_current_exception_type
 .text$__cxa_deleted_virtual
                0x00434580       0x30 c:/mingw/bin/../lib/gcc/mingw32/6.3.0\libstdc++.a(pure.o)
                0x00434580                __cxa_deleted_virtual
 .text$__cxa_end_catch
                0x004345b0       0x90 c:/mingw/bin/../lib/gcc/mingw32/6.3.0\libstdc++.a(eh_catch.o)
                0x004345b0                __cxa_end_catch
 .text$__cxa_free_dependent_exception
                0x00434640       0x30 c:/mingw/bin/../lib/gcc/mingw32/6.3.0\libstdc++.a(eh_alloc.o)
                0x00434640                __cxa_free_dependent_exception
 .text$__cxa_free_exception
                0x00434670       0x30 c:/mingw/bin/../lib/gcc/mingw32/6.3.0\libstdc++.a(eh_alloc.o)
                0x00434670                __cxa_free_exception
 .text$__cxa_get_exception_ptr
                0x004346a0       0x10 c:/mingw/bin/../lib/gcc/mingw32/6.3.0\libstdc++.a(eh_catch.o)
                0x004346a0                __cxa_get_exception_ptr
 .text$__cxa_get_globals
                0x004346b0       0x80 c:/mingw/bin/../lib/gcc/mingw32/6.3.0\libstdc++.a(eh_globals.o)
                0x004346b0                __cxa_get_globals
 .text$__cxa_get_globals_fast
                0x00434730       0x30 c:/mingw/bin/../lib/gcc/mingw32/6.3.0\libstdc++.a(eh_globals.o)
                0x00434730                __cxa_get_globals_fast
 .text$__cxa_pure_virtual
                0x00434760       0x30 c:/mingw/bin/../lib/gcc/mingw32/6.3.0\libstdc++.a(pure.o)
                0x00434760                __cxa_pure_virtual
 .text$__cxa_rethrow
                0x00434790       0x60 c:/mingw/bin/../lib/gcc/mingw32/6.3.0\libstdc++.a(eh_throw.o)
                0x00434790                __cxa_rethrow
 .text$__cxa_throw
                0x004347f0       0x70 c:/mingw/bin/../lib/gcc/mingw32/6.3.0\libstdc++.a(eh_throw.o)
                0x004347f0                __cxa_throw
 .text$__cxa_throw_bad_array_new_length
                0x00434860       0x30 c:/mingw/bin/../lib/gcc/mingw32/6.3.0\libstdc++.a(eh_aux_runtime.o)
                0x00434860                __cxa_throw_bad_array_new_length
 .text$__gxx_personality_v0
                0x00434890      0x600 c:/mingw/bin/../lib/gcc/mingw32/6.3.0\libstdc++.a(eh_personality.o)
                0x00434890                __gxx_personality_v0
 .text$__tcf_0  0x00434e90       0x30 c:/mingw/bin/../lib/gcc/mingw32/6.3.0\libstdc++.a(eh_alloc.o)
 .text$__tcf_0  0x00434ec0       0x30 c:/mingw/bin/../lib/gcc/mingw32/6.3.0\libstdc++.a(eh_globals.o)
 *(.text.*)
 .text.startup  0x00434ef0       0x10 C:/ETAS/RTA-CAR_12.2.0/RTA-CAR/workspace/Basic_Workflow/build/../src/os\RTAOS.lib(vrtaSystemClock.o)
 .text.startup  0x00434f00       0x30 C:/ETAS/RTA-CAR_12.2.0/RTA-CAR/workspace/Basic_Workflow/build/../src/os\RTAOS.lib(vrtaPrintf.o)
 .text.startup  0x00434f30       0x20 C:/ETAS/RTA-CAR_12.2.0/RTA-CAR/workspace/Basic_Workflow/build/../src/os\RTAOS.lib(vrtaCore.o)
 .text.startup  0x00434f50       0xb0 C:/ETAS/RTA-CAR_12.2.0/RTA-CAR/workspace/Basic_Workflow/build/../src/os\RTAOS.lib(vrtaAppMain.o)
                0x00434f50                main
 .text.startup  0x00435000       0xe0 C:/ETAS/RTA-CAR_12.2.0/RTA-CAR/workspace/Basic_Workflow/build/../src/os\RTAOS.lib(vrtaSystemClockDevice.o)
 .text.startup  0x004350e0       0x30 C:/ETAS/RTA-CAR_12.2.0/RTA-CAR/workspace/Basic_Workflow/build/../src/os\RTAOS.lib(vrtaOSMonitorDevice.o)
 .text.startup._GLOBAL__sub_I__ZN9__gnu_cxx9__freeresEv
                0x00435110       0x80 c:/mingw/bin/../lib/gcc/mingw32/6.3.0\libstdc++.a(eh_alloc.o)
 .text.startup._GLOBAL__sub_I___cxa_get_globals_fast
                0x00435190       0x50 c:/mingw/bin/../lib/gcc/mingw32/6.3.0\libstdc++.a(eh_globals.o)
 .text.startup  0x004351e0       0x10 c:/mingw/bin/../lib/gcc/mingw32/6.3.0/crtend.o
 *(.gnu.linkonce.t.*)
 *(.glue_7t)
 *(.glue_7)
                0x004351f0                ___CTOR_LIST__ = .
                0x004351f0                __CTOR_LIST__ = .
                0x004351f0        0x4 LONG 0xffffffff
 *(.ctors)
 .ctors         0x004351f4        0x4 CMakeFiles\Basic_workflow.dir/objects.a(Can_Device.cpp.obj)
 .ctors         0x004351f8        0x4 CMakeFiles\Basic_workflow.dir/objects.a(Mcu_Device.cpp.obj)
 .ctors         0x004351fc        0x4 CMakeFiles\Basic_workflow.dir/objects.a(VirtualCan.cpp.obj)
 .ctors         0x00435200        0x4 CMakeFiles\Basic_workflow.dir/objects.a(VRTA_SystemClock.cpp.obj)
 .ctors         0x00435204        0x4 C:/ETAS/RTA-CAR_12.2.0/RTA-CAR/workspace/Basic_Workflow/build/../src/os\RTAOS.lib(vrtaSystemClock.o)
 .ctors         0x00435208        0x4 C:/ETAS/RTA-CAR_12.2.0/RTA-CAR/workspace/Basic_Workflow/build/../src/os\RTAOS.lib(vrtaPrintf.o)
 .ctors         0x0043520c        0x4 C:/ETAS/RTA-CAR_12.2.0/RTA-CAR/workspace/Basic_Workflow/build/../src/os\RTAOS.lib(vrtaCore.o)
 .ctors         0x00435210        0x4 C:/ETAS/RTA-CAR_12.2.0/RTA-CAR/workspace/Basic_Workflow/build/../src/os\RTAOS.lib(vrtaSystemClockDevice.o)
 .ctors         0x00435214        0x4 C:/ETAS/RTA-CAR_12.2.0/RTA-CAR/workspace/Basic_Workflow/build/../src/os\RTAOS.lib(vrtaOSMonitorDevice.o)
 .ctors         0x00435218        0x4 c:/mingw/bin/../lib/gcc/mingw32/6.3.0\libstdc++.a(eh_alloc.o)
 .ctors         0x0043521c        0x4 c:/mingw/bin/../lib/gcc/mingw32/6.3.0\libstdc++.a(eh_globals.o)
 *(.ctor)
 *(SORT(.ctors.*))
 .ctors.65535   0x00435220        0x4 c:/mingw/bin/../lib/gcc/mingw32/6.3.0/crtend.o
                0x00435224        0x4 LONG 0x0
                0x00435228                ___DTOR_LIST__ = .
                0x00435228                __DTOR_LIST__ = .
                0x00435228        0x4 LONG 0xffffffff
 *(.dtors)
 *(.dtor)
 *(SORT(.dtors.*))
                0x0043522c        0x4 LONG 0x0
 *(.fini)
 *(.gcc_exc)
                [!provide]                PROVIDE (etext, .)
                [!provide]                PROVIDE (_etext, .)
 *(.gcc_except_table)
 .gcc_except_table
                0x00435230       0x2c CMakeFiles\Basic_workflow.dir/objects.a(Can_Device.cpp.obj)
 .gcc_except_table
                0x0043525c       0x14 CMakeFiles\Basic_workflow.dir/objects.a(Mcu_Device.cpp.obj)
 .gcc_except_table
                0x00435270       0x20 CMakeFiles\Basic_workflow.dir/objects.a(VirtualCan.cpp.obj)
 .gcc_except_table
                0x00435290       0x48 C:/ETAS/RTA-CAR_12.2.0/RTA-CAR/workspace/Basic_Workflow/build/../src/os\RTAOS.lib(vrtaSystemClock.o)
 .gcc_except_table
                0x004352d8       0x18 C:/ETAS/RTA-CAR_12.2.0/RTA-CAR/workspace/Basic_Workflow/build/../src/os\RTAOS.lib(vrtaSampleDevices.o)
 .gcc_except_table
                0x004352f0       0x60 C:/ETAS/RTA-CAR_12.2.0/RTA-CAR/workspace/Basic_Workflow/build/../src/os\RTAOS.lib(vrtaCore.o)
 .gcc_except_table
                0x00435350       0x8c C:/ETAS/RTA-CAR_12.2.0/RTA-CAR/workspace/Basic_Workflow/build/../src/os\RTAOS.lib(virtualDevice.o)
 .gcc_except_table
                0x004353dc       0x20 C:/ETAS/RTA-CAR_12.2.0/RTA-CAR/workspace/Basic_Workflow/build/../src/os\RTAOS.lib(vrtaSystemClockDevice.o)
 .gcc_except_table
                0x004353fc       0x30 C:/ETAS/RTA-CAR_12.2.0/RTA-CAR/workspace/Basic_Workflow/build/../src/os\RTAOS.lib(vrtaOSMonitorDevice.o)
 .gcc_except_table
                0x0043542c       0x38 c:/mingw/bin/../lib/gcc/mingw32/6.3.0\libstdc++.a(eh_personality.o)
 .gcc_except_table
                0x00435464       0x10 c:/mingw/bin/../lib/gcc/mingw32/6.3.0\libstdc++.a(eh_terminate.o)
 .gcc_except_table
                0x00435474       0x48 c:/mingw/bin/../lib/gcc/mingw32/6.3.0\libstdc++.a(eh_alloc.o)
 .gcc_except_table
                0x004354bc        0xc c:/mingw/bin/../lib/gcc/mingw32/6.3.0\libstdc++.a(eh_globals.o)
 .gcc_except_table
                0x004354c8       0x20 c:/mingw/bin/../lib/gcc/mingw32/6.3.0\libstdc++.a(vterminate.o)

.data           0x00436000      0x600
                0x00436000                __data_start__ = .
 *(.data)
 .data          0x00436000        0x0 c:/mingw/bin/../lib/gcc/mingw32/6.3.0/../../../crt2.o
 .data          0x00436000        0x4 c:/mingw/bin/../lib/gcc/mingw32/6.3.0/crtbegin.o
 *fill*         0x00436004       0x1c 
 .data          0x00436020       0x20 CMakeFiles\Basic_workflow.dir/objects.a(unity_4_c.c.obj)
                0x00436020                Can_ConfigData
 .data          0x00436040        0x0 CMakeFiles\Basic_workflow.dir/objects.a(unity_3_c.c.obj)
 .data          0x00436040        0x0 CMakeFiles\Basic_workflow.dir/objects.a(unity_2_c.c.obj)
 .data          0x00436040        0x0 CMakeFiles\Basic_workflow.dir/objects.a(unity_1_c.c.obj)
 .data          0x00436040      0x4c0 CMakeFiles\Basic_workflow.dir/objects.a(unity_0_c.c.obj)
                0x00436040                BswM_Prv_DeferredReqstInfo_ast
                0x00436080                BswM_GetDelayedReqInfo_capfct
                0x00436100                BswM_Prv_RuleState_aen
 .data          0x00436500        0x4 CMakeFiles\Basic_workflow.dir/objects.a(MySWC.c.obj)
 .data          0x00436504        0x0 CMakeFiles\Basic_workflow.dir/objects.a(Det.c.obj)
 .data          0x00436504        0x0 CMakeFiles\Basic_workflow.dir/objects.a(EcuM_Cfg.c.obj)
 .data          0x00436504        0x0 CMakeFiles\Basic_workflow.dir/objects.a(EcuM_Cfg_PbExt.c.obj)
 .data          0x00436504        0x0 CMakeFiles\Basic_workflow.dir/objects.a(EcuM_Cfg_RbMo.c.obj)
 .data          0x00436504        0x0 CMakeFiles\Basic_workflow.dir/objects.a(EcuM_Cfg_Shutdown.c.obj)
 .data          0x00436504        0x0 CMakeFiles\Basic_workflow.dir/objects.a(EcuM_Cfg_Sleep.c.obj)
 .data          0x00436504        0x0 CMakeFiles\Basic_workflow.dir/objects.a(EcuM_Cfg_Startup.c.obj)
 .data          0x00436504        0x0 CMakeFiles\Basic_workflow.dir/objects.a(EcuM_Cfg_SynchPoint.c.obj)
 .data          0x00436504        0x0 CMakeFiles\Basic_workflow.dir/objects.a(EcuM_Lcfg.c.obj)
 .data          0x00436504        0x0 CMakeFiles\Basic_workflow.dir/objects.a(EcuM_PBcfg.c.obj)
 .data          0x00436504        0x0 CMakeFiles\Basic_workflow.dir/objects.a(EcuM_Callout_Stubs.c.obj)
 .data          0x00436504        0x0 CMakeFiles\Basic_workflow.dir/objects.a(EcuM_BootTarget.c.obj)
 .data          0x00436504        0x0 CMakeFiles\Basic_workflow.dir/objects.a(EcuM_CurrentState.c.obj)
 .data          0x00436504        0x0 CMakeFiles\Basic_workflow.dir/objects.a(EcuM_KillAllRequests.c.obj)
 .data          0x00436504        0x0 CMakeFiles\Basic_workflow.dir/objects.a(EcuM_MainFunction.c.obj)
 .data          0x00436504        0x0 CMakeFiles\Basic_workflow.dir/objects.a(EcuM_Misc.c.obj)
 .data          0x00436504        0x0 CMakeFiles\Basic_workflow.dir/objects.a(EcuM_Prv.c.obj)
 .data          0x00436504        0x0 CMakeFiles\Basic_workflow.dir/objects.a(EcuM_Prv_RteActions.c.obj)
 .data          0x00436504        0x0 CMakeFiles\Basic_workflow.dir/objects.a(EcuM_ReleasePOST_RUN.c.obj)
 .data          0x00436504        0x0 CMakeFiles\Basic_workflow.dir/objects.a(EcuM_ReleaseRUN.c.obj)
 .data          0x00436504        0x0 CMakeFiles\Basic_workflow.dir/objects.a(EcuM_RequestPOST_RUN.c.obj)
 .data          0x00436504        0x0 CMakeFiles\Basic_workflow.dir/objects.a(EcuM_RequestRUN.c.obj)
 .data          0x00436504        0x0 CMakeFiles\Basic_workflow.dir/objects.a(EcuM_SetState.c.obj)
 .data          0x00436504        0x0 CMakeFiles\Basic_workflow.dir/objects.a(EcuM_Shutdown.c.obj)
 .data          0x00436504        0x0 CMakeFiles\Basic_workflow.dir/objects.a(EcuM_ShutdownServices.c.obj)
 .data          0x00436504        0x0 CMakeFiles\Basic_workflow.dir/objects.a(EcuM_Sleep.c.obj)
 .data          0x00436504        0x0 CMakeFiles\Basic_workflow.dir/objects.a(EcuM_Startup.c.obj)
 .data          0x00436504        0x0 CMakeFiles\Basic_workflow.dir/objects.a(EcuM_WakeupServices.c.obj)
 .data          0x00436504        0x4 CMakeFiles\Basic_workflow.dir/objects.a(Rte.c.obj)
                0x00436504                Rte_ModeCurrent_0
                0x00436505                Rte_ModeSchMNext_0
 .data          0x00436508        0x0 CMakeFiles\Basic_workflow.dir/objects.a(Rte_Lib.c.obj)
 .data          0x00436508        0x0 CMakeFiles\Basic_workflow.dir/objects.a(Can_Device.cpp.obj)
 .data          0x00436508        0x4 CMakeFiles\Basic_workflow.dir/objects.a(Can_HwProvider.cpp.obj)
 .data          0x0043650c        0x0 CMakeFiles\Basic_workflow.dir/objects.a(Can_Implementation.cpp.obj)
 .data          0x0043650c        0x0 CMakeFiles\Basic_workflow.dir/objects.a(Mcu_Device.cpp.obj)
 .data          0x0043650c        0x0 CMakeFiles\Basic_workflow.dir/objects.a(Mcu_Implementation.cpp.obj)
 *fill*         0x0043650c       0x14 
 .data          0x00436520       0x60 CMakeFiles\Basic_workflow.dir/objects.a(VirtualCan.cpp.obj)
                0x00436568                Can_Virtual_HwProviderPtr
 .data          0x00436580        0x0 CMakeFiles\Basic_workflow.dir/objects.a(VRTA_SystemClock.cpp.obj)
 .data          0x00436580        0x0 CMakeFiles\Basic_workflow.dir/objects.a(Vrta_Cfg.cpp.obj)
 .data          0x00436580        0x0 CMakeFiles\Basic_workflow.dir/objects.a(target.cpp.obj)
 .data          0x00436580        0x0 C:/ETAS/RTA-CAR_12.2.0/RTA-CAR/workspace/Basic_Workflow/build/../src/os\RTAOS.lib(TerminateTask.o)
 .data          0x00436580        0x0 C:/ETAS/RTA-CAR_12.2.0/RTA-CAR/workspace/Basic_Workflow/build/../src/os\RTAOS.lib(Os_SetJmp.o)
 .data          0x00436580        0x0 C:/ETAS/RTA-CAR_12.2.0/RTA-CAR/workspace/Basic_Workflow/build/../src/os\RTAOS.lib(GetTaskID.o)
 .data          0x00436580        0x0 C:/ETAS/RTA-CAR_12.2.0/RTA-CAR/workspace/Basic_Workflow/build/../src/os\RTAOS.lib(SuspendOSInterrupts.o)
 .data          0x00436580        0x0 C:/ETAS/RTA-CAR_12.2.0/RTA-CAR/workspace/Basic_Workflow/build/../src/os\RTAOS.lib(Os_Cfg_Counters.o)
 .data          0x00436580        0x0 C:/ETAS/RTA-CAR_12.2.0/RTA-CAR/workspace/Basic_Workflow/build/../src/os\RTAOS.lib(SuspendAllInterrupts.o)
 .data          0x00436580        0x0 C:/ETAS/RTA-CAR_12.2.0/RTA-CAR/workspace/Basic_Workflow/build/../src/os\RTAOS.lib(Os_Cfg.o)
 .data          0x00436580        0x0 C:/ETAS/RTA-CAR_12.2.0/RTA-CAR/workspace/Basic_Workflow/build/../src/os\RTAOS.lib(StopScheduleTable.o)
 .data          0x00436580        0x0 C:/ETAS/RTA-CAR_12.2.0/RTA-CAR/workspace/Basic_Workflow/build/../src/os\RTAOS.lib(ResumeOSInterrupts.o)
 .data          0x00436580        0x4 C:/ETAS/RTA-CAR_12.2.0/RTA-CAR/workspace/Basic_Workflow/build/../src/os\RTAOS.lib(vrtaSystemClock.o)
 .data          0x00436584        0x0 C:/ETAS/RTA-CAR_12.2.0/RTA-CAR/workspace/Basic_Workflow/build/../src/os\RTAOS.lib(StartScheduleTableRel.o)
 .data          0x00436584        0x0 C:/ETAS/RTA-CAR_12.2.0/RTA-CAR/workspace/Basic_Workflow/build/../src/os\RTAOS.lib(ResumeAllInterrupts.o)
 .data          0x00436584        0x0 C:/ETAS/RTA-CAR_12.2.0/RTA-CAR/workspace/Basic_Workflow/build/../src/os\RTAOS.lib(GetResource.o)
 .data          0x00436584        0x0 C:/ETAS/RTA-CAR_12.2.0/RTA-CAR/workspace/Basic_Workflow/build/../src/os\RTAOS.lib(vrtaSampleDevices.o)
 .data          0x00436584        0x0 C:/ETAS/RTA-CAR_12.2.0/RTA-CAR/workspace/Basic_Workflow/build/../src/os\RTAOS.lib(StartOS.o)
 .data          0x00436584        0x0 C:/ETAS/RTA-CAR_12.2.0/RTA-CAR/workspace/Basic_Workflow/build/../src/os\RTAOS.lib(ShutdownOS.o)
 .data          0x00436584        0x0 C:/ETAS/RTA-CAR_12.2.0/RTA-CAR/workspace/Basic_Workflow/build/../src/os\RTAOS.lib(vrtaPrintf.o)
 .data          0x00436584        0x0 C:/ETAS/RTA-CAR_12.2.0/RTA-CAR/workspace/Basic_Workflow/build/../src/os\RTAOS.lib(ActivateTask.o)
 .data          0x00436584        0x0 C:/ETAS/RTA-CAR_12.2.0/RTA-CAR/workspace/Basic_Workflow/build/../src/os\RTAOS.lib(ReleaseResource.o)
 .data          0x00436584        0x0 C:/ETAS/RTA-CAR_12.2.0/RTA-CAR/workspace/Basic_Workflow/build/../src/os\RTAOS.lib(GetISRID.o)
 .data          0x00436584        0x0 C:/ETAS/RTA-CAR_12.2.0/RTA-CAR/workspace/Basic_Workflow/build/../src/os\RTAOS.lib(vrtaLoggerDevice.o)
 .data          0x00436584        0x0 C:/ETAS/RTA-CAR_12.2.0/RTA-CAR/workspace/Basic_Workflow/build/../src/os\RTAOS.lib(vrtaIdleHandling.o)
 .data          0x00436584        0x0 C:/ETAS/RTA-CAR_12.2.0/RTA-CAR/workspace/Basic_Workflow/build/../src/os\RTAOS.lib(DispatchTask.o)
 .data          0x00436584        0x4 C:/ETAS/RTA-CAR_12.2.0/RTA-CAR/workspace/Basic_Workflow/build/../src/os\RTAOS.lib(vrtaCore.o)
 .data          0x00436588        0x0 C:/ETAS/RTA-CAR_12.2.0/RTA-CAR/workspace/Basic_Workflow/build/../src/os\RTAOS.lib(vrtaAppMain.o)
 .data          0x00436588        0x0 C:/ETAS/RTA-CAR_12.2.0/RTA-CAR/workspace/Basic_Workflow/build/../src/os\RTAOS.lib(virtualDevice.o)
 .data          0x00436588        0x0 C:/ETAS/RTA-CAR_12.2.0/RTA-CAR/workspace/Basic_Workflow/build/../src/os\RTAOS.lib(Os_vectors.o)
 .data          0x00436588        0x0 C:/ETAS/RTA-CAR_12.2.0/RTA-CAR/workspace/Basic_Workflow/build/../src/os\RTAOS.lib(Os_Stack.o)
 .data          0x00436588        0x0 C:/ETAS/RTA-CAR_12.2.0/RTA-CAR/workspace/Basic_Workflow/build/../src/os\RTAOS.lib(Os_Cfg_KL.o)
 .data          0x00436588        0x0 C:/ETAS/RTA-CAR_12.2.0/RTA-CAR/workspace/Basic_Workflow/build/../src/os\RTAOS.lib(Os_fsb.o)
 .data          0x00436588        0x0 C:/ETAS/RTA-CAR_12.2.0/RTA-CAR/workspace/Basic_Workflow/build/../src/os\RTAOS.lib(GetStackValue.o)
 .data          0x00436588        0x0 C:/ETAS/RTA-CAR_12.2.0/RTA-CAR/workspace/Basic_Workflow/build/../src/os\RTAOS.lib(vrtaSystemClockDevice.o)
 .data          0x00436588        0x0 C:/ETAS/RTA-CAR_12.2.0/RTA-CAR/workspace/Basic_Workflow/build/../src/os\RTAOS.lib(InShutdown.o)
 .data          0x00436588        0x0 C:/ETAS/RTA-CAR_12.2.0/RTA-CAR/workspace/Basic_Workflow/build/../src/os\RTAOS.lib(vrtaOSMonitorDevice.o)
 .data          0x00436588        0x0 C:/ETAS/RTA-CAR_12.2.0/RTA-CAR/workspace/Basic_Workflow/build/../src/os\RTAOS.lib(Os_wrapper.o)
 .data          0x00436588        0x0 c:/mingw/bin/../lib/gcc/mingw32/6.3.0/../../..\libwinmm.a(drqcs00150.o)
 .data          0x00436588        0x0 c:/mingw/bin/../lib/gcc/mingw32/6.3.0/../../..\libwinmm.a(drqcs00149.o)
 .data          0x00436588        0x0 c:/mingw/bin/../lib/gcc/mingw32/6.3.0/../../..\libwinmm.a(drqcs00144.o)
 .data          0x00436588        0x0 c:/mingw/bin/../lib/gcc/mingw32/6.3.0/../../..\libwinmm.a(drqch.o)
 .data          0x00436588        0x0 c:/mingw/bin/../lib/gcc/mingw32/6.3.0/../../..\libwinmm.a(drqct.o)
 .data          0x00436588        0x0 c:/mingw/bin/../lib/gcc/mingw32/6.3.0\libstdc++.a(eh_personality.o)
 .data          0x00436588        0x0 c:/mingw/bin/../lib/gcc/mingw32/6.3.0\libstdc++.a(new_opv.o)
 .data          0x00436588        0x0 c:/mingw/bin/../lib/gcc/mingw32/6.3.0\libstdc++.a(vmi_class_type_info.o)
 .data          0x00436588        0x0 c:/mingw/bin/../lib/gcc/mingw32/6.3.0\libstdc++.a(del_opv.o)
 .data          0x00436588        0x0 c:/mingw/bin/../lib/gcc/mingw32/6.3.0\libstdc++.a(del_ops.o)
 .data          0x00436588        0x0 c:/mingw/bin/../lib/gcc/mingw32/6.3.0\libstdc++.a(eh_throw.o)
 .data          0x00436588        0x0 c:/mingw/bin/../lib/gcc/mingw32/6.3.0\libstdc++.a(class_type_info.o)
 .data          0x00436588        0x0 c:/mingw/bin/../lib/gcc/mingw32/6.3.0\libstdc++.a(eh_terminate.o)
 .data          0x00436588        0x0 c:/mingw/bin/../lib/gcc/mingw32/6.3.0\libstdc++.a(eh_call.o)
 .data          0x00436588        0x0 c:/mingw/bin/../lib/gcc/mingw32/6.3.0\libstdc++.a(eh_alloc.o)
 .data          0x00436588        0x0 c:/mingw/bin/../lib/gcc/mingw32/6.3.0\libstdc++.a(eh_term_handler.o)
 .data          0x00436588        0x0 c:/mingw/bin/../lib/gcc/mingw32/6.3.0\libstdc++.a(eh_aux_runtime.o)
 .data          0x00436588        0x0 c:/mingw/bin/../lib/gcc/mingw32/6.3.0\libstdc++.a(eh_globals.o)
 .data          0x00436588        0x0 c:/mingw/bin/../lib/gcc/mingw32/6.3.0\libstdc++.a(vterminate.o)
 .data          0x00436588        0x0 c:/mingw/bin/../lib/gcc/mingw32/6.3.0\libstdc++.a(bad_cast.o)
 .data          0x00436588        0x0 c:/mingw/bin/../lib/gcc/mingw32/6.3.0\libstdc++.a(si_class_type_info.o)
 .data          0x00436588        0x0 c:/mingw/bin/../lib/gcc/mingw32/6.3.0\libstdc++.a(tinfo.o)
 .data          0x00436588        0x0 c:/mingw/bin/../lib/gcc/mingw32/6.3.0\libstdc++.a(del_opvs.o)
 .data          0x00436588        0x0 c:/mingw/bin/../lib/gcc/mingw32/6.3.0\libstdc++.a(eh_catch.o)
 .data          0x00436588        0x0 c:/mingw/bin/../lib/gcc/mingw32/6.3.0\libstdc++.a(new_op.o)
 .data          0x00436588        0x0 c:/mingw/bin/../lib/gcc/mingw32/6.3.0\libstdc++.a(del_op.o)
 .data          0x00436588        0x0 c:/mingw/bin/../lib/gcc/mingw32/6.3.0\libstdc++.a(pure.o)
 .data          0x00436588        0x0 c:/mingw/bin/../lib/gcc/mingw32/6.3.0\libstdc++.a(eh_exception.o)
 .data          0x00436588        0x0 c:/mingw/bin/../lib/gcc/mingw32/6.3.0\libstdc++.a(bad_typeid.o)
 .data          0x00436588        0x0 c:/mingw/bin/../lib/gcc/mingw32/6.3.0\libstdc++.a(eh_unex_handler.o)
 .data          0x00436588        0x0 c:/mingw/bin/../lib/gcc/mingw32/6.3.0\libstdc++.a(bad_array_new.o)
 .data          0x00436588        0x0 c:/mingw/bin/../lib/gcc/mingw32/6.3.0\libstdc++.a(bad_alloc.o)
 .data          0x00436588        0x0 c:/mingw/bin/../lib/gcc/mingw32/6.3.0\libstdc++.a(cp-demangle.o)
 .data          0x00436588        0x0 c:/mingw/bin/../lib/gcc/mingw32/6.3.0\libstdc++.a(eh_type.o)
 .data          0x00436588        0x0 c:/mingw/bin/../lib/gcc/mingw32/6.3.0\libstdc++.a(new_handler.o)
 .data          0x00436588        0x0 c:/mingw/bin/../lib/gcc/mingw32/6.3.0/../../..\libkernel32.a(dujcs01223.o)
 .data          0x00436588        0x0 c:/mingw/bin/../lib/gcc/mingw32/6.3.0/../../..\libkernel32.a(dujcs01166.o)
 .data          0x00436588        0x0 c:/mingw/bin/../lib/gcc/mingw32/6.3.0/../../..\libkernel32.a(dujcs01162.o)
 .data          0x00436588        0x0 c:/mingw/bin/../lib/gcc/mingw32/6.3.0/../../..\libkernel32.a(dujcs01152.o)
 .data          0x00436588        0x0 c:/mingw/bin/../lib/gcc/mingw32/6.3.0/../../..\libkernel32.a(dujcs01140.o)
 .data          0x00436588        0x0 c:/mingw/bin/../lib/gcc/mingw32/6.3.0/../../..\libkernel32.a(dujcs01065.o)
 .data          0x00436588        0x0 c:/mingw/bin/../lib/gcc/mingw32/6.3.0/../../..\libkernel32.a(dujcs00978.o)
 .data          0x00436588        0x0 c:/mingw/bin/../lib/gcc/mingw32/6.3.0/../../..\libkernel32.a(dujcs00974.o)
 .data          0x00436588        0x0 c:/mingw/bin/../lib/gcc/mingw32/6.3.0/../../..\libkernel32.a(dujcs00923.o)
 .data          0x00436588        0x0 c:/mingw/bin/../lib/gcc/mingw32/6.3.0/../../..\libkernel32.a(dujcs00922.o)
 .data          0x00436588        0x0 c:/mingw/bin/../lib/gcc/mingw32/6.3.0/../../..\libkernel32.a(dujcs00844.o)
 .data          0x00436588        0x0 c:/mingw/bin/../lib/gcc/mingw32/6.3.0/../../..\libkernel32.a(dujcs00817.o)
 .data          0x00436588        0x0 c:/mingw/bin/../lib/gcc/mingw32/6.3.0/../../..\libkernel32.a(dujcs00577.o)
 .data          0x00436588        0x0 c:/mingw/bin/../lib/gcc/mingw32/6.3.0/../../..\libkernel32.a(dujcs00529.o)
 .data          0x00436588        0x0 c:/mingw/bin/../lib/gcc/mingw32/6.3.0/../../..\libkernel32.a(dujcs00510.o)
 .data          0x00436588        0x0 c:/mingw/bin/../lib/gcc/mingw32/6.3.0/../../..\libkernel32.a(dujcs00473.o)
 .data          0x00436588        0x0 c:/mingw/bin/../lib/gcc/mingw32/6.3.0/../../..\libkernel32.a(dujcs00446.o)
 .data          0x00436588        0x0 c:/mingw/bin/../lib/gcc/mingw32/6.3.0/../../..\libkernel32.a(dujcs00352.o)
 .data          0x00436588        0x0 c:/mingw/bin/../lib/gcc/mingw32/6.3.0/../../..\libkernel32.a(dujcs00347.o)
 .data          0x00436588        0x0 c:/mingw/bin/../lib/gcc/mingw32/6.3.0/../../..\libkernel32.a(dujcs00280.o)
 .data          0x00436588        0x0 c:/mingw/bin/../lib/gcc/mingw32/6.3.0/../../..\libkernel32.a(dujcs00279.o)
 .data          0x00436588        0x0 c:/mingw/bin/../lib/gcc/mingw32/6.3.0/../../..\libkernel32.a(dujcs00169.o)
 .data          0x00436588        0x0 c:/mingw/bin/../lib/gcc/mingw32/6.3.0/../../..\libkernel32.a(dujcs00154.o)
 .data          0x00436588        0x0 c:/mingw/bin/../lib/gcc/mingw32/6.3.0/../../..\libkernel32.a(dujcs00136.o)
 .data          0x00436588        0x0 c:/mingw/bin/../lib/gcc/mingw32/6.3.0/../../..\libkernel32.a(dujcs00129.o)
 .data          0x00436588        0x0 c:/mingw/bin/../lib/gcc/mingw32/6.3.0/../../..\libkernel32.a(dujch.o)
 .data          0x00436588        0x0 c:/mingw/bin/../lib/gcc/mingw32/6.3.0/../../..\libkernel32.a(dujct.o)
 .data          0x00436588        0x0 c:/mingw/bin/../lib/gcc/mingw32/6.3.0/../../..\libuser32.a(dtpcs00434.o)
 .data          0x00436588        0x0 c:/mingw/bin/../lib/gcc/mingw32/6.3.0/../../..\libuser32.a(dtpch.o)
 .data          0x00436588        0x0 c:/mingw/bin/../lib/gcc/mingw32/6.3.0/../../..\libuser32.a(dtpct.o)
 .data          0x00436588        0x4 c:/mingw/bin/../lib/gcc/mingw32/6.3.0/../../..\libmingw32.a(CRTglob.o)
                0x00436588                _CRT_glob
 .data          0x0043658c        0x0 c:/mingw/bin/../lib/gcc/mingw32/6.3.0/../../..\libmingw32.a(setargv.o)
 .data          0x0043658c        0x0 c:/mingw/bin/../lib/gcc/mingw32/6.3.0/../../..\libmingw32.a(CRTfmode.o)
 .data          0x0043658c        0x0 c:/mingw/bin/../lib/gcc/mingw32/6.3.0/../../..\libmingw32.a(cpu_features.o)
 .data          0x0043658c        0x4 c:/mingw/bin/../lib/gcc/mingw32/6.3.0/../../..\libmingw32.a(CRT_fp10.o)
                0x0043658c                _CRT_fenv
 .data          0x00436590        0x4 c:/mingw/bin/../lib/gcc/mingw32/6.3.0/../../..\libmingw32.a(txtmode.o)
                0x00436590                _fmode
 .data          0x00436594        0x4 c:/mingw/bin/../lib/gcc/mingw32/6.3.0/../../..\libmingw32.a(gccmain.o)
 .data          0x00436598        0x0 c:/mingw/bin/../lib/gcc/mingw32/6.3.0/../../..\libmingw32.a(crtst.o)
 .data          0x00436598        0x0 c:/mingw/bin/../lib/gcc/mingw32/6.3.0/../../..\libmingw32.a(tlssup.o)
 .data          0x00436598        0x0 c:/mingw/bin/../lib/gcc/mingw32/6.3.0/../../..\libmingw32.a(tlsthrd.o)
 .data          0x00436598        0x0 c:/mingw/bin/../lib/gcc/mingw32/6.3.0/../../..\libmingw32.a(pseudo-reloc.o)
 .data          0x00436598        0x0 c:/mingw/bin/../lib/gcc/mingw32/6.3.0/../../..\libmingw32.a(pseudo-reloc-list.o)
 .data          0x00436598        0x0 c:/mingw/bin/../lib/gcc/mingw32/6.3.0\libgcc.a(_chkstk_ms.o)
 .data          0x00436598        0x0 c:/mingw/bin/../lib/gcc/mingw32/6.3.0\libgcc.a(_ctors.o)
 .data          0x00436598        0x0 c:/mingw/bin/../lib/gcc/mingw32/6.3.0\libgcc.a(_divdi3.o)
 .data          0x00436598        0x0 c:/mingw/bin/../lib/gcc/mingw32/6.3.0\libgcc.a(gthr-win32.o)
 .data          0x00436598        0x8 c:/mingw/bin/../lib/gcc/mingw32/6.3.0\libgcc_eh.a(unwind-dw2.o)
 .data          0x004365a0        0x8 c:/mingw/bin/../lib/gcc/mingw32/6.3.0\libgcc_eh.a(unwind-dw2-fde.o)
 .data          0x004365a8        0x0 c:/mingw/bin/../lib/gcc/mingw32/6.3.0/../../..\libmoldname.a(dagwbs00109.o)
 .data          0x004365a8        0x0 c:/mingw/bin/../lib/gcc/mingw32/6.3.0/../../..\libmoldname.a(dagwbh.o)
 .data          0x004365a8        0x0 c:/mingw/bin/../lib/gcc/mingw32/6.3.0/../../..\libmoldname.a(dagwbt.o)
 .data          0x004365a8        0x4 c:/mingw/bin/../lib/gcc/mingw32/6.3.0/../../..\libmingwex.a(fesetenv.o)
 .data          0x004365ac        0x0 c:/mingw/bin/../lib/gcc/mingw32/6.3.0/../../..\libmingwex.a(feholdexcept.o)
 .data          0x004365ac        0x0 c:/mingw/bin/../lib/gcc/mingw32/6.3.0/../../..\libmingwex.a(glob.o)
 .data          0x004365ac        0x0 c:/mingw/bin/../lib/gcc/mingw32/6.3.0/../../..\libmingwex.a(dirname.o)
 .data          0x004365ac        0x0 c:/mingw/bin/../lib/gcc/mingw32/6.3.0/../../..\libmingwex.a(dirent.o)
 .data          0x004365ac        0x0 c:/mingw/bin/../lib/gcc/mingw32/6.3.0/../../..\libmsvcrt.a(djpvbs01325.o)
 .data          0x004365ac        0x0 c:/mingw/bin/../lib/gcc/mingw32/6.3.0/../../..\libmsvcrt.a(djpvbs01291.o)
 .data          0x004365ac        0x0 c:/mingw/bin/../lib/gcc/mingw32/6.3.0/../../..\libmsvcrt.a(djpvbs01284.o)
 .data          0x004365ac        0x0 c:/mingw/bin/../lib/gcc/mingw32/6.3.0/../../..\libmsvcrt.a(djpvbs01277.o)
 .data          0x004365ac        0x0 c:/mingw/bin/../lib/gcc/mingw32/6.3.0/../../..\libmsvcrt.a(djpvbs01253.o)
 .data          0x004365ac        0x0 c:/mingw/bin/../lib/gcc/mingw32/6.3.0/../../..\libmsvcrt.a(djpvbs01249.o)
 .data          0x004365ac        0x0 c:/mingw/bin/../lib/gcc/mingw32/6.3.0/../../..\libmsvcrt.a(djpvbs01243.o)
 .data          0x004365ac        0x0 c:/mingw/bin/../lib/gcc/mingw32/6.3.0/../../..\libmsvcrt.a(djpvbs01242.o)
 .data          0x004365ac        0x0 c:/mingw/bin/../lib/gcc/mingw32/6.3.0/../../..\libmsvcrt.a(djpvbs01241.o)
 .data          0x004365ac        0x0 c:/mingw/bin/../lib/gcc/mingw32/6.3.0/../../..\libmsvcrt.a(djpvbs01238.o)
 .data          0x004365ac        0x0 c:/mingw/bin/../lib/gcc/mingw32/6.3.0/../../..\libmsvcrt.a(djpvbs01232.o)
 .data          0x004365ac        0x0 c:/mingw/bin/../lib/gcc/mingw32/6.3.0/../../..\libmsvcrt.a(djpvbs01229.o)
 .data          0x004365ac        0x0 c:/mingw/bin/../lib/gcc/mingw32/6.3.0/../../..\libmsvcrt.a(djpvbs01227.o)
 .data          0x004365ac        0x0 c:/mingw/bin/../lib/gcc/mingw32/6.3.0/../../..\libmsvcrt.a(djpvbs01220.o)
 .data          0x004365ac        0x0 c:/mingw/bin/../lib/gcc/mingw32/6.3.0/../../..\libmsvcrt.a(djpvbs01203.o)
 .data          0x004365ac        0x0 c:/mingw/bin/../lib/gcc/mingw32/6.3.0/../../..\libmsvcrt.a(djpvbs01199.o)
 .data          0x004365ac        0x0 c:/mingw/bin/../lib/gcc/mingw32/6.3.0/../../..\libmsvcrt.a(djpvbs01198.o)
 .data          0x004365ac        0x0 c:/mingw/bin/../lib/gcc/mingw32/6.3.0/../../..\libmsvcrt.a(djpvbs01194.o)
 .data          0x004365ac        0x0 c:/mingw/bin/../lib/gcc/mingw32/6.3.0/../../..\libmsvcrt.a(djpvbs01187.o)
 .data          0x004365ac        0x0 c:/mingw/bin/../lib/gcc/mingw32/6.3.0/../../..\libmsvcrt.a(djpvbs01142.o)
 .data          0x004365ac        0x0 c:/mingw/bin/../lib/gcc/mingw32/6.3.0/../../..\libmsvcrt.a(djpvbs01131.o)
 .data          0x004365ac        0x0 c:/mingw/bin/../lib/gcc/mingw32/6.3.0/../../..\libmsvcrt.a(djpvbs01127.o)
 .data          0x004365ac        0x0 c:/mingw/bin/../lib/gcc/mingw32/6.3.0/../../..\libmsvcrt.a(djpvbs01126.o)
 .data          0x004365ac        0x0 c:/mingw/bin/../lib/gcc/mingw32/6.3.0/../../..\libmsvcrt.a(djpvbs01122.o)
 .data          0x004365ac        0x0 c:/mingw/bin/../lib/gcc/mingw32/6.3.0/../../..\libmsvcrt.a(djpvbs01114.o)
 .data          0x004365ac        0x0 c:/mingw/bin/../lib/gcc/mingw32/6.3.0/../../..\libmsvcrt.a(djpvbs01111.o)
 .data          0x004365ac        0x0 c:/mingw/bin/../lib/gcc/mingw32/6.3.0/../../..\libmsvcrt.a(djpvbs01108.o)
 .data          0x004365ac        0x0 c:/mingw/bin/../lib/gcc/mingw32/6.3.0/../../..\libmsvcrt.a(djpvbs01098.o)
 .data          0x004365ac        0x0 c:/mingw/bin/../lib/gcc/mingw32/6.3.0/../../..\libmsvcrt.a(djpvbs01093.o)
 .data          0x004365ac        0x0 c:/mingw/bin/../lib/gcc/mingw32/6.3.0/../../..\libmsvcrt.a(djpvbs01091.o)
 .data          0x004365ac        0x0 c:/mingw/bin/../lib/gcc/mingw32/6.3.0/../../..\libmsvcrt.a(djpvbs01083.o)
 .data          0x004365ac        0x0 c:/mingw/bin/../lib/gcc/mingw32/6.3.0/../../..\libmsvcrt.a(djpvbs00753.o)
 .data          0x004365ac        0x0 c:/mingw/bin/../lib/gcc/mingw32/6.3.0/../../..\libmsvcrt.a(djpvbs00698.o)
 .data          0x004365ac        0x0 c:/mingw/bin/../lib/gcc/mingw32/6.3.0/../../..\libmsvcrt.a(djpvbs00689.o)
 .data          0x004365ac        0x0 c:/mingw/bin/../lib/gcc/mingw32/6.3.0/../../..\libmsvcrt.a(djpvbs00422.o)
 .data          0x004365ac        0x0 c:/mingw/bin/../lib/gcc/mingw32/6.3.0/../../..\libmsvcrt.a(djpvbs00417.o)
 .data          0x004365ac        0x0 c:/mingw/bin/../lib/gcc/mingw32/6.3.0/../../..\libmsvcrt.a(djpvbs00350.o)
 .data          0x004365ac        0x0 c:/mingw/bin/../lib/gcc/mingw32/6.3.0/../../..\libmsvcrt.a(djpvbs00324.o)
 .data          0x004365ac        0x0 c:/mingw/bin/../lib/gcc/mingw32/6.3.0/../../..\libmsvcrt.a(djpvbs00285.o)
 .data          0x004365ac        0x0 c:/mingw/bin/../lib/gcc/mingw32/6.3.0/../../..\libmsvcrt.a(djpvbs00219.o)
 .data          0x004365ac        0x0 c:/mingw/bin/../lib/gcc/mingw32/6.3.0/../../..\libmsvcrt.a(djpvbs00153.o)
 .data          0x004365ac        0x0 c:/mingw/bin/../lib/gcc/mingw32/6.3.0/../../..\libmsvcrt.a(djpvbs00133.o)
 .data          0x004365ac        0x0 c:/mingw/bin/../lib/gcc/mingw32/6.3.0/../../..\libmsvcrt.a(djpvbs00131.o)
 .data          0x004365ac        0x0 c:/mingw/bin/../lib/gcc/mingw32/6.3.0/../../..\libmsvcrt.a(djpvbs00119.o)
 .data          0x004365ac        0x0 c:/mingw/bin/../lib/gcc/mingw32/6.3.0/../../..\libmsvcrt.a(djpvbs00088.o)
 .data          0x004365ac        0x0 c:/mingw/bin/../lib/gcc/mingw32/6.3.0/../../..\libmsvcrt.a(djpvbh.o)
 .data          0x004365ac        0x0 c:/mingw/bin/../lib/gcc/mingw32/6.3.0/../../..\libmsvcrt.a(djpvbt.o)
 .data          0x004365ac        0x0 c:/mingw/bin/../lib/gcc/mingw32/6.3.0/../../..\libkernel32.a(dujcs01215.o)
 .data          0x004365ac        0x0 c:/mingw/bin/../lib/gcc/mingw32/6.3.0/../../..\libkernel32.a(dujcs01213.o)
 .data          0x004365ac        0x0 c:/mingw/bin/../lib/gcc/mingw32/6.3.0/../../..\libkernel32.a(dujcs01174.o)
 .data          0x004365ac        0x0 c:/mingw/bin/../lib/gcc/mingw32/6.3.0/../../..\libkernel32.a(dujcs01173.o)
 .data          0x004365ac        0x0 c:/mingw/bin/../lib/gcc/mingw32/6.3.0/../../..\libkernel32.a(dujcs01172.o)
 .data          0x004365ac        0x0 c:/mingw/bin/../lib/gcc/mingw32/6.3.0/../../..\libkernel32.a(dujcs01171.o)
 .data          0x004365ac        0x0 c:/mingw/bin/../lib/gcc/mingw32/6.3.0/../../..\libkernel32.a(dujcs01091.o)
 .data          0x004365ac        0x0 c:/mingw/bin/../lib/gcc/mingw32/6.3.0/../../..\libkernel32.a(dujcs00814.o)
 .data          0x004365ac        0x0 c:/mingw/bin/../lib/gcc/mingw32/6.3.0/../../..\libkernel32.a(dujcs00747.o)
 .data          0x004365ac        0x0 c:/mingw/bin/../lib/gcc/mingw32/6.3.0/../../..\libkernel32.a(dujcs00743.o)
 .data          0x004365ac        0x0 c:/mingw/bin/../lib/gcc/mingw32/6.3.0/../../..\libkernel32.a(dujcs00734.o)
 .data          0x004365ac        0x0 c:/mingw/bin/../lib/gcc/mingw32/6.3.0/../../..\libkernel32.a(dujcs00451.o)
 .data          0x004365ac        0x0 c:/mingw/bin/../lib/gcc/mingw32/6.3.0/../../..\libkernel32.a(dujcs00388.o)
 .data          0x004365ac        0x0 c:/mingw/bin/../lib/gcc/mingw32/6.3.0/../../..\libkernel32.a(dujcs00321.o)
 .data          0x004365ac        0x0 c:/mingw/bin/../lib/gcc/mingw32/6.3.0/../../..\libkernel32.a(dujcs00304.o)
 .data          0x004365ac        0x0 c:/mingw/bin/../lib/gcc/mingw32/6.3.0/../../..\libkernel32.a(dujcs00300.o)
 .data          0x004365ac        0x0 c:/mingw/bin/../lib/gcc/mingw32/6.3.0/../../..\libkernel32.a(dujcs00236.o)
 .data          0x004365ac        0x0 c:/mingw/bin/../lib/gcc/mingw32/6.3.0/../../..\libkernel32.a(dujcs00207.o)
 .data          0x004365ac        0x0 c:/mingw/bin/../lib/gcc/mingw32/6.3.0/../../..\libkernel32.a(dujcs00172.o)
 .data          0x004365ac        0x0 c:/mingw/bin/../lib/gcc/mingw32/6.3.0/../../..\libkernel32.a(dujcs00082.o)
 .data          0x004365ac        0x0 c:/mingw/bin/../lib/gcc/mingw32/6.3.0/../../..\libmingw32.a(tlsmthread.o)
 .data          0x004365ac        0x0 c:/mingw/bin/../lib/gcc/mingw32/6.3.0/../../..\libmoldname.a(dagwbs00082.o)
 .data          0x004365ac        0x0 c:/mingw/bin/../lib/gcc/mingw32/6.3.0/../../..\libmoldname.a(dagwbs00080.o)
 .data          0x004365ac        0x0 c:/mingw/bin/../lib/gcc/mingw32/6.3.0/crtend.o
 *(.data2)
 *(SORT(.data$*))
 .data$_ZL10eh_globals
                0x004365ac        0x8 c:/mingw/bin/../lib/gcc/mingw32/6.3.0\libstdc++.a(eh_globals.o)
 .data$_ZL4init
                0x004365b4        0x8 c:/mingw/bin/../lib/gcc/mingw32/6.3.0\libstdc++.a(eh_globals.o)
 .data$_ZN10__cxxabiv119__terminate_handlerE
                0x004365bc        0x4 c:/mingw/bin/../lib/gcc/mingw32/6.3.0\libstdc++.a(eh_term_handler.o)
                0x004365bc                __cxxabiv1::__terminate_handler
 .data$_ZN10__cxxabiv120__unexpected_handlerE
                0x004365c0        0x4 c:/mingw/bin/../lib/gcc/mingw32/6.3.0\libstdc++.a(eh_unex_handler.o)
                0x004365c0                __cxxabiv1::__unexpected_handler
 .data$_ZN12_GLOBAL__N_113__new_handlerE
                0x004365c4        0x4 c:/mingw/bin/../lib/gcc/mingw32/6.3.0\libstdc++.a(new_handler.o)
 .data$_ZN12_GLOBAL__N_114emergency_poolE
                0x004365c8       0x14 c:/mingw/bin/../lib/gcc/mingw32/6.3.0\libstdc++.a(eh_alloc.o)
 .data$_ZZN9__gnu_cxx27__verbose_terminate_handlerEvE11terminating
                0x004365dc        0x4 c:/mingw/bin/../lib/gcc/mingw32/6.3.0\libstdc++.a(vterminate.o)
 *(.jcr)
 .jcr           0x004365e0        0x0 c:/mingw/bin/../lib/gcc/mingw32/6.3.0/crtbegin.o
 .jcr           0x004365e0        0x4 c:/mingw/bin/../lib/gcc/mingw32/6.3.0/crtend.o
                0x004365e4                __data_end__ = .
 *(.data_cygwin_nocopy)

.rdata          0x00437000     0x8a00
 *(.rdata)
 .rdata         0x00437000       0x64 c:/mingw/bin/../lib/gcc/mingw32/6.3.0/crtbegin.o
 *fill*         0x00437064       0x1c 
 .rdata         0x00437080      0x280 CMakeFiles\Basic_workflow.dir/objects.a(unity_4_c.c.obj)
                0x00437130                Mcu_ConfigData
 .rdata         0x00437300      0x140 CMakeFiles\Basic_workflow.dir/objects.a(unity_3_c.c.obj)
                0x00437304                ComM_ChanelList_acst
                0x0043731d                ComM_UserId_MappingTable_acst
                0x00437320                ComM_UserList_acst
                0x00437380                PduR_RoutingPathTables
                0x004373ac                PduR_loTransmitTable
                0x004373b0                PduR_loCancelRxTable
                0x004373b4                PduR_loCancelTransmitTable
                0x004373b8                PduR_upIfRxIndicationTable
                0x004373bc                PduR_upIfTxConfirmationTable
                0x004373c0                PduR_upIfTriggerTxTable
                0x004373c4                PduR_upTpCopyRxDataTable
                0x004373c8                PduR_upTpStartOfReceptionTable
                0x004373cc                PduR_upTpRxIndicationTable
                0x004373d0                PduR_upTpCopyTxDataTable
                0x004373d4                PduR_upTpTxConfirmationTable
                0x004373e0                PduR_GlobalPBConfig
                0x00437428                PduR_Config
 .rdata         0x00437440       0x80 CMakeFiles\Basic_workflow.dir/objects.a(unity_2_c.c.obj)
                0x00437480                ComM_BusSmApi_acst
 .rdata         0x004374c0       0xf4 CMakeFiles\Basic_workflow.dir/objects.a(unity_1_c.c.obj)
                0x004374c0                CanSM_NetworktoCtrl_Config_acu8
                0x004374c4                CanSM_Network_Config_acst
                0x004374d8                CanSM_ConfigSet
                0x004374e8                Com_NONE_TransModeInfo_cst
                0x004374f0                Com_Prv_UserCbk_acst
                0x004374f4                Com_Prv_xTxSigCfg_acst
                0x00437508                Com_Prv_xRxSigCfg_acst
                0x0043752c                Com_Prv_xTxIpduCfg_acst
                0x00437548                Com_Prv_xRxIpduCfg_acst
                0x00437558                Com_Prv_xIpduGrpCfg_acst
                0x00437568                Com_Prv_xIPduGrp_IpduRefCfg_acuo
                0x0043756c                Com_NEGMinMax_acst
                0x00437574                Com_MainFuncTxCfg_acst
                0x00437578                Com_Prv_Int32SigValues_acu32
                0x00437580                Com_ByteArraySigValues_acst
                0x00437588                Com_Prv_xRxRamBuf_acst
                0x00437594                Com_Prv_xRxIpduVarCfg_acst
                0x00437598                Com_Prv_xTxIpduVarCfg_acst
                0x004375a8                Com_Config
 *fill*         0x004375b4        0xc 
 .rdata         0x004375c0      0x420 CMakeFiles\Basic_workflow.dir/objects.a(unity_0_c.c.obj)
                0x0043764c                BswM_Cfg_AC_BswMComMAllowCom_cast
                0x00437650                BswM_Cfg_AC_BswMComMModeSwitch_cast
                0x00437660                BswM_Cfg_AC_BswMSchMSwitch_cast
                0x00437680                BswM_Cfg_AC_BswMUserCallout_cast
                0x00437800                BswM_Cfg_AL_cast
                0x00437840                BswM_Config
                0x004378a4                BswM_Configurations_capcst
                0x00437964                CanIf_Callback
                0x00437980                CanIf_Config
 .rdata         0x004379e0        0x4 CMakeFiles\Basic_workflow.dir/objects.a(MySWC.c.obj)
 *fill*         0x004379e4       0x1c 
 .rdata         0x00437a00       0xc0 CMakeFiles\Basic_workflow.dir/objects.a(EcuM_Cfg.c.obj)
                0x00437a00                EcuM_Cfg_dataWkupPNCRef_cast
                0x00437a40                EcuM_Cfg_idxWakeupSourcesPC_au32
 .rdata         0x00437ac0       0x10 CMakeFiles\Basic_workflow.dir/objects.a(EcuM_Lcfg.c.obj)
                0x00437ac0                EcuM_Cfg_dataPreCompileHash_au8
 *fill*         0x00437ad0       0x10 
 .rdata         0x00437ae0       0x40 CMakeFiles\Basic_workflow.dir/objects.a(EcuM_PBcfg.c.obj)
                0x00437ae0                EcuM_Config
                0x00437b18                EcuM_EcuMConfigurations_cpcast
 .rdata         0x00437b20       0x38 CMakeFiles\Basic_workflow.dir/objects.a(Rte.c.obj)
                0x00437b20                Rte_Inst_BswM
                0x00437b24                Rte_Self_SWCI1
                0x00437b28                Rte_Inst_ComM
                0x00437b2c                Rte_Self_SWCI2
                0x00437b30                Rte_Inst_Det
                0x00437b34                Rte_Self_SWCI3
                0x00437b38                Rte_Inst_EcuM
                0x00437b3c                Rte_Self_SWCI4
                0x00437b40                Rte_Instance_CPT_MySWC_ApplicationECU
                0x00437b4c                Rte_Self_CPT_MySWC_ApplicationECU
                0x00437b50                Rte_Inst_rba_DiagLib
                0x00437b54                Rte_Self_SWCI5
 .rdata         0x00437b58       0x30 CMakeFiles\Basic_workflow.dir/objects.a(Rte_Lib.c.obj)
 .rdata         0x00437b88      0xcc0 CMakeFiles\Basic_workflow.dir/objects.a(Can_Device.cpp.obj)
 .rdata         0x00438848       0x24 CMakeFiles\Basic_workflow.dir/objects.a(Can_Implementation.cpp.obj)
 .rdata         0x0043886c      0x134 CMakeFiles\Basic_workflow.dir/objects.a(Mcu_Device.cpp.obj)
 .rdata         0x004389a0      0x2d4 CMakeFiles\Basic_workflow.dir/objects.a(VirtualCan.cpp.obj)
 .rdata         0x00438c74      0x1c8 CMakeFiles\Basic_workflow.dir/objects.a(VRTA_SystemClock.cpp.obj)
 .rdata         0x00438e3c       0x18 CMakeFiles\Basic_workflow.dir/objects.a(target.cpp.obj)
 *fill*         0x00438e54        0xc 
 .rdata         0x00438e60      0x120 C:/ETAS/RTA-CAR_12.2.0/RTA-CAR/workspace/Basic_Workflow/build/../src/os\RTAOS.lib(Os_Cfg_Counters.o)
                0x00438e60                Os_const_expiry_actions
                0x00438ee0                Os_const_expiry_intervals
                0x00438f44                Os_const_scheduletables
                0x00438f54                Os_const_counters
 .rdata         0x00438f80       0xa0 C:/ETAS/RTA-CAR_12.2.0/RTA-CAR/workspace/Basic_Workflow/build/../src/os\RTAOS.lib(Os_Cfg.o)
                0x00438f80                Os_TotalNumberOfCores
                0x00438f84                Os_const_resources
                0x00438f9c                Os_const_tasks
                0x00438fc0                Os_const_tasks0
                0x00439008                Os_const_isrs
 .rdata         0x00439020     0x1150 C:/ETAS/RTA-CAR_12.2.0/RTA-CAR/workspace/Basic_Workflow/build/../src/os\RTAOS.lib(vrtaSampleDevices.o)
 .rdata         0x0043a170       0x14 C:/ETAS/RTA-CAR_12.2.0/RTA-CAR/workspace/Basic_Workflow/build/../src/os\RTAOS.lib(vrtaPrintf.o)
 .rdata         0x0043a184      0x268 C:/ETAS/RTA-CAR_12.2.0/RTA-CAR/workspace/Basic_Workflow/build/../src/os\RTAOS.lib(vrtaLoggerDevice.o)
 .rdata         0x0043a3ec      0x2b4 C:/ETAS/RTA-CAR_12.2.0/RTA-CAR/workspace/Basic_Workflow/build/../src/os\RTAOS.lib(vrtaCore.o)
 .rdata         0x0043a6a0       0x60 C:/ETAS/RTA-CAR_12.2.0/RTA-CAR/workspace/Basic_Workflow/build/../src/os\RTAOS.lib(vrtaAppMain.o)
                0x0043a6a0                Os_CoreIdForInterruptVector
 .rdata         0x0043a700       0x24 C:/ETAS/RTA-CAR_12.2.0/RTA-CAR/workspace/Basic_Workflow/build/../src/os\RTAOS.lib(virtualDevice.o)
 *fill*         0x0043a724       0x1c 
 .rdata         0x0043a740      0x1a0 C:/ETAS/RTA-CAR_12.2.0/RTA-CAR/workspace/Basic_Workflow/build/../src/os\RTAOS.lib(Os_vectors.o)
                0x0043a740                Os_InterruptVectorTable
 .rdata         0x0043a8e0      0x7f4 C:/ETAS/RTA-CAR_12.2.0/RTA-CAR/workspace/Basic_Workflow/build/../src/os\RTAOS.lib(vrtaSystemClockDevice.o)
 .rdata         0x0043b0d4      0x740 C:/ETAS/RTA-CAR_12.2.0/RTA-CAR/workspace/Basic_Workflow/build/../src/os\RTAOS.lib(vrtaOSMonitorDevice.o)
 .rdata         0x0043b814       0x34 c:/mingw/bin/../lib/gcc/mingw32/6.3.0\libstdc++.a(eh_personality.o)
 .rdata         0x0043b848       0x4c c:/mingw/bin/../lib/gcc/mingw32/6.3.0\libstdc++.a(eh_alloc.o)
 .rdata         0x0043b894       0x90 c:/mingw/bin/../lib/gcc/mingw32/6.3.0\libstdc++.a(vterminate.o)
 .rdata         0x0043b924       0x10 c:/mingw/bin/../lib/gcc/mingw32/6.3.0\libstdc++.a(bad_cast.o)
 .rdata         0x0043b934       0x3c c:/mingw/bin/../lib/gcc/mingw32/6.3.0\libstdc++.a(pure.o)
 .rdata         0x0043b970       0x24 c:/mingw/bin/../lib/gcc/mingw32/6.3.0\libstdc++.a(eh_exception.o)
 .rdata         0x0043b994       0x10 c:/mingw/bin/../lib/gcc/mingw32/6.3.0\libstdc++.a(bad_typeid.o)
 .rdata         0x0043b9a4       0x1c c:/mingw/bin/../lib/gcc/mingw32/6.3.0\libstdc++.a(bad_array_new.o)
 .rdata         0x0043b9c0       0x10 c:/mingw/bin/../lib/gcc/mingw32/6.3.0\libstdc++.a(bad_alloc.o)
 *fill*         0x0043b9d0       0x10 
 .rdata         0x0043b9e0     0x1900 c:/mingw/bin/../lib/gcc/mingw32/6.3.0\libstdc++.a(cp-demangle.o)
 .rdata         0x0043d2e0        0x4 c:/mingw/bin/../lib/gcc/mingw32/6.3.0/../../..\libmingw32.a(tlssup.o)
                0x0043d2e0                __dyn_tls_init_callback
 .rdata         0x0043d2e4       0xac c:/mingw/bin/../lib/gcc/mingw32/6.3.0/../../..\libmingw32.a(pseudo-reloc.o)
 .rdata         0x0043d390      0x51c c:/mingw/bin/../lib/gcc/mingw32/6.3.0\libgcc_eh.a(unwind-dw2.o)
 .rdata         0x0043d8ac       0x34 c:/mingw/bin/../lib/gcc/mingw32/6.3.0\libgcc_eh.a(unwind-dw2-fde.o)
 .rdata         0x0043d8e0       0x14 c:/mingw/bin/../lib/gcc/mingw32/6.3.0/../../..\libmingwex.a(glob.o)
 .rdata         0x0043d8f4        0x8 c:/mingw/bin/../lib/gcc/mingw32/6.3.0/../../..\libmingwex.a(dirname.o)
 *(SORT(.rdata$*))
 .rdata$_ZSt7nothrow
                0x0043d8fc        0x4 c:/mingw/bin/../lib/gcc/mingw32/6.3.0\libstdc++.a(new_handler.o)
                0x0043d8fc                std::nothrow
 .rdata$_ZTI10vrtaDevice
                0x0043d900        0x8 C:/ETAS/RTA-CAR_12.2.0/RTA-CAR/workspace/Basic_Workflow/build/../src/os\RTAOS.lib(vrtaSampleDevices.o)
                0x0043d900                typeinfo for vrtaDevice
 .rdata$_ZTI10vrtaSensor
                0x0043d908        0xc C:/ETAS/RTA-CAR_12.2.0/RTA-CAR/workspace/Basic_Workflow/build/../src/os\RTAOS.lib(vrtaSampleDevices.o)
                0x0043d908                typeinfo for vrtaSensor
 .rdata$_ZTI11vrtaCompare
                0x0043d914        0xc C:/ETAS/RTA-CAR_12.2.0/RTA-CAR/workspace/Basic_Workflow/build/../src/os\RTAOS.lib(vrtaSampleDevices.o)
                0x0043d914                typeinfo for vrtaCompare
 .rdata$_ZTI11vrtaCounter
                0x0043d920        0xc C:/ETAS/RTA-CAR_12.2.0/RTA-CAR/workspace/Basic_Workflow/build/../src/os\RTAOS.lib(vrtaSampleDevices.o)
                0x0043d920                typeinfo for vrtaCounter
 .rdata$_ZTI12vrtaActuator
                0x0043d92c        0xc C:/ETAS/RTA-CAR_12.2.0/RTA-CAR/workspace/Basic_Workflow/build/../src/os\RTAOS.lib(vrtaSampleDevices.o)
                0x0043d92c                typeinfo for vrtaActuator
 .rdata$_ZTI13Can_VirtualHw
                0x0043d938        0xc CMakeFiles\Basic_workflow.dir/objects.a(VirtualCan.cpp.obj)
                0x0043d938                typeinfo for Can_VirtualHw
 .rdata$_ZTI13OSIdleHandler
                0x0043d944        0xc C:/ETAS/RTA-CAR_12.2.0/RTA-CAR/workspace/Basic_Workflow/build/../src/os\RTAOS.lib(vrtaOSMonitorDevice.o)
                0x0043d944                typeinfo for OSIdleHandler
 .rdata$_ZTI13VirtualDevice
                0x0043d950        0x8 CMakeFiles\Basic_workflow.dir/objects.a(Can_Device.cpp.obj)
                0x0043d950                typeinfo for VirtualDevice
 .rdata$_ZTI13vrtaBaseClock
                0x0043d958       0x20 C:/ETAS/RTA-CAR_12.2.0/RTA-CAR/workspace/Basic_Workflow/build/../src/os\RTAOS.lib(vrtaSampleDevices.o)
                0x0043d958                typeinfo for vrtaBaseClock
 .rdata$_ZTI13vrtaUpCounter
                0x0043d978        0xc C:/ETAS/RTA-CAR_12.2.0/RTA-CAR/workspace/Basic_Workflow/build/../src/os\RTAOS.lib(vrtaSampleDevices.o)
                0x0043d978                typeinfo for vrtaUpCounter
 .rdata$_ZTI14Can_HwProvider
                0x0043d984        0xc CMakeFiles\Basic_workflow.dir/objects.a(VirtualCan.cpp.obj)
                0x0043d984                typeinfo for Can_HwProvider
 .rdata$_ZTI14vrtaComparable
                0x0043d990        0xc C:/ETAS/RTA-CAR_12.2.0/RTA-CAR/workspace/Basic_Workflow/build/../src/os\RTAOS.lib(vrtaSampleDevices.o)
                0x0043d990                typeinfo for vrtaComparable
 .rdata$_ZTI15MCAL_HwProvider
                0x0043d99c        0x8 CMakeFiles\Basic_workflow.dir/objects.a(VirtualCan.cpp.obj)
                0x0043d99c                typeinfo for MCAL_HwProvider
 .rdata$_ZTI15vrtaDownCounter
                0x0043d9a4        0xc C:/ETAS/RTA-CAR_12.2.0/RTA-CAR/workspace/Basic_Workflow/build/../src/os\RTAOS.lib(vrtaSampleDevices.o)
                0x0043d9a4                typeinfo for vrtaDownCounter
 .rdata$_ZTI17SystemClockDevice
                0x0043d9b0        0xc C:/ETAS/RTA-CAR_12.2.0/RTA-CAR/workspace/Basic_Workflow/build/../src/os\RTAOS.lib(vrtaSystemClockDevice.o)
                0x0043d9b0                typeinfo for SystemClockDevice
 .rdata$_ZTI17vrtaActuatorLight
                0x0043d9bc        0xc C:/ETAS/RTA-CAR_12.2.0/RTA-CAR/workspace/Basic_Workflow/build/../src/os\RTAOS.lib(vrtaSampleDevices.o)
                0x0043d9bc                typeinfo for vrtaActuatorLight
 .rdata$_ZTI17vrtaAdaptiveClock
                0x0043d9c8        0xc C:/ETAS/RTA-CAR_12.2.0/RTA-CAR/workspace/Basic_Workflow/build/../src/os\RTAOS.lib(vrtaSampleDevices.o)
                0x0043d9c8                typeinfo for vrtaAdaptiveClock
 .rdata$_ZTI18vrtaIdleSubscriber
                0x0043d9d4        0x8 C:/ETAS/RTA-CAR_12.2.0/RTA-CAR/workspace/Basic_Workflow/build/../src/os\RTAOS.lib(vrtaSystemClock.o)
                0x0043d9d4                typeinfo for vrtaIdleSubscriber
 .rdata$_ZTI19CanControllerDevice
                0x0043d9dc        0xc CMakeFiles\Basic_workflow.dir/objects.a(Can_Device.cpp.obj)
                0x0043d9dc                typeinfo for CanControllerDevice
 .rdata$_ZTI22Can_Virtual_HwProvider
                0x0043d9e8        0xc CMakeFiles\Basic_workflow.dir/objects.a(VirtualCan.cpp.obj)
                0x0043d9e8                typeinfo for Can_Virtual_HwProvider
 .rdata$_ZTI22SystemClockIdleHandler
                0x0043d9f4        0xc C:/ETAS/RTA-CAR_12.2.0/RTA-CAR/workspace/Basic_Workflow/build/../src/os\RTAOS.lib(vrtaSystemClockDevice.o)
                0x0043d9f4                typeinfo for SystemClockIdleHandler
 .rdata$_ZTI22vrtaSensorToggleSwitch
                0x0043da00        0xc C:/ETAS/RTA-CAR_12.2.0/RTA-CAR/workspace/Basic_Workflow/build/../src/os\RTAOS.lib(vrtaSampleDevices.o)
                0x0043da00                typeinfo for vrtaSensorToggleSwitch
 .rdata$_ZTI24vrtaSensorMultiwaySwitch
                0x0043da0c        0xc C:/ETAS/RTA-CAR_12.2.0/RTA-CAR/workspace/Basic_Workflow/build/../src/os\RTAOS.lib(vrtaSampleDevices.o)
                0x0043da0c                typeinfo for vrtaSensorMultiwaySwitch
 .rdata$_ZTI25vrtaActuatorDimmableLight
                0x0043da18        0xc C:/ETAS/RTA-CAR_12.2.0/RTA-CAR/workspace/Basic_Workflow/build/../src/os\RTAOS.lib(vrtaSampleDevices.o)
                0x0043da18                typeinfo for vrtaActuatorDimmableLight
 .rdata$_ZTI25vrtaSystemClockSubscriber
                0x0043da24        0x8 C:/ETAS/RTA-CAR_12.2.0/RTA-CAR/workspace/Basic_Workflow/build/../src/os\RTAOS.lib(vrtaSystemClock.o)
                0x0043da24                typeinfo for vrtaSystemClockSubscriber
 .rdata$_ZTI26vrtaSystemClockIdleHandler
                0x0043da2c        0xc C:/ETAS/RTA-CAR_12.2.0/RTA-CAR/workspace/Basic_Workflow/build/../src/os\RTAOS.lib(vrtaSystemClock.o)
                0x0043da2c                typeinfo for vrtaSystemClockIdleHandler
 .rdata$_ZTI27vrtaActuatorMultiColorLight
                0x0043da38        0xc C:/ETAS/RTA-CAR_12.2.0/RTA-CAR/workspace/Basic_Workflow/build/../src/os\RTAOS.lib(vrtaSampleDevices.o)
                0x0043da38                typeinfo for vrtaActuatorMultiColorLight
 .rdata$_ZTI34vrtaCustomTickSourceImplementation
                0x0043da44        0xc C:/ETAS/RTA-CAR_12.2.0/RTA-CAR/workspace/Basic_Workflow/build/../src/os\RTAOS.lib(vrtaSystemClock.o)
                0x0043da44                typeinfo for vrtaCustomTickSourceImplementation
 .rdata$_ZTI6Can_Hw
                0x0043da50        0x8 CMakeFiles\Basic_workflow.dir/objects.a(VirtualCan.cpp.obj)
                0x0043da50                typeinfo for Can_Hw
 .rdata$_ZTI6Logger
                0x0043da58        0xc C:/ETAS/RTA-CAR_12.2.0/RTA-CAR/workspace/Basic_Workflow/build/../src/os\RTAOS.lib(vrtaLoggerDevice.o)
                0x0043da58                typeinfo for Logger
 .rdata$_ZTI6OsCore
                0x0043da64        0xc C:/ETAS/RTA-CAR_12.2.0/RTA-CAR/workspace/Basic_Workflow/build/../src/os\RTAOS.lib(vrtaOSMonitorDevice.o)
                0x0043da64                typeinfo for OsCore
 .rdata$_ZTI6vrtaIO
                0x0043da70        0xc C:/ETAS/RTA-CAR_12.2.0/RTA-CAR/workspace/Basic_Workflow/build/../src/os\RTAOS.lib(vrtaSampleDevices.o)
                0x0043da70                typeinfo for vrtaIO
 .rdata$_ZTI9CanDevice
                0x0043da7c        0xc CMakeFiles\Basic_workflow.dir/objects.a(Can_Device.cpp.obj)
                0x0043da7c                typeinfo for CanDevice
 .rdata$_ZTI9McuDevice
                0x0043da88        0xc CMakeFiles\Basic_workflow.dir/objects.a(Mcu_Device.cpp.obj)
                0x0043da88                typeinfo for McuDevice
 .rdata$_ZTI9OsMonitor
                0x0043da94        0xc C:/ETAS/RTA-CAR_12.2.0/RTA-CAR/workspace/Basic_Workflow/build/../src/os\RTAOS.lib(vrtaOSMonitorDevice.o)
                0x0043da94                typeinfo for OsMonitor
 .rdata$_ZTI9vrtaClock
                0x0043daa0        0xc C:/ETAS/RTA-CAR_12.2.0/RTA-CAR/workspace/Basic_Workflow/build/../src/os\RTAOS.lib(vrtaSampleDevices.o)
                0x0043daa0                typeinfo for vrtaClock
 .rdata$_ZTIN10__cxxabiv115__forced_unwindE
                0x0043daac        0x8 c:/mingw/bin/../lib/gcc/mingw32/6.3.0\libstdc++.a(eh_personality.o)
                0x0043daac                typeinfo for __cxxabiv1::__forced_unwind
 .rdata$_ZTIN10__cxxabiv117__class_type_infoE
                0x0043dab4        0xc c:/mingw/bin/../lib/gcc/mingw32/6.3.0\libstdc++.a(vmi_class_type_info.o)
                0x0043dab4                typeinfo for __cxxabiv1::__class_type_info
 .rdata$_ZTIN10__cxxabiv119__foreign_exceptionE
                0x0043dac0        0x8 c:/mingw/bin/../lib/gcc/mingw32/6.3.0\libstdc++.a(eh_personality.o)
                0x0043dac0                typeinfo for __cxxabiv1::__foreign_exception
 .rdata$_ZTIN10__cxxabiv120__si_class_type_infoE
                0x0043dac8        0xc c:/mingw/bin/../lib/gcc/mingw32/6.3.0\libstdc++.a(si_class_type_info.o)
                0x0043dac8                typeinfo for __cxxabiv1::__si_class_type_info
 .rdata$_ZTIN10__cxxabiv121__vmi_class_type_infoE
                0x0043dad4        0xc c:/mingw/bin/../lib/gcc/mingw32/6.3.0\libstdc++.a(vmi_class_type_info.o)
                0x0043dad4                typeinfo for __cxxabiv1::__vmi_class_type_info
 .rdata$_ZTIN13VirtualDevice10ActionListE
                0x0043dae0        0xc C:/ETAS/RTA-CAR_12.2.0/RTA-CAR/workspace/Basic_Workflow/build/../src/os\RTAOS.lib(virtualDevice.o)
                0x0043dae0                typeinfo for VirtualDevice::ActionList
 .rdata$_ZTIN13VirtualDevice13StringBuilderE
                0x0043daec        0x8 C:/ETAS/RTA-CAR_12.2.0/RTA-CAR/workspace/Basic_Workflow/build/../src/os\RTAOS.lib(virtualDevice.o)
                0x0043daec                typeinfo for VirtualDevice::StringBuilder
 .rdata$_ZTIN13VirtualDevice7OptListE
                0x0043daf4        0xc C:/ETAS/RTA-CAR_12.2.0/RTA-CAR/workspace/Basic_Workflow/build/../src/os\RTAOS.lib(virtualDevice.o)
                0x0043daf4                typeinfo for VirtualDevice::OptList
 .rdata$_ZTIN13VirtualDevice9EventListE
                0x0043db00        0xc C:/ETAS/RTA-CAR_12.2.0/RTA-CAR/workspace/Basic_Workflow/build/../src/os\RTAOS.lib(virtualDevice.o)
                0x0043db00                typeinfo for VirtualDevice::EventList
 .rdata$_ZTIN9__gnu_cxx24__concurrence_lock_errorE
                0x0043db0c        0xc c:/mingw/bin/../lib/gcc/mingw32/6.3.0\libstdc++.a(eh_alloc.o)
                0x0043db0c                typeinfo for __gnu_cxx::__concurrence_lock_error
 .rdata$_ZTIN9__gnu_cxx26__concurrence_unlock_errorE
                0x0043db18        0xc c:/mingw/bin/../lib/gcc/mingw32/6.3.0\libstdc++.a(eh_alloc.o)
                0x0043db18                typeinfo for __gnu_cxx::__concurrence_unlock_error
 .rdata$_ZTISt10bad_typeid
                0x0043db24        0xc c:/mingw/bin/../lib/gcc/mingw32/6.3.0\libstdc++.a(eh_aux_runtime.o)
                0x0043db24                typeinfo for std::bad_typeid
 .rdata$_ZTISt13bad_exception
                0x0043db30        0xc c:/mingw/bin/../lib/gcc/mingw32/6.3.0\libstdc++.a(eh_personality.o)
                0x0043db30                typeinfo for std::bad_exception
 .rdata$_ZTISt20bad_array_new_length
                0x0043db3c        0xc c:/mingw/bin/../lib/gcc/mingw32/6.3.0\libstdc++.a(eh_aux_runtime.o)
                0x0043db3c                typeinfo for std::bad_array_new_length
 .rdata$_ZTISt8bad_cast
                0x0043db48        0xc c:/mingw/bin/../lib/gcc/mingw32/6.3.0\libstdc++.a(eh_aux_runtime.o)
                0x0043db48                typeinfo for std::bad_cast
 .rdata$_ZTISt9bad_alloc
                0x0043db54        0xc c:/mingw/bin/../lib/gcc/mingw32/6.3.0\libstdc++.a(eh_aux_runtime.o)
                0x0043db54                typeinfo for std::bad_alloc
 .rdata$_ZTISt9exception
                0x0043db60        0x8 c:/mingw/bin/../lib/gcc/mingw32/6.3.0\libstdc++.a(eh_personality.o)
                0x0043db60                typeinfo for std::exception
 .rdata$_ZTISt9type_info
                0x0043db68        0x8 c:/mingw/bin/../lib/gcc/mingw32/6.3.0\libstdc++.a(vmi_class_type_info.o)
                0x0043db68                typeinfo for std::type_info
 .rdata$_ZTS10vrtaDevice
                0x0043db70       0x10 C:/ETAS/RTA-CAR_12.2.0/RTA-CAR/workspace/Basic_Workflow/build/../src/os\RTAOS.lib(vrtaSampleDevices.o)
                0x0043db70                typeinfo name for vrtaDevice
 .rdata$_ZTS10vrtaSensor
                0x0043db80       0x10 C:/ETAS/RTA-CAR_12.2.0/RTA-CAR/workspace/Basic_Workflow/build/../src/os\RTAOS.lib(vrtaSampleDevices.o)
                0x0043db80                typeinfo name for vrtaSensor
 .rdata$_ZTS11vrtaCompare
                0x0043db90       0x10 C:/ETAS/RTA-CAR_12.2.0/RTA-CAR/workspace/Basic_Workflow/build/../src/os\RTAOS.lib(vrtaSampleDevices.o)
                0x0043db90                typeinfo name for vrtaCompare
 .rdata$_ZTS11vrtaCounter
                0x0043dba0       0x10 C:/ETAS/RTA-CAR_12.2.0/RTA-CAR/workspace/Basic_Workflow/build/../src/os\RTAOS.lib(vrtaSampleDevices.o)
                0x0043dba0                typeinfo name for vrtaCounter
 .rdata$_ZTS12vrtaActuator
                0x0043dbb0       0x10 C:/ETAS/RTA-CAR_12.2.0/RTA-CAR/workspace/Basic_Workflow/build/../src/os\RTAOS.lib(vrtaSampleDevices.o)
                0x0043dbb0                typeinfo name for vrtaActuator
 .rdata$_ZTS13Can_VirtualHw
                0x0043dbc0       0x10 CMakeFiles\Basic_workflow.dir/objects.a(VirtualCan.cpp.obj)
                0x0043dbc0                typeinfo name for Can_VirtualHw
 .rdata$_ZTS13OSIdleHandler
                0x0043dbd0       0x10 C:/ETAS/RTA-CAR_12.2.0/RTA-CAR/workspace/Basic_Workflow/build/../src/os\RTAOS.lib(vrtaOSMonitorDevice.o)
                0x0043dbd0                typeinfo name for OSIdleHandler
 .rdata$_ZTS13VirtualDevice
                0x0043dbe0       0x10 CMakeFiles\Basic_workflow.dir/objects.a(Can_Device.cpp.obj)
                0x0043dbe0                typeinfo name for VirtualDevice
 .rdata$_ZTS13vrtaBaseClock
                0x0043dbf0       0x10 C:/ETAS/RTA-CAR_12.2.0/RTA-CAR/workspace/Basic_Workflow/build/../src/os\RTAOS.lib(vrtaSampleDevices.o)
                0x0043dbf0                typeinfo name for vrtaBaseClock
 .rdata$_ZTS13vrtaUpCounter
                0x0043dc00       0x10 C:/ETAS/RTA-CAR_12.2.0/RTA-CAR/workspace/Basic_Workflow/build/../src/os\RTAOS.lib(vrtaSampleDevices.o)
                0x0043dc00                typeinfo name for vrtaUpCounter
 .rdata$_ZTS14Can_HwProvider
                0x0043dc10       0x14 CMakeFiles\Basic_workflow.dir/objects.a(VirtualCan.cpp.obj)
                0x0043dc10                typeinfo name for Can_HwProvider
 .rdata$_ZTS14vrtaComparable
                0x0043dc24       0x14 C:/ETAS/RTA-CAR_12.2.0/RTA-CAR/workspace/Basic_Workflow/build/../src/os\RTAOS.lib(vrtaSampleDevices.o)
                0x0043dc24                typeinfo name for vrtaComparable
 .rdata$_ZTS15MCAL_HwProvider
                0x0043dc38       0x14 CMakeFiles\Basic_workflow.dir/objects.a(VirtualCan.cpp.obj)
                0x0043dc38                typeinfo name for MCAL_HwProvider
 .rdata$_ZTS15vrtaDownCounter
                0x0043dc4c       0x14 C:/ETAS/RTA-CAR_12.2.0/RTA-CAR/workspace/Basic_Workflow/build/../src/os\RTAOS.lib(vrtaSampleDevices.o)
                0x0043dc4c                typeinfo name for vrtaDownCounter
 .rdata$_ZTS17SystemClockDevice
                0x0043dc60       0x14 C:/ETAS/RTA-CAR_12.2.0/RTA-CAR/workspace/Basic_Workflow/build/../src/os\RTAOS.lib(vrtaSystemClockDevice.o)
                0x0043dc60                typeinfo name for SystemClockDevice
 .rdata$_ZTS17vrtaActuatorLight
                0x0043dc74       0x14 C:/ETAS/RTA-CAR_12.2.0/RTA-CAR/workspace/Basic_Workflow/build/../src/os\RTAOS.lib(vrtaSampleDevices.o)
                0x0043dc74                typeinfo name for vrtaActuatorLight
 .rdata$_ZTS17vrtaAdaptiveClock
                0x0043dc88       0x14 C:/ETAS/RTA-CAR_12.2.0/RTA-CAR/workspace/Basic_Workflow/build/../src/os\RTAOS.lib(vrtaSampleDevices.o)
                0x0043dc88                typeinfo name for vrtaAdaptiveClock
 .rdata$_ZTS18vrtaIdleSubscriber
                0x0043dc9c       0x18 C:/ETAS/RTA-CAR_12.2.0/RTA-CAR/workspace/Basic_Workflow/build/../src/os\RTAOS.lib(vrtaSystemClock.o)
                0x0043dc9c                typeinfo name for vrtaIdleSubscriber
 .rdata$_ZTS19CanControllerDevice
                0x0043dcb4       0x18 CMakeFiles\Basic_workflow.dir/objects.a(Can_Device.cpp.obj)
                0x0043dcb4                typeinfo name for CanControllerDevice
 .rdata$_ZTS22Can_Virtual_HwProvider
                0x0043dccc       0x1c CMakeFiles\Basic_workflow.dir/objects.a(VirtualCan.cpp.obj)
                0x0043dccc                typeinfo name for Can_Virtual_HwProvider
 .rdata$_ZTS22SystemClockIdleHandler
                0x0043dce8       0x1c C:/ETAS/RTA-CAR_12.2.0/RTA-CAR/workspace/Basic_Workflow/build/../src/os\RTAOS.lib(vrtaSystemClockDevice.o)
                0x0043dce8                typeinfo name for SystemClockIdleHandler
 .rdata$_ZTS22vrtaSensorToggleSwitch
                0x0043dd04       0x1c C:/ETAS/RTA-CAR_12.2.0/RTA-CAR/workspace/Basic_Workflow/build/../src/os\RTAOS.lib(vrtaSampleDevices.o)
                0x0043dd04                typeinfo name for vrtaSensorToggleSwitch
 .rdata$_ZTS24vrtaSensorMultiwaySwitch
                0x0043dd20       0x1c C:/ETAS/RTA-CAR_12.2.0/RTA-CAR/workspace/Basic_Workflow/build/../src/os\RTAOS.lib(vrtaSampleDevices.o)
                0x0043dd20                typeinfo name for vrtaSensorMultiwaySwitch
 .rdata$_ZTS25vrtaActuatorDimmableLight
                0x0043dd3c       0x1c C:/ETAS/RTA-CAR_12.2.0/RTA-CAR/workspace/Basic_Workflow/build/../src/os\RTAOS.lib(vrtaSampleDevices.o)
                0x0043dd3c                typeinfo name for vrtaActuatorDimmableLight
 .rdata$_ZTS25vrtaSystemClockSubscriber
                0x0043dd58       0x1c C:/ETAS/RTA-CAR_12.2.0/RTA-CAR/workspace/Basic_Workflow/build/../src/os\RTAOS.lib(vrtaSystemClock.o)
                0x0043dd58                typeinfo name for vrtaSystemClockSubscriber
 .rdata$_ZTS26vrtaSystemClockIdleHandler
                0x0043dd74       0x20 C:/ETAS/RTA-CAR_12.2.0/RTA-CAR/workspace/Basic_Workflow/build/../src/os\RTAOS.lib(vrtaSystemClock.o)
                0x0043dd74                typeinfo name for vrtaSystemClockIdleHandler
 .rdata$_ZTS27vrtaActuatorMultiColorLight
                0x0043dd94       0x20 C:/ETAS/RTA-CAR_12.2.0/RTA-CAR/workspace/Basic_Workflow/build/../src/os\RTAOS.lib(vrtaSampleDevices.o)
                0x0043dd94                typeinfo name for vrtaActuatorMultiColorLight
 *fill*         0x0043ddb4        0xc 
 .rdata$_ZTS34vrtaCustomTickSourceImplementation
                0x0043ddc0       0x40 C:/ETAS/RTA-CAR_12.2.0/RTA-CAR/workspace/Basic_Workflow/build/../src/os\RTAOS.lib(vrtaSystemClock.o)
                0x0043ddc0                typeinfo name for vrtaCustomTickSourceImplementation
 .rdata$_ZTS6Can_Hw
                0x0043de00        0x8 CMakeFiles\Basic_workflow.dir/objects.a(VirtualCan.cpp.obj)
                0x0043de00                typeinfo name for Can_Hw
 .rdata$_ZTS6Logger
                0x0043de08        0x8 C:/ETAS/RTA-CAR_12.2.0/RTA-CAR/workspace/Basic_Workflow/build/../src/os\RTAOS.lib(vrtaLoggerDevice.o)
                0x0043de08                typeinfo name for Logger
 .rdata$_ZTS6OsCore
                0x0043de10        0x8 C:/ETAS/RTA-CAR_12.2.0/RTA-CAR/workspace/Basic_Workflow/build/../src/os\RTAOS.lib(vrtaOSMonitorDevice.o)
                0x0043de10                typeinfo name for OsCore
 .rdata$_ZTS6vrtaIO
                0x0043de18        0x8 C:/ETAS/RTA-CAR_12.2.0/RTA-CAR/workspace/Basic_Workflow/build/../src/os\RTAOS.lib(vrtaSampleDevices.o)
                0x0043de18                typeinfo name for vrtaIO
 .rdata$_ZTS9CanDevice
                0x0043de20        0xc CMakeFiles\Basic_workflow.dir/objects.a(Can_Device.cpp.obj)
                0x0043de20                typeinfo name for CanDevice
 .rdata$_ZTS9McuDevice
                0x0043de2c        0xc CMakeFiles\Basic_workflow.dir/objects.a(Mcu_Device.cpp.obj)
                0x0043de2c                typeinfo name for McuDevice
 .rdata$_ZTS9OsMonitor
                0x0043de38        0xc C:/ETAS/RTA-CAR_12.2.0/RTA-CAR/workspace/Basic_Workflow/build/../src/os\RTAOS.lib(vrtaOSMonitorDevice.o)
                0x0043de38                typeinfo name for OsMonitor
 .rdata$_ZTS9vrtaClock
                0x0043de44        0xc C:/ETAS/RTA-CAR_12.2.0/RTA-CAR/workspace/Basic_Workflow/build/../src/os\RTAOS.lib(vrtaSampleDevices.o)
                0x0043de44                typeinfo name for vrtaClock
 *fill*         0x0043de50       0x10 
 .rdata$_ZTSN10__cxxabiv115__forced_unwindE
                0x0043de60       0x20 c:/mingw/bin/../lib/gcc/mingw32/6.3.0\libstdc++.a(eh_personality.o)
                0x0043de60                typeinfo name for __cxxabiv1::__forced_unwind
 .rdata$_ZTSN10__cxxabiv117__class_type_infoE
                0x0043de80       0x40 c:/mingw/bin/../lib/gcc/mingw32/6.3.0\libstdc++.a(vmi_class_type_info.o)
                0x0043de80                typeinfo name for __cxxabiv1::__class_type_info
 .rdata$_ZTSN10__cxxabiv119__foreign_exceptionE
                0x0043dec0       0x40 c:/mingw/bin/../lib/gcc/mingw32/6.3.0\libstdc++.a(eh_personality.o)
                0x0043dec0                typeinfo name for __cxxabiv1::__foreign_exception
 .rdata$_ZTSN10__cxxabiv120__si_class_type_infoE
                0x0043df00       0x40 c:/mingw/bin/../lib/gcc/mingw32/6.3.0\libstdc++.a(si_class_type_info.o)
                0x0043df00                typeinfo name for __cxxabiv1::__si_class_type_info
 .rdata$_ZTSN10__cxxabiv121__vmi_class_type_infoE
                0x0043df40       0x40 c:/mingw/bin/../lib/gcc/mingw32/6.3.0\libstdc++.a(vmi_class_type_info.o)
                0x0043df40                typeinfo name for __cxxabiv1::__vmi_class_type_info
 .rdata$_ZTSN13VirtualDevice10ActionListE
                0x0043df80       0x20 C:/ETAS/RTA-CAR_12.2.0/RTA-CAR/workspace/Basic_Workflow/build/../src/os\RTAOS.lib(virtualDevice.o)
                0x0043df80                typeinfo name for VirtualDevice::ActionList
 .rdata$_ZTSN13VirtualDevice13StringBuilderE
                0x0043dfa0       0x40 C:/ETAS/RTA-CAR_12.2.0/RTA-CAR/workspace/Basic_Workflow/build/../src/os\RTAOS.lib(virtualDevice.o)
                0x0043dfa0                typeinfo name for VirtualDevice::StringBuilder
 .rdata$_ZTSN13VirtualDevice7OptListE
                0x0043dfe0       0x1c C:/ETAS/RTA-CAR_12.2.0/RTA-CAR/workspace/Basic_Workflow/build/../src/os\RTAOS.lib(virtualDevice.o)
                0x0043dfe0                typeinfo name for VirtualDevice::OptList
 .rdata$_ZTSN13VirtualDevice9EventListE
                0x0043dffc       0x1c C:/ETAS/RTA-CAR_12.2.0/RTA-CAR/workspace/Basic_Workflow/build/../src/os\RTAOS.lib(virtualDevice.o)
                0x0043dffc                typeinfo name for VirtualDevice::EventList
 *fill*         0x0043e018        0x8 
 .rdata$_ZTSN9__gnu_cxx24__concurrence_lock_errorE
                0x0043e020       0x40 c:/mingw/bin/../lib/gcc/mingw32/6.3.0\libstdc++.a(eh_alloc.o)
                0x0043e020                typeinfo name for __gnu_cxx::__concurrence_lock_error
 .rdata$_ZTSN9__gnu_cxx26__concurrence_unlock_errorE
                0x0043e060       0x40 c:/mingw/bin/../lib/gcc/mingw32/6.3.0\libstdc++.a(eh_alloc.o)
                0x0043e060                typeinfo name for __gnu_cxx::__concurrence_unlock_error
 .rdata$_ZTSSt10bad_typeid
                0x0043e0a0       0x10 c:/mingw/bin/../lib/gcc/mingw32/6.3.0\libstdc++.a(eh_aux_runtime.o)
                0x0043e0a0                typeinfo name for std::bad_typeid
 .rdata$_ZTSSt13bad_exception
                0x0043e0b0       0x14 c:/mingw/bin/../lib/gcc/mingw32/6.3.0\libstdc++.a(eh_personality.o)
                0x0043e0b0                typeinfo name for std::bad_exception
 .rdata$_ZTSSt20bad_array_new_length
                0x0043e0c4       0x1c c:/mingw/bin/../lib/gcc/mingw32/6.3.0\libstdc++.a(eh_aux_runtime.o)
                0x0043e0c4                typeinfo name for std::bad_array_new_length
 .rdata$_ZTSSt8bad_cast
                0x0043e0e0        0xc c:/mingw/bin/../lib/gcc/mingw32/6.3.0\libstdc++.a(eh_aux_runtime.o)
                0x0043e0e0                typeinfo name for std::bad_cast
 .rdata$_ZTSSt9bad_alloc
                0x0043e0ec       0x10 c:/mingw/bin/../lib/gcc/mingw32/6.3.0\libstdc++.a(eh_aux_runtime.o)
                0x0043e0ec                typeinfo name for std::bad_alloc
 .rdata$_ZTSSt9exception
                0x0043e0fc       0x10 c:/mingw/bin/../lib/gcc/mingw32/6.3.0\libstdc++.a(eh_personality.o)
                0x0043e0fc                typeinfo name for std::exception
 .rdata$_ZTSSt9type_info
                0x0043e10c       0x10 c:/mingw/bin/../lib/gcc/mingw32/6.3.0\libstdc++.a(vmi_class_type_info.o)
                0x0043e10c                typeinfo name for std::type_info
 .rdata$_ZTV10vrtaDevice
                0x0043e11c       0x2c C:/ETAS/RTA-CAR_12.2.0/RTA-CAR/workspace/Basic_Workflow/build/../src/os\RTAOS.lib(vrtaCore.o)
                0x0043e11c                vtable for vrtaDevice
 .rdata$_ZTV10vrtaSensor
                0x0043e148       0x34 C:/ETAS/RTA-CAR_12.2.0/RTA-CAR/workspace/Basic_Workflow/build/../src/os\RTAOS.lib(vrtaSampleDevices.o)
                0x0043e148                vtable for vrtaSensor
 .rdata$_ZTV11vrtaCompare
                0x0043e17c       0x2c C:/ETAS/RTA-CAR_12.2.0/RTA-CAR/workspace/Basic_Workflow/build/../src/os\RTAOS.lib(vrtaSampleDevices.o)
                0x0043e17c                vtable for vrtaCompare
 .rdata$_ZTV11vrtaCounter
                0x0043e1a8       0x38 C:/ETAS/RTA-CAR_12.2.0/RTA-CAR/workspace/Basic_Workflow/build/../src/os\RTAOS.lib(vrtaSampleDevices.o)
                0x0043e1a8                vtable for vrtaCounter
 .rdata$_ZTV12vrtaActuator
                0x0043e1e0       0x34 C:/ETAS/RTA-CAR_12.2.0/RTA-CAR/workspace/Basic_Workflow/build/../src/os\RTAOS.lib(vrtaSampleDevices.o)
                0x0043e1e0                vtable for vrtaActuator
 .rdata$_ZTV13Can_VirtualHw
                0x0043e214       0x70 CMakeFiles\Basic_workflow.dir/objects.a(VirtualCan.cpp.obj)
                0x0043e214                vtable for Can_VirtualHw
 .rdata$_ZTV13OSIdleHandler
                0x0043e284        0xc C:/ETAS/RTA-CAR_12.2.0/RTA-CAR/workspace/Basic_Workflow/build/../src/os\RTAOS.lib(vrtaOSMonitorDevice.o)
                0x0043e284                vtable for OSIdleHandler
 .rdata$_ZTV13VirtualDevice
                0x0043e290       0x34 C:/ETAS/RTA-CAR_12.2.0/RTA-CAR/workspace/Basic_Workflow/build/../src/os\RTAOS.lib(virtualDevice.o)
                0x0043e290                vtable for VirtualDevice
 .rdata$_ZTV13vrtaBaseClock
                0x0043e2c4       0x5c C:/ETAS/RTA-CAR_12.2.0/RTA-CAR/workspace/Basic_Workflow/build/../src/os\RTAOS.lib(vrtaSampleDevices.o)
                0x0043e2c4                vtable for vrtaBaseClock
 .rdata$_ZTV13vrtaUpCounter
                0x0043e320       0x38 C:/ETAS/RTA-CAR_12.2.0/RTA-CAR/workspace/Basic_Workflow/build/../src/os\RTAOS.lib(vrtaSampleDevices.o)
                0x0043e320                vtable for vrtaUpCounter
 .rdata$_ZTV14Can_HwProvider
                0x0043e358       0x1c CMakeFiles\Basic_workflow.dir/objects.a(VirtualCan.cpp.obj)
                0x0043e358                vtable for Can_HwProvider
 .rdata$_ZTV14vrtaComparable
                0x0043e374       0x34 C:/ETAS/RTA-CAR_12.2.0/RTA-CAR/workspace/Basic_Workflow/build/../src/os\RTAOS.lib(vrtaSampleDevices.o)
                0x0043e374                vtable for vrtaComparable
 .rdata$_ZTV15MCAL_HwProvider
                0x0043e3a8       0x18 CMakeFiles\Basic_workflow.dir/objects.a(VirtualCan.cpp.obj)
                0x0043e3a8                vtable for MCAL_HwProvider
 .rdata$_ZTV15vrtaDownCounter
                0x0043e3c0       0x38 C:/ETAS/RTA-CAR_12.2.0/RTA-CAR/workspace/Basic_Workflow/build/../src/os\RTAOS.lib(vrtaSampleDevices.o)
                0x0043e3c0                vtable for vrtaDownCounter
 .rdata$_ZTV17SystemClockDevice
                0x0043e3f8       0x34 C:/ETAS/RTA-CAR_12.2.0/RTA-CAR/workspace/Basic_Workflow/build/../src/os\RTAOS.lib(vrtaSystemClockDevice.o)
                0x0043e3f8                vtable for SystemClockDevice
 .rdata$_ZTV17vrtaActuatorLight
                0x0043e42c       0x34 C:/ETAS/RTA-CAR_12.2.0/RTA-CAR/workspace/Basic_Workflow/build/../src/os\RTAOS.lib(vrtaSampleDevices.o)
                0x0043e42c                vtable for vrtaActuatorLight
 .rdata$_ZTV17vrtaAdaptiveClock
                0x0043e460       0x5c C:/ETAS/RTA-CAR_12.2.0/RTA-CAR/workspace/Basic_Workflow/build/../src/os\RTAOS.lib(vrtaSampleDevices.o)
                0x0043e460                vtable for vrtaAdaptiveClock
 .rdata$_ZTV18vrtaIdleSubscriber
                0x0043e4bc        0xc C:/ETAS/RTA-CAR_12.2.0/RTA-CAR/workspace/Basic_Workflow/build/../src/os\RTAOS.lib(vrtaIdleHandling.o)
                0x0043e4bc                vtable for vrtaIdleSubscriber
 .rdata$_ZTV19CanControllerDevice
                0x0043e4c8       0x34 CMakeFiles\Basic_workflow.dir/objects.a(Can_Device.cpp.obj)
                0x0043e4c8                vtable for CanControllerDevice
 .rdata$_ZTV22Can_Virtual_HwProvider
                0x0043e4fc       0x1c CMakeFiles\Basic_workflow.dir/objects.a(VirtualCan.cpp.obj)
                0x0043e4fc                vtable for Can_Virtual_HwProvider
 .rdata$_ZTV22SystemClockIdleHandler
                0x0043e518        0xc C:/ETAS/RTA-CAR_12.2.0/RTA-CAR/workspace/Basic_Workflow/build/../src/os\RTAOS.lib(vrtaSystemClockDevice.o)
                0x0043e518                vtable for SystemClockIdleHandler
 .rdata$_ZTV22vrtaSensorToggleSwitch
                0x0043e524       0x34 C:/ETAS/RTA-CAR_12.2.0/RTA-CAR/workspace/Basic_Workflow/build/../src/os\RTAOS.lib(vrtaSampleDevices.o)
                0x0043e524                vtable for vrtaSensorToggleSwitch
 .rdata$_ZTV24vrtaSensorMultiwaySwitch
                0x0043e558       0x34 C:/ETAS/RTA-CAR_12.2.0/RTA-CAR/workspace/Basic_Workflow/build/../src/os\RTAOS.lib(vrtaSampleDevices.o)
                0x0043e558                vtable for vrtaSensorMultiwaySwitch
 .rdata$_ZTV25vrtaActuatorDimmableLight
                0x0043e58c       0x34 C:/ETAS/RTA-CAR_12.2.0/RTA-CAR/workspace/Basic_Workflow/build/../src/os\RTAOS.lib(vrtaSampleDevices.o)
                0x0043e58c                vtable for vrtaActuatorDimmableLight
 .rdata$_ZTV25vrtaSystemClockSubscriber
                0x0043e5c0       0x14 C:/ETAS/RTA-CAR_12.2.0/RTA-CAR/workspace/Basic_Workflow/build/../src/os\RTAOS.lib(vrtaSystemClock.o)
                0x0043e5c0                vtable for vrtaSystemClockSubscriber
 .rdata$_ZTV26vrtaSystemClockIdleHandler
                0x0043e5d4        0xc C:/ETAS/RTA-CAR_12.2.0/RTA-CAR/workspace/Basic_Workflow/build/../src/os\RTAOS.lib(vrtaSystemClock.o)
                0x0043e5d4                vtable for vrtaSystemClockIdleHandler
 .rdata$_ZTV27vrtaActuatorMultiColorLight
                0x0043e5e0       0x34 C:/ETAS/RTA-CAR_12.2.0/RTA-CAR/workspace/Basic_Workflow/build/../src/os\RTAOS.lib(vrtaSampleDevices.o)
                0x0043e5e0                vtable for vrtaActuatorMultiColorLight
 .rdata$_ZTV34vrtaCustomTickSourceImplementation
                0x0043e614       0x14 C:/ETAS/RTA-CAR_12.2.0/RTA-CAR/workspace/Basic_Workflow/build/../src/os\RTAOS.lib(vrtaSystemClock.o)
                0x0043e614                vtable for vrtaCustomTickSourceImplementation
 .rdata$_ZTV6Can_Hw
                0x0043e628       0x70 CMakeFiles\Basic_workflow.dir/objects.a(VirtualCan.cpp.obj)
                0x0043e628                vtable for Can_Hw
 .rdata$_ZTV6Logger
                0x0043e698       0x2c C:/ETAS/RTA-CAR_12.2.0/RTA-CAR/workspace/Basic_Workflow/build/../src/os\RTAOS.lib(vrtaLoggerDevice.o)
                0x0043e698                vtable for Logger
 .rdata$_ZTV6OsCore
                0x0043e6c4       0x34 C:/ETAS/RTA-CAR_12.2.0/RTA-CAR/workspace/Basic_Workflow/build/../src/os\RTAOS.lib(vrtaOSMonitorDevice.o)
                0x0043e6c4                vtable for OsCore
 .rdata$_ZTV6vrtaIO
                0x0043e6f8       0x2c C:/ETAS/RTA-CAR_12.2.0/RTA-CAR/workspace/Basic_Workflow/build/../src/os\RTAOS.lib(vrtaSampleDevices.o)
                0x0043e6f8                vtable for vrtaIO
 .rdata$_ZTV9CanDevice
                0x0043e724       0x34 CMakeFiles\Basic_workflow.dir/objects.a(Can_Device.cpp.obj)
                0x0043e724                vtable for CanDevice
 .rdata$_ZTV9McuDevice
                0x0043e758       0x34 CMakeFiles\Basic_workflow.dir/objects.a(Mcu_Device.cpp.obj)
                0x0043e758                vtable for McuDevice
 .rdata$_ZTV9OsMonitor
                0x0043e78c       0x34 C:/ETAS/RTA-CAR_12.2.0/RTA-CAR/workspace/Basic_Workflow/build/../src/os\RTAOS.lib(vrtaOSMonitorDevice.o)
                0x0043e78c                vtable for OsMonitor
 .rdata$_ZTV9vrtaClock
                0x0043e7c0       0x5c C:/ETAS/RTA-CAR_12.2.0/RTA-CAR/workspace/Basic_Workflow/build/../src/os\RTAOS.lib(vrtaSampleDevices.o)
                0x0043e7c0                vtable for vrtaClock
 .rdata$_ZTVN10__cxxabiv115__forced_unwindE
                0x0043e81c       0x14 c:/mingw/bin/../lib/gcc/mingw32/6.3.0\libstdc++.a(eh_exception.o)
                0x0043e81c                vtable for __cxxabiv1::__forced_unwind
 .rdata$_ZTVN10__cxxabiv117__class_type_infoE
                0x0043e830       0x2c c:/mingw/bin/../lib/gcc/mingw32/6.3.0\libstdc++.a(class_type_info.o)
                0x0043e830                vtable for __cxxabiv1::__class_type_info
 .rdata$_ZTVN10__cxxabiv119__foreign_exceptionE
                0x0043e85c       0x14 c:/mingw/bin/../lib/gcc/mingw32/6.3.0\libstdc++.a(eh_exception.o)
                0x0043e85c                vtable for __cxxabiv1::__foreign_exception
 .rdata$_ZTVN10__cxxabiv120__si_class_type_infoE
                0x0043e870       0x2c c:/mingw/bin/../lib/gcc/mingw32/6.3.0\libstdc++.a(si_class_type_info.o)
                0x0043e870                vtable for __cxxabiv1::__si_class_type_info
 .rdata$_ZTVN10__cxxabiv121__vmi_class_type_infoE
                0x0043e89c       0x2c c:/mingw/bin/../lib/gcc/mingw32/6.3.0\libstdc++.a(vmi_class_type_info.o)
                0x0043e89c                vtable for __cxxabiv1::__vmi_class_type_info
 .rdata$_ZTVN13VirtualDevice10ActionListE
                0x0043e8c8       0x14 C:/ETAS/RTA-CAR_12.2.0/RTA-CAR/workspace/Basic_Workflow/build/../src/os\RTAOS.lib(virtualDevice.o)
                0x0043e8c8                vtable for VirtualDevice::ActionList
 .rdata$_ZTVN13VirtualDevice13StringBuilderE
                0x0043e8dc       0x14 C:/ETAS/RTA-CAR_12.2.0/RTA-CAR/workspace/Basic_Workflow/build/../src/os\RTAOS.lib(virtualDevice.o)
                0x0043e8dc                vtable for VirtualDevice::StringBuilder
 .rdata$_ZTVN13VirtualDevice7OptListE
                0x0043e8f0       0x14 C:/ETAS/RTA-CAR_12.2.0/RTA-CAR/workspace/Basic_Workflow/build/../src/os\RTAOS.lib(virtualDevice.o)
                0x0043e8f0                vtable for VirtualDevice::OptList
 .rdata$_ZTVN13VirtualDevice9EventListE
                0x0043e904       0x14 C:/ETAS/RTA-CAR_12.2.0/RTA-CAR/workspace/Basic_Workflow/build/../src/os\RTAOS.lib(virtualDevice.o)
                0x0043e904                vtable for VirtualDevice::EventList
 .rdata$_ZTVN9__gnu_cxx24__concurrence_lock_errorE
                0x0043e918       0x14 c:/mingw/bin/../lib/gcc/mingw32/6.3.0\libstdc++.a(eh_alloc.o)
                0x0043e918                vtable for __gnu_cxx::__concurrence_lock_error
 .rdata$_ZTVN9__gnu_cxx26__concurrence_unlock_errorE
                0x0043e92c       0x14 c:/mingw/bin/../lib/gcc/mingw32/6.3.0\libstdc++.a(eh_alloc.o)
                0x0043e92c                vtable for __gnu_cxx::__concurrence_unlock_error
 .rdata$_ZTVSt10bad_typeid
                0x0043e940       0x14 c:/mingw/bin/../lib/gcc/mingw32/6.3.0\libstdc++.a(bad_typeid.o)
                0x0043e940                vtable for std::bad_typeid
 .rdata$_ZTVSt13bad_exception
                0x0043e954       0x14 c:/mingw/bin/../lib/gcc/mingw32/6.3.0\libstdc++.a(eh_exception.o)
                0x0043e954                vtable for std::bad_exception
 .rdata$_ZTVSt20bad_array_new_length
                0x0043e968       0x14 c:/mingw/bin/../lib/gcc/mingw32/6.3.0\libstdc++.a(bad_array_new.o)
                0x0043e968                vtable for std::bad_array_new_length
 .rdata$_ZTVSt8bad_cast
                0x0043e97c       0x14 c:/mingw/bin/../lib/gcc/mingw32/6.3.0\libstdc++.a(bad_cast.o)
                0x0043e97c                vtable for std::bad_cast
 .rdata$_ZTVSt9bad_alloc
                0x0043e990       0x14 c:/mingw/bin/../lib/gcc/mingw32/6.3.0\libstdc++.a(bad_alloc.o)
                0x0043e990                vtable for std::bad_alloc
 .rdata$_ZTVSt9exception
                0x0043e9a4       0x14 c:/mingw/bin/../lib/gcc/mingw32/6.3.0\libstdc++.a(eh_exception.o)
                0x0043e9a4                vtable for std::exception
 .rdata$_ZTVSt9type_info
                0x0043e9b8       0x20 c:/mingw/bin/../lib/gcc/mingw32/6.3.0\libstdc++.a(tinfo.o)
                0x0043e9b8                vtable for std::type_info
 .rdata$zzz     0x0043e9d8       0x14 c:/mingw/bin/../lib/gcc/mingw32/6.3.0/../../../crt2.o
 .rdata$zzz     0x0043e9ec       0x14 c:/mingw/bin/../lib/gcc/mingw32/6.3.0/crtbegin.o
 .rdata$zzz     0x0043ea00       0x24 CMakeFiles\Basic_workflow.dir/objects.a(unity_4_c.c.obj)
 .rdata$zzz     0x0043ea24       0x24 CMakeFiles\Basic_workflow.dir/objects.a(unity_3_c.c.obj)
 .rdata$zzz     0x0043ea48       0x24 CMakeFiles\Basic_workflow.dir/objects.a(unity_2_c.c.obj)
 .rdata$zzz     0x0043ea6c       0x24 CMakeFiles\Basic_workflow.dir/objects.a(unity_1_c.c.obj)
 .rdata$zzz     0x0043ea90       0x24 CMakeFiles\Basic_workflow.dir/objects.a(unity_0_c.c.obj)
 .rdata$zzz     0x0043eab4       0x24 CMakeFiles\Basic_workflow.dir/objects.a(MySWC.c.obj)
 .rdata$zzz     0x0043ead8       0x24 CMakeFiles\Basic_workflow.dir/objects.a(Det.c.obj)
 .rdata$zzz     0x0043eafc       0x24 CMakeFiles\Basic_workflow.dir/objects.a(EcuM_Cfg.c.obj)
 .rdata$zzz     0x0043eb20       0x24 CMakeFiles\Basic_workflow.dir/objects.a(EcuM_Cfg_PbExt.c.obj)
 .rdata$zzz     0x0043eb44       0x24 CMakeFiles\Basic_workflow.dir/objects.a(EcuM_Cfg_RbMo.c.obj)
 .rdata$zzz     0x0043eb68       0x24 CMakeFiles\Basic_workflow.dir/objects.a(EcuM_Cfg_Shutdown.c.obj)
 .rdata$zzz     0x0043eb8c       0x24 CMakeFiles\Basic_workflow.dir/objects.a(EcuM_Cfg_Sleep.c.obj)
 .rdata$zzz     0x0043ebb0       0x24 CMakeFiles\Basic_workflow.dir/objects.a(EcuM_Cfg_Startup.c.obj)
 .rdata$zzz     0x0043ebd4       0x24 CMakeFiles\Basic_workflow.dir/objects.a(EcuM_Cfg_SynchPoint.c.obj)
 .rdata$zzz     0x0043ebf8       0x24 CMakeFiles\Basic_workflow.dir/objects.a(EcuM_Lcfg.c.obj)
 .rdata$zzz     0x0043ec1c       0x24 CMakeFiles\Basic_workflow.dir/objects.a(EcuM_PBcfg.c.obj)
 .rdata$zzz     0x0043ec40       0x24 CMakeFiles\Basic_workflow.dir/objects.a(EcuM_Callout_Stubs.c.obj)
 .rdata$zzz     0x0043ec64       0x24 CMakeFiles\Basic_workflow.dir/objects.a(EcuM_BootTarget.c.obj)
 .rdata$zzz     0x0043ec88       0x24 CMakeFiles\Basic_workflow.dir/objects.a(EcuM_CurrentState.c.obj)
 .rdata$zzz     0x0043ecac       0x24 CMakeFiles\Basic_workflow.dir/objects.a(EcuM_KillAllRequests.c.obj)
 .rdata$zzz     0x0043ecd0       0x24 CMakeFiles\Basic_workflow.dir/objects.a(EcuM_MainFunction.c.obj)
 .rdata$zzz     0x0043ecf4       0x24 CMakeFiles\Basic_workflow.dir/objects.a(EcuM_Misc.c.obj)
 .rdata$zzz     0x0043ed18       0x24 CMakeFiles\Basic_workflow.dir/objects.a(EcuM_Prv.c.obj)
 .rdata$zzz     0x0043ed3c       0x24 CMakeFiles\Basic_workflow.dir/objects.a(EcuM_Prv_RteActions.c.obj)
 .rdata$zzz     0x0043ed60       0x24 CMakeFiles\Basic_workflow.dir/objects.a(EcuM_ReleasePOST_RUN.c.obj)
 .rdata$zzz     0x0043ed84       0x24 CMakeFiles\Basic_workflow.dir/objects.a(EcuM_ReleaseRUN.c.obj)
 .rdata$zzz     0x0043eda8       0x24 CMakeFiles\Basic_workflow.dir/objects.a(EcuM_RequestPOST_RUN.c.obj)
 .rdata$zzz     0x0043edcc       0x24 CMakeFiles\Basic_workflow.dir/objects.a(EcuM_RequestRUN.c.obj)
 .rdata$zzz     0x0043edf0       0x24 CMakeFiles\Basic_workflow.dir/objects.a(EcuM_SetState.c.obj)
 .rdata$zzz     0x0043ee14       0x24 CMakeFiles\Basic_workflow.dir/objects.a(EcuM_Shutdown.c.obj)
 .rdata$zzz     0x0043ee38       0x24 CMakeFiles\Basic_workflow.dir/objects.a(EcuM_ShutdownServices.c.obj)
 .rdata$zzz     0x0043ee5c       0x24 CMakeFiles\Basic_workflow.dir/objects.a(EcuM_Sleep.c.obj)
 .rdata$zzz     0x0043ee80       0x24 CMakeFiles\Basic_workflow.dir/objects.a(EcuM_Startup.c.obj)
 .rdata$zzz     0x0043eea4       0x24 CMakeFiles\Basic_workflow.dir/objects.a(EcuM_WakeupServices.c.obj)
 .rdata$zzz     0x0043eec8       0x24 CMakeFiles\Basic_workflow.dir/objects.a(Rte.c.obj)
 .rdata$zzz     0x0043eeec       0x24 CMakeFiles\Basic_workflow.dir/objects.a(Rte_Lib.c.obj)
 .rdata$zzz     0x0043ef10       0x24 CMakeFiles\Basic_workflow.dir/objects.a(Can_Device.cpp.obj)
 .rdata$zzz     0x0043ef34       0x24 CMakeFiles\Basic_workflow.dir/objects.a(Can_HwProvider.cpp.obj)
 .rdata$zzz     0x0043ef58       0x24 CMakeFiles\Basic_workflow.dir/objects.a(Can_Implementation.cpp.obj)
 .rdata$zzz     0x0043ef7c       0x24 CMakeFiles\Basic_workflow.dir/objects.a(Mcu_Device.cpp.obj)
 .rdata$zzz     0x0043efa0       0x24 CMakeFiles\Basic_workflow.dir/objects.a(Mcu_Implementation.cpp.obj)
 .rdata$zzz     0x0043efc4       0x24 CMakeFiles\Basic_workflow.dir/objects.a(VirtualCan.cpp.obj)
 .rdata$zzz     0x0043efe8       0x24 CMakeFiles\Basic_workflow.dir/objects.a(VRTA_SystemClock.cpp.obj)
 .rdata$zzz     0x0043f00c       0x24 CMakeFiles\Basic_workflow.dir/objects.a(Vrta_Cfg.cpp.obj)
 .rdata$zzz     0x0043f030       0x24 CMakeFiles\Basic_workflow.dir/objects.a(target.cpp.obj)
 .rdata$zzz     0x0043f054       0x24 C:/ETAS/RTA-CAR_12.2.0/RTA-CAR/workspace/Basic_Workflow/build/../src/os\RTAOS.lib(TerminateTask.o)
 .rdata$zzz     0x0043f078       0x24 C:/ETAS/RTA-CAR_12.2.0/RTA-CAR/workspace/Basic_Workflow/build/../src/os\RTAOS.lib(Os_SetJmp.o)
 .rdata$zzz     0x0043f09c       0x24 C:/ETAS/RTA-CAR_12.2.0/RTA-CAR/workspace/Basic_Workflow/build/../src/os\RTAOS.lib(GetTaskID.o)
 .rdata$zzz     0x0043f0c0       0x24 C:/ETAS/RTA-CAR_12.2.0/RTA-CAR/workspace/Basic_Workflow/build/../src/os\RTAOS.lib(SuspendOSInterrupts.o)
 .rdata$zzz     0x0043f0e4       0x24 C:/ETAS/RTA-CAR_12.2.0/RTA-CAR/workspace/Basic_Workflow/build/../src/os\RTAOS.lib(Os_Cfg_Counters.o)
 .rdata$zzz     0x0043f108       0x24 C:/ETAS/RTA-CAR_12.2.0/RTA-CAR/workspace/Basic_Workflow/build/../src/os\RTAOS.lib(SuspendAllInterrupts.o)
 .rdata$zzz     0x0043f12c       0x24 C:/ETAS/RTA-CAR_12.2.0/RTA-CAR/workspace/Basic_Workflow/build/../src/os\RTAOS.lib(Os_Cfg.o)
 .rdata$zzz     0x0043f150       0x24 C:/ETAS/RTA-CAR_12.2.0/RTA-CAR/workspace/Basic_Workflow/build/../src/os\RTAOS.lib(StopScheduleTable.o)
 .rdata$zzz     0x0043f174       0x24 C:/ETAS/RTA-CAR_12.2.0/RTA-CAR/workspace/Basic_Workflow/build/../src/os\RTAOS.lib(ResumeOSInterrupts.o)
 .rdata$zzz     0x0043f198       0x24 C:/ETAS/RTA-CAR_12.2.0/RTA-CAR/workspace/Basic_Workflow/build/../src/os\RTAOS.lib(vrtaSystemClock.o)
 .rdata$zzz     0x0043f1bc       0x24 C:/ETAS/RTA-CAR_12.2.0/RTA-CAR/workspace/Basic_Workflow/build/../src/os\RTAOS.lib(StartScheduleTableRel.o)
 .rdata$zzz     0x0043f1e0       0x24 C:/ETAS/RTA-CAR_12.2.0/RTA-CAR/workspace/Basic_Workflow/build/../src/os\RTAOS.lib(ResumeAllInterrupts.o)
 .rdata$zzz     0x0043f204       0x24 C:/ETAS/RTA-CAR_12.2.0/RTA-CAR/workspace/Basic_Workflow/build/../src/os\RTAOS.lib(GetResource.o)
 .rdata$zzz     0x0043f228       0x24 C:/ETAS/RTA-CAR_12.2.0/RTA-CAR/workspace/Basic_Workflow/build/../src/os\RTAOS.lib(vrtaSampleDevices.o)
 .rdata$zzz     0x0043f24c       0x24 C:/ETAS/RTA-CAR_12.2.0/RTA-CAR/workspace/Basic_Workflow/build/../src/os\RTAOS.lib(StartOS.o)
 .rdata$zzz     0x0043f270       0x24 C:/ETAS/RTA-CAR_12.2.0/RTA-CAR/workspace/Basic_Workflow/build/../src/os\RTAOS.lib(ShutdownOS.o)
 .rdata$zzz     0x0043f294       0x24 C:/ETAS/RTA-CAR_12.2.0/RTA-CAR/workspace/Basic_Workflow/build/../src/os\RTAOS.lib(vrtaPrintf.o)
 .rdata$zzz     0x0043f2b8       0x24 C:/ETAS/RTA-CAR_12.2.0/RTA-CAR/workspace/Basic_Workflow/build/../src/os\RTAOS.lib(ActivateTask.o)
 .rdata$zzz     0x0043f2dc       0x24 C:/ETAS/RTA-CAR_12.2.0/RTA-CAR/workspace/Basic_Workflow/build/../src/os\RTAOS.lib(ReleaseResource.o)
 .rdata$zzz     0x0043f300       0x24 C:/ETAS/RTA-CAR_12.2.0/RTA-CAR/workspace/Basic_Workflow/build/../src/os\RTAOS.lib(GetISRID.o)
 .rdata$zzz     0x0043f324       0x24 C:/ETAS/RTA-CAR_12.2.0/RTA-CAR/workspace/Basic_Workflow/build/../src/os\RTAOS.lib(vrtaLoggerDevice.o)
 .rdata$zzz     0x0043f348       0x24 C:/ETAS/RTA-CAR_12.2.0/RTA-CAR/workspace/Basic_Workflow/build/../src/os\RTAOS.lib(vrtaIdleHandling.o)
 .rdata$zzz     0x0043f36c       0x24 C:/ETAS/RTA-CAR_12.2.0/RTA-CAR/workspace/Basic_Workflow/build/../src/os\RTAOS.lib(DispatchTask.o)
 .rdata$zzz     0x0043f390       0x24 C:/ETAS/RTA-CAR_12.2.0/RTA-CAR/workspace/Basic_Workflow/build/../src/os\RTAOS.lib(vrtaCore.o)
 .rdata$zzz     0x0043f3b4       0x24 C:/ETAS/RTA-CAR_12.2.0/RTA-CAR/workspace/Basic_Workflow/build/../src/os\RTAOS.lib(vrtaAppMain.o)
 .rdata$zzz     0x0043f3d8       0x24 C:/ETAS/RTA-CAR_12.2.0/RTA-CAR/workspace/Basic_Workflow/build/../src/os\RTAOS.lib(virtualDevice.o)
 .rdata$zzz     0x0043f3fc       0x24 C:/ETAS/RTA-CAR_12.2.0/RTA-CAR/workspace/Basic_Workflow/build/../src/os\RTAOS.lib(Os_vectors.o)
 .rdata$zzz     0x0043f420       0x24 C:/ETAS/RTA-CAR_12.2.0/RTA-CAR/workspace/Basic_Workflow/build/../src/os\RTAOS.lib(Os_Stack.o)
 .rdata$zzz     0x0043f444       0x24 C:/ETAS/RTA-CAR_12.2.0/RTA-CAR/workspace/Basic_Workflow/build/../src/os\RTAOS.lib(Os_Cfg_KL.o)
 .rdata$zzz     0x0043f468       0x24 C:/ETAS/RTA-CAR_12.2.0/RTA-CAR/workspace/Basic_Workflow/build/../src/os\RTAOS.lib(Os_fsb.o)
 .rdata$zzz     0x0043f48c       0x24 C:/ETAS/RTA-CAR_12.2.0/RTA-CAR/workspace/Basic_Workflow/build/../src/os\RTAOS.lib(GetStackValue.o)
 .rdata$zzz     0x0043f4b0       0x24 C:/ETAS/RTA-CAR_12.2.0/RTA-CAR/workspace/Basic_Workflow/build/../src/os\RTAOS.lib(vrtaSystemClockDevice.o)
 .rdata$zzz     0x0043f4d4       0x24 C:/ETAS/RTA-CAR_12.2.0/RTA-CAR/workspace/Basic_Workflow/build/../src/os\RTAOS.lib(InShutdown.o)
 .rdata$zzz     0x0043f4f8       0x24 C:/ETAS/RTA-CAR_12.2.0/RTA-CAR/workspace/Basic_Workflow/build/../src/os\RTAOS.lib(vrtaOSMonitorDevice.o)
 .rdata$zzz     0x0043f51c       0x24 C:/ETAS/RTA-CAR_12.2.0/RTA-CAR/workspace/Basic_Workflow/build/../src/os\RTAOS.lib(Os_wrapper.o)
 .rdata$zzz     0x0043f540       0x14 c:/mingw/bin/../lib/gcc/mingw32/6.3.0\libstdc++.a(eh_personality.o)
 .rdata$zzz     0x0043f554       0x14 c:/mingw/bin/../lib/gcc/mingw32/6.3.0\libstdc++.a(new_opv.o)
 .rdata$zzz     0x0043f568       0x14 c:/mingw/bin/../lib/gcc/mingw32/6.3.0\libstdc++.a(vmi_class_type_info.o)
 .rdata$zzz     0x0043f57c       0x14 c:/mingw/bin/../lib/gcc/mingw32/6.3.0\libstdc++.a(del_opv.o)
 .rdata$zzz     0x0043f590       0x14 c:/mingw/bin/../lib/gcc/mingw32/6.3.0\libstdc++.a(del_ops.o)
 .rdata$zzz     0x0043f5a4       0x14 c:/mingw/bin/../lib/gcc/mingw32/6.3.0\libstdc++.a(eh_throw.o)
 .rdata$zzz     0x0043f5b8       0x14 c:/mingw/bin/../lib/gcc/mingw32/6.3.0\libstdc++.a(class_type_info.o)
 .rdata$zzz     0x0043f5cc       0x14 c:/mingw/bin/../lib/gcc/mingw32/6.3.0\libstdc++.a(eh_terminate.o)
 .rdata$zzz     0x0043f5e0       0x14 c:/mingw/bin/../lib/gcc/mingw32/6.3.0\libstdc++.a(eh_call.o)
 .rdata$zzz     0x0043f5f4       0x14 c:/mingw/bin/../lib/gcc/mingw32/6.3.0\libstdc++.a(eh_alloc.o)
 .rdata$zzz     0x0043f608       0x14 c:/mingw/bin/../lib/gcc/mingw32/6.3.0\libstdc++.a(eh_term_handler.o)
 .rdata$zzz     0x0043f61c       0x14 c:/mingw/bin/../lib/gcc/mingw32/6.3.0\libstdc++.a(eh_aux_runtime.o)
 .rdata$zzz     0x0043f630       0x14 c:/mingw/bin/../lib/gcc/mingw32/6.3.0\libstdc++.a(eh_globals.o)
 .rdata$zzz     0x0043f644       0x14 c:/mingw/bin/../lib/gcc/mingw32/6.3.0\libstdc++.a(vterminate.o)
 .rdata$zzz     0x0043f658       0x14 c:/mingw/bin/../lib/gcc/mingw32/6.3.0\libstdc++.a(bad_cast.o)
 .rdata$zzz     0x0043f66c       0x14 c:/mingw/bin/../lib/gcc/mingw32/6.3.0\libstdc++.a(si_class_type_info.o)
 .rdata$zzz     0x0043f680       0x14 c:/mingw/bin/../lib/gcc/mingw32/6.3.0\libstdc++.a(tinfo.o)
 .rdata$zzz     0x0043f694       0x14 c:/mingw/bin/../lib/gcc/mingw32/6.3.0\libstdc++.a(del_opvs.o)
 .rdata$zzz     0x0043f6a8       0x14 c:/mingw/bin/../lib/gcc/mingw32/6.3.0\libstdc++.a(eh_catch.o)
 .rdata$zzz     0x0043f6bc       0x14 c:/mingw/bin/../lib/gcc/mingw32/6.3.0\libstdc++.a(new_op.o)
 .rdata$zzz     0x0043f6d0       0x14 c:/mingw/bin/../lib/gcc/mingw32/6.3.0\libstdc++.a(del_op.o)
 .rdata$zzz     0x0043f6e4       0x14 c:/mingw/bin/../lib/gcc/mingw32/6.3.0\libstdc++.a(pure.o)
 .rdata$zzz     0x0043f6f8       0x14 c:/mingw/bin/../lib/gcc/mingw32/6.3.0\libstdc++.a(eh_exception.o)
 .rdata$zzz     0x0043f70c       0x14 c:/mingw/bin/../lib/gcc/mingw32/6.3.0\libstdc++.a(bad_typeid.o)
 .rdata$zzz     0x0043f720       0x14 c:/mingw/bin/../lib/gcc/mingw32/6.3.0\libstdc++.a(eh_unex_handler.o)
 .rdata$zzz     0x0043f734       0x14 c:/mingw/bin/../lib/gcc/mingw32/6.3.0\libstdc++.a(bad_array_new.o)
 .rdata$zzz     0x0043f748       0x14 c:/mingw/bin/../lib/gcc/mingw32/6.3.0\libstdc++.a(bad_alloc.o)
 .rdata$zzz     0x0043f75c       0x14 c:/mingw/bin/../lib/gcc/mingw32/6.3.0\libstdc++.a(cp-demangle.o)
 .rdata$zzz     0x0043f770       0x14 c:/mingw/bin/../lib/gcc/mingw32/6.3.0\libstdc++.a(eh_type.o)
 .rdata$zzz     0x0043f784       0x14 c:/mingw/bin/../lib/gcc/mingw32/6.3.0\libstdc++.a(new_handler.o)
 .rdata$zzz     0x0043f798       0x14 c:/mingw/bin/../lib/gcc/mingw32/6.3.0/../../..\libmingw32.a(CRTglob.o)
 .rdata$zzz     0x0043f7ac       0x14 c:/mingw/bin/../lib/gcc/mingw32/6.3.0/../../..\libmingw32.a(setargv.o)
 .rdata$zzz     0x0043f7c0       0x14 c:/mingw/bin/../lib/gcc/mingw32/6.3.0/../../..\libmingw32.a(CRTfmode.o)
 .rdata$zzz     0x0043f7d4       0x14 c:/mingw/bin/../lib/gcc/mingw32/6.3.0/../../..\libmingw32.a(CRT_fp10.o)
 .rdata$zzz     0x0043f7e8       0x14 c:/mingw/bin/../lib/gcc/mingw32/6.3.0/../../..\libmingw32.a(txtmode.o)
 .rdata$zzz     0x0043f7fc       0x14 c:/mingw/bin/../lib/gcc/mingw32/6.3.0/../../..\libmingw32.a(gccmain.o)
 .rdata$zzz     0x0043f810       0x14 c:/mingw/bin/../lib/gcc/mingw32/6.3.0/../../..\libmingw32.a(crtst.o)
 .rdata$zzz     0x0043f824       0x14 c:/mingw/bin/../lib/gcc/mingw32/6.3.0/../../..\libmingw32.a(tlssup.o)
 .rdata$zzz     0x0043f838       0x14 c:/mingw/bin/../lib/gcc/mingw32/6.3.0/../../..\libmingw32.a(tlsthrd.o)
 .rdata$zzz     0x0043f84c       0x14 c:/mingw/bin/../lib/gcc/mingw32/6.3.0/../../..\libmingw32.a(pseudo-reloc.o)
 .rdata$zzz     0x0043f860       0x14 c:/mingw/bin/../lib/gcc/mingw32/6.3.0/../../..\libmingw32.a(pseudo-reloc-list.o)
 .rdata$zzz     0x0043f874       0x14 c:/mingw/bin/../lib/gcc/mingw32/6.3.0\libgcc.a(_ctors.o)
 .rdata$zzz     0x0043f888       0x14 c:/mingw/bin/../lib/gcc/mingw32/6.3.0\libgcc.a(_divdi3.o)
 .rdata$zzz     0x0043f89c       0x14 c:/mingw/bin/../lib/gcc/mingw32/6.3.0\libgcc.a(gthr-win32.o)
 .rdata$zzz     0x0043f8b0       0x14 c:/mingw/bin/../lib/gcc/mingw32/6.3.0\libgcc_eh.a(unwind-dw2.o)
 .rdata$zzz     0x0043f8c4       0x14 c:/mingw/bin/../lib/gcc/mingw32/6.3.0\libgcc_eh.a(unwind-dw2-fde.o)
 .rdata$zzz     0x0043f8d8       0x14 c:/mingw/bin/../lib/gcc/mingw32/6.3.0/../../..\libmingwex.a(fesetenv.o)
 .rdata$zzz     0x0043f8ec       0x14 c:/mingw/bin/../lib/gcc/mingw32/6.3.0/../../..\libmingwex.a(feholdexcept.o)
 .rdata$zzz     0x0043f900       0x14 c:/mingw/bin/../lib/gcc/mingw32/6.3.0/../../..\libmingwex.a(glob.o)
 .rdata$zzz     0x0043f914       0x14 c:/mingw/bin/../lib/gcc/mingw32/6.3.0/../../..\libmingwex.a(dirname.o)
 .rdata$zzz     0x0043f928       0x14 c:/mingw/bin/../lib/gcc/mingw32/6.3.0/../../..\libmingwex.a(dirent.o)
 .rdata$zzz     0x0043f93c       0x14 c:/mingw/bin/../lib/gcc/mingw32/6.3.0/../../..\libmingw32.a(tlsmthread.o)
 .rdata$zzz     0x0043f950       0x14 c:/mingw/bin/../lib/gcc/mingw32/6.3.0/crtend.o
                0x0043f964                __rt_psrelocs_start = .
 *(.rdata_runtime_pseudo_reloc)
                0x0043f964                __rt_psrelocs_end = .
                0x00000000                __rt_psrelocs_size = (__rt_psrelocs_end - __rt_psrelocs_start)
                0x0043f964                ___RUNTIME_PSEUDO_RELOC_LIST_END__ = .
                0x0043f964                __RUNTIME_PSEUDO_RELOC_LIST_END__ = .
                0x0043f964                ___RUNTIME_PSEUDO_RELOC_LIST__ = (. - __rt_psrelocs_size)
                0x0043f964                __RUNTIME_PSEUDO_RELOC_LIST__ = (. - __rt_psrelocs_size)

.eh_frame       0x00440000     0xf000
 *(.eh_frame*)
 .eh_frame      0x00440000       0xb8 c:/mingw/bin/../lib/gcc/mingw32/6.3.0/../../../crt2.o
 .eh_frame      0x004400b8       0x64 c:/mingw/bin/../lib/gcc/mingw32/6.3.0/crtbegin.o
                0x004400b8                __EH_FRAME_BEGIN__
 .eh_frame      0x0044011c      0x818 CMakeFiles\Basic_workflow.dir/objects.a(unity_4_c.c.obj)
 .eh_frame      0x00440934      0x4d0 CMakeFiles\Basic_workflow.dir/objects.a(unity_3_c.c.obj)
 .eh_frame      0x00440e04      0x4c8 CMakeFiles\Basic_workflow.dir/objects.a(unity_2_c.c.obj)
 .eh_frame      0x004412cc      0x670 CMakeFiles\Basic_workflow.dir/objects.a(unity_1_c.c.obj)
 .eh_frame      0x0044193c      0xd38 CMakeFiles\Basic_workflow.dir/objects.a(unity_0_c.c.obj)
 .eh_frame      0x00442674       0x38 CMakeFiles\Basic_workflow.dir/objects.a(MySWC.c.obj)
 .eh_frame      0x004426ac       0xc4 CMakeFiles\Basic_workflow.dir/objects.a(Det.c.obj)
 .eh_frame      0x00442770       0x38 CMakeFiles\Basic_workflow.dir/objects.a(EcuM_Cfg_PbExt.c.obj)
 .eh_frame      0x004427a8       0x38 CMakeFiles\Basic_workflow.dir/objects.a(EcuM_Cfg_RbMo.c.obj)
 .eh_frame      0x004427e0       0x58 CMakeFiles\Basic_workflow.dir/objects.a(EcuM_Cfg_Sleep.c.obj)
 .eh_frame      0x00442838       0x58 CMakeFiles\Basic_workflow.dir/objects.a(EcuM_Cfg_Startup.c.obj)
 .eh_frame      0x00442890       0x38 CMakeFiles\Basic_workflow.dir/objects.a(EcuM_Cfg_SynchPoint.c.obj)
 .eh_frame      0x004428c8      0x174 CMakeFiles\Basic_workflow.dir/objects.a(EcuM_Callout_Stubs.c.obj)
 .eh_frame      0x00442a3c       0x58 CMakeFiles\Basic_workflow.dir/objects.a(EcuM_BootTarget.c.obj)
 .eh_frame      0x00442a94       0x98 CMakeFiles\Basic_workflow.dir/objects.a(EcuM_MainFunction.c.obj)
 .eh_frame      0x00442b2c       0xf8 CMakeFiles\Basic_workflow.dir/objects.a(EcuM_Prv.c.obj)
 .eh_frame      0x00442c24       0x78 CMakeFiles\Basic_workflow.dir/objects.a(EcuM_Shutdown.c.obj)
 .eh_frame      0x00442c9c       0xb8 CMakeFiles\Basic_workflow.dir/objects.a(EcuM_ShutdownServices.c.obj)
 .eh_frame      0x00442d54       0x58 CMakeFiles\Basic_workflow.dir/objects.a(EcuM_Startup.c.obj)
 .eh_frame      0x00442dac       0xd8 CMakeFiles\Basic_workflow.dir/objects.a(EcuM_WakeupServices.c.obj)
 .eh_frame      0x00442e84       0xd8 CMakeFiles\Basic_workflow.dir/objects.a(Rte.c.obj)
 .eh_frame      0x00442f5c      0x1f8 CMakeFiles\Basic_workflow.dir/objects.a(Rte_Lib.c.obj)
 .eh_frame$_ZN13VirtualDevice8StartingEv
                0x00443154       0x38 CMakeFiles\Basic_workflow.dir/objects.a(Can_Device.cpp.obj)
 .eh_frame$_ZN13VirtualDevice8StoppingEv
                0x0044318c       0x38 CMakeFiles\Basic_workflow.dir/objects.a(Can_Device.cpp.obj)
 .eh_frame$_ZN19CanControllerDeviceC1EPKchht
                0x004431c4       0x48 CMakeFiles\Basic_workflow.dir/objects.a(Can_Device.cpp.obj)
 .eh_frame$_ZN19CanControllerDevice15RaiseStateEventEi14Can_EventStatePKc
                0x0044320c       0x40 CMakeFiles\Basic_workflow.dir/objects.a(Can_Device.cpp.obj)
 .eh_frame$_ZN19CanControllerDevice20RaiseErrorStateEventEj
                0x0044324c       0x3c CMakeFiles\Basic_workflow.dir/objects.a(Can_Device.cpp.obj)
 .eh_frame$_ZN19CanControllerDevice15RaiseWriteEventEihhtP13Can_Hwp_Frame
                0x00443288       0x44 CMakeFiles\Basic_workflow.dir/objects.a(Can_Device.cpp.obj)
 .eh_frame$_ZN19CanControllerDevice12RaiseRxEventEitP13Can_Hwp_Frame
                0x004432cc       0x40 CMakeFiles\Basic_workflow.dir/objects.a(Can_Device.cpp.obj)
 .eh_frame$_ZN19CanControllerDevice12RaiseTxEventEitP13Can_Hwp_Frame
                0x0044330c       0x40 CMakeFiles\Basic_workflow.dir/objects.a(Can_Device.cpp.obj)
 .eh_frame$_ZN19CanControllerDevice24RaiseRxErrorCounterEventEh
                0x0044334c       0x3c CMakeFiles\Basic_workflow.dir/objects.a(Can_Device.cpp.obj)
 .eh_frame$_ZN19CanControllerDevice24RaiseTxErrorCounterEventEh
                0x00443388       0x3c CMakeFiles\Basic_workflow.dir/objects.a(Can_Device.cpp.obj)
 .eh_frame$_ZN19CanControllerDevice15RaiseErrorEventEj
                0x004433c4       0x3c CMakeFiles\Basic_workflow.dir/objects.a(Can_Device.cpp.obj)
 .eh_frame$_ZN19CanControllerDevice21RaiseCurrentTimeEventE17Can_TimeStampType
                0x00443400       0x3c CMakeFiles\Basic_workflow.dir/objects.a(Can_Device.cpp.obj)
 .eh_frame$_ZN19CanControllerDevice31RaiseEnableEgressTimeStampEventEtj
                0x0044343c       0x3c CMakeFiles\Basic_workflow.dir/objects.a(Can_Device.cpp.obj)
 .eh_frame$_ZN19CanControllerDevice25RaiseEgressTimeStampEventEtt17Can_TimeStampType
                0x00443478       0x3c CMakeFiles\Basic_workflow.dir/objects.a(Can_Device.cpp.obj)
 .eh_frame$_ZN19CanControllerDevice26RaiseIngressTimeStampEventEt17Can_TimeStampType
                0x004434b4       0x3c CMakeFiles\Basic_workflow.dir/objects.a(Can_Device.cpp.obj)
 .eh_frame$_ZN19CanControllerDevice13GetDeviceInfoERN13VirtualDevice7OptListE
                0x004434f0       0x38 CMakeFiles\Basic_workflow.dir/objects.a(Can_Device.cpp.obj)
 .eh_frame$_ZN19CanControllerDevice16GetDeviceActionsERN13VirtualDevice10ActionListE
                0x00443528       0x44 CMakeFiles\Basic_workflow.dir/objects.a(Can_Device.cpp.obj)
 .eh_frame$_ZN19CanControllerDevice15DropWriteActionERK10vrtaAction
                0x0044356c       0x38 CMakeFiles\Basic_workflow.dir/objects.a(Can_Device.cpp.obj)
 .eh_frame$_ZN19CanControllerDevice17DropReceiveActionERK10vrtaAction
                0x004435a4       0x38 CMakeFiles\Basic_workflow.dir/objects.a(Can_Device.cpp.obj)
 .eh_frame$_ZN19CanControllerDevice17InjectWriteActionERK10vrtaAction
                0x004435dc       0x38 CMakeFiles\Basic_workflow.dir/objects.a(Can_Device.cpp.obj)
 .eh_frame$_ZN19CanControllerDevice14InjectRxActionERK10vrtaAction
                0x00443614       0x38 CMakeFiles\Basic_workflow.dir/objects.a(Can_Device.cpp.obj)
 .eh_frame$_ZN19CanControllerDevice22InjectErrorStateActionERK10vrtaAction
                0x0044364c       0x38 CMakeFiles\Basic_workflow.dir/objects.a(Can_Device.cpp.obj)
 .eh_frame$_ZN19CanControllerDevice34InjectControllerRxErrorCountActionERK10vrtaAction
                0x00443684       0x38 CMakeFiles\Basic_workflow.dir/objects.a(Can_Device.cpp.obj)
 .eh_frame$_ZN19CanControllerDevice34InjectControllerTxErrorCountActionERK10vrtaAction
                0x004436bc       0x38 CMakeFiles\Basic_workflow.dir/objects.a(Can_Device.cpp.obj)
 .eh_frame$_ZN19CanControllerDevice17InjectErrorActionERK10vrtaAction
                0x004436f4       0x38 CMakeFiles\Basic_workflow.dir/objects.a(Can_Device.cpp.obj)
 .eh_frame$_ZN19CanControllerDevice23InjectCurrentTimeActionERK10vrtaAction
                0x0044372c       0x38 CMakeFiles\Basic_workflow.dir/objects.a(Can_Device.cpp.obj)
 .eh_frame$_ZN19CanControllerDevice33InjectEnableEgressTimeStampActionERK10vrtaAction
                0x00443764       0x38 CMakeFiles\Basic_workflow.dir/objects.a(Can_Device.cpp.obj)
 .eh_frame$_ZN19CanControllerDevice27InjectEgressTimeStampActionERK10vrtaAction
                0x0044379c       0x3c CMakeFiles\Basic_workflow.dir/objects.a(Can_Device.cpp.obj)
 .eh_frame$_ZN19CanControllerDevice28InjectIngressTimeStampActionERK10vrtaAction
                0x004437d8       0x38 CMakeFiles\Basic_workflow.dir/objects.a(Can_Device.cpp.obj)
 .eh_frame$_ZN19CanControllerDevice17ForceWakeupActionERK10vrtaAction
                0x00443810       0x38 CMakeFiles\Basic_workflow.dir/objects.a(Can_Device.cpp.obj)
 .eh_frame$_ZN19CanControllerDevice11StateActionERK10vrtaAction
                0x00443848       0x38 CMakeFiles\Basic_workflow.dir/objects.a(Can_Device.cpp.obj)
 .eh_frame$_ZN19CanControllerDevice15GetDeviceEventsERN13VirtualDevice9EventListE
                0x00443880       0x44 CMakeFiles\Basic_workflow.dir/objects.a(Can_Device.cpp.obj)
 .eh_frame$_ZN19CanControllerDevice6ParentER9vrtaEvent
                0x004438c4       0x38 CMakeFiles\Basic_workflow.dir/objects.a(Can_Device.cpp.obj)
 .eh_frame$_ZN19CanControllerDevice10StateEventER9vrtaEvent
                0x004438fc       0x38 CMakeFiles\Basic_workflow.dir/objects.a(Can_Device.cpp.obj)
 .eh_frame$_ZN19CanControllerDevice10WriteEventER9vrtaEvent
                0x00443934       0x38 CMakeFiles\Basic_workflow.dir/objects.a(Can_Device.cpp.obj)
 .eh_frame$_ZN19CanControllerDevice7TxEventER9vrtaEvent
                0x0044396c       0x38 CMakeFiles\Basic_workflow.dir/objects.a(Can_Device.cpp.obj)
 .eh_frame$_ZN19CanControllerDevice7RxEventER9vrtaEvent
                0x004439a4       0x38 CMakeFiles\Basic_workflow.dir/objects.a(Can_Device.cpp.obj)
 .eh_frame$_ZN19CanControllerDevice15ErrorStateEventER9vrtaEvent
                0x004439dc       0x38 CMakeFiles\Basic_workflow.dir/objects.a(Can_Device.cpp.obj)
 .eh_frame$_ZN19CanControllerDevice19RxErrorCounterEventER9vrtaEvent
                0x00443a14       0x38 CMakeFiles\Basic_workflow.dir/objects.a(Can_Device.cpp.obj)
 .eh_frame$_ZN19CanControllerDevice19TxErrorCounterEventER9vrtaEvent
                0x00443a4c       0x38 CMakeFiles\Basic_workflow.dir/objects.a(Can_Device.cpp.obj)
 .eh_frame$_ZN19CanControllerDevice10ErrorEventER9vrtaEvent
                0x00443a84       0x38 CMakeFiles\Basic_workflow.dir/objects.a(Can_Device.cpp.obj)
 .eh_frame$_ZN19CanControllerDevice16CurrentTimeEventER9vrtaEvent
                0x00443abc       0x38 CMakeFiles\Basic_workflow.dir/objects.a(Can_Device.cpp.obj)
 .eh_frame$_ZN19CanControllerDevice26EnableEgressTimeStampEventER9vrtaEvent
                0x00443af4       0x38 CMakeFiles\Basic_workflow.dir/objects.a(Can_Device.cpp.obj)
 .eh_frame$_ZN19CanControllerDevice20EgressTimeStampEventER9vrtaEvent
                0x00443b2c       0x38 CMakeFiles\Basic_workflow.dir/objects.a(Can_Device.cpp.obj)
 .eh_frame$_ZN19CanControllerDevice21IngressTimeStampEventER9vrtaEvent
                0x00443b64       0x38 CMakeFiles\Basic_workflow.dir/objects.a(Can_Device.cpp.obj)
 .eh_frame$_ZN9CanDeviceC1EPKc
                0x00443b9c       0x4c CMakeFiles\Basic_workflow.dir/objects.a(Can_Device.cpp.obj)
 .eh_frame$_ZN9CanDevice13RaiseCanStateE16Can_DriverStatus
                0x00443be8       0x38 CMakeFiles\Basic_workflow.dir/objects.a(Can_Device.cpp.obj)
 .eh_frame$_ZN9CanDevice8RaiseIsrEv
                0x00443c20       0x38 CMakeFiles\Basic_workflow.dir/objects.a(Can_Device.cpp.obj)
 .eh_frame$_ZN9CanDevice16UpdateStateEventEi14Can_EventStatePKc
                0x00443c58       0x38 CMakeFiles\Basic_workflow.dir/objects.a(Can_Device.cpp.obj)
 .eh_frame$_ZN9CanDevice16UpdateErrorStateEij
                0x00443c90       0x38 CMakeFiles\Basic_workflow.dir/objects.a(Can_Device.cpp.obj)
 .eh_frame$_ZN9CanDevice16UpdateWriteEventEihhtP13Can_Hwp_Frame
                0x00443cc8       0x40 CMakeFiles\Basic_workflow.dir/objects.a(Can_Device.cpp.obj)
 .eh_frame$_ZN9CanDevice13UpdateRxEventEitP13Can_Hwp_Frame
                0x00443d08       0x38 CMakeFiles\Basic_workflow.dir/objects.a(Can_Device.cpp.obj)
 .eh_frame$_ZN9CanDevice13UpdateTxEventEitP13Can_Hwp_Frame
                0x00443d40       0x38 CMakeFiles\Basic_workflow.dir/objects.a(Can_Device.cpp.obj)
 .eh_frame$_ZN9CanDevice30UpdateControllerRxErrorCounterEih
                0x00443d78       0x38 CMakeFiles\Basic_workflow.dir/objects.a(Can_Device.cpp.obj)
 .eh_frame$_ZN9CanDevice30UpdateControllerTxErrorCounterEih
                0x00443db0       0x38 CMakeFiles\Basic_workflow.dir/objects.a(Can_Device.cpp.obj)
 .eh_frame$_ZN9CanDevice11UpdateErrorEij
                0x00443de8       0x38 CMakeFiles\Basic_workflow.dir/objects.a(Can_Device.cpp.obj)
 .eh_frame$_ZN9CanDevice17UpdateCurrentTimeEi17Can_TimeStampType
                0x00443e20       0x38 CMakeFiles\Basic_workflow.dir/objects.a(Can_Device.cpp.obj)
 .eh_frame$_ZN9CanDevice27UpdateEnableEgressTimeStampEith
                0x00443e58       0x3c CMakeFiles\Basic_workflow.dir/objects.a(Can_Device.cpp.obj)
 .eh_frame$_ZN9CanDevice26UpdateEgressTimeStampEventEitt17Can_TimeStampType
                0x00443e94       0x40 CMakeFiles\Basic_workflow.dir/objects.a(Can_Device.cpp.obj)
 .eh_frame$_ZN9CanDevice22UpdateIngressTimeStampEit17Can_TimeStampType
                0x00443ed4       0x3c CMakeFiles\Basic_workflow.dir/objects.a(Can_Device.cpp.obj)
 .eh_frame$_ZN9CanDevice13GetDeviceInfoERN13VirtualDevice7OptListE
                0x00443f10       0x38 CMakeFiles\Basic_workflow.dir/objects.a(Can_Device.cpp.obj)
 .eh_frame$_ZN9CanDevice16GetDeviceActionsERN13VirtualDevice10ActionListE
                0x00443f48       0x38 CMakeFiles\Basic_workflow.dir/objects.a(Can_Device.cpp.obj)
 .eh_frame$_ZN9CanDevice15GetDeviceEventsERN13VirtualDevice9EventListE
                0x00443f80       0x38 CMakeFiles\Basic_workflow.dir/objects.a(Can_Device.cpp.obj)
 .eh_frame$_ZN9CanDevice10StateEventER9vrtaEvent
                0x00443fb8       0x38 CMakeFiles\Basic_workflow.dir/objects.a(Can_Device.cpp.obj)
 .eh_frame      0x00443ff0      0x280 CMakeFiles\Basic_workflow.dir/objects.a(Can_Device.cpp.obj)
 .eh_frame$_ZN13VirtualDevice10UnpackDataIjEEvRK10vrtaActionRT_
                0x00444270       0x38 CMakeFiles\Basic_workflow.dir/objects.a(Can_Device.cpp.obj)
 .eh_frame$_ZN13VirtualDevice10UnpackDataIN19CanControllerDevice15WriteActionTypeEEEvRK10vrtaActionRT_
                0x004442a8       0x38 CMakeFiles\Basic_workflow.dir/objects.a(Can_Device.cpp.obj)
 .eh_frame$_ZN13VirtualDevice10UnpackDataIN19CanControllerDevice12RxActionTypeEEEvRK10vrtaActionRT_
                0x004442e0       0x38 CMakeFiles\Basic_workflow.dir/objects.a(Can_Device.cpp.obj)
 .eh_frame$_ZN13VirtualDevice10UnpackDataI18Can_ErrorStateTypeEEvRK10vrtaActionRT_
                0x00444318       0x38 CMakeFiles\Basic_workflow.dir/objects.a(Can_Device.cpp.obj)
 .eh_frame$_ZN13VirtualDevice10UnpackDataIhEEvRK10vrtaActionRT_
                0x00444350       0x38 CMakeFiles\Basic_workflow.dir/objects.a(Can_Device.cpp.obj)
 .eh_frame$_ZN13VirtualDevice10UnpackDataIN19CanControllerDevice27InjectCurrentTimeActionTypeEEEvRK10vrtaActionRT_
                0x00444388       0x38 CMakeFiles\Basic_workflow.dir/objects.a(Can_Device.cpp.obj)
 .eh_frame$_ZN13VirtualDevice10UnpackDataIN19CanControllerDevice37InjectEnableEgressTimeStampActionTypeEEEvRK10vrtaActionRT_
                0x004443c0       0x38 CMakeFiles\Basic_workflow.dir/objects.a(Can_Device.cpp.obj)
 .eh_frame$_ZN13VirtualDevice10UnpackDataIN19CanControllerDevice31InjectEgressTimeStampActionTypeEEEvRK10vrtaActionRT_
                0x004443f8       0x38 CMakeFiles\Basic_workflow.dir/objects.a(Can_Device.cpp.obj)
 .eh_frame$_ZN13VirtualDevice10UnpackDataIN19CanControllerDevice32InjectIngressTimeStampActionTypeEEEvRK10vrtaActionRT_
                0x00444430       0x38 CMakeFiles\Basic_workflow.dir/objects.a(Can_Device.cpp.obj)
 .eh_frame$_ZN13VirtualDevice8SetValueItEEvR9vrtaEventT_
                0x00444468       0x38 CMakeFiles\Basic_workflow.dir/objects.a(Can_Device.cpp.obj)
 .eh_frame$_ZN13VirtualDevice8PackDataIN19CanControllerDevice15StatusEventTypeEEEvR9vrtaEventRT_i
                0x004444a0       0x38 CMakeFiles\Basic_workflow.dir/objects.a(Can_Device.cpp.obj)
 .eh_frame$_ZN13VirtualDevice8PackDataIN19CanControllerDevice14WriteEventTypeEEEvR9vrtaEventRT_i
                0x004444d8       0x38 CMakeFiles\Basic_workflow.dir/objects.a(Can_Device.cpp.obj)
 .eh_frame$_ZN13VirtualDevice8PackDataIN19CanControllerDevice11TxEventTypeEEEvR9vrtaEventRT_i
                0x00444510       0x38 CMakeFiles\Basic_workflow.dir/objects.a(Can_Device.cpp.obj)
 .eh_frame$_ZN13VirtualDevice8PackDataIN19CanControllerDevice11RxEventTypeEEEvR9vrtaEventRT_i
                0x00444548       0x38 CMakeFiles\Basic_workflow.dir/objects.a(Can_Device.cpp.obj)
 .eh_frame$_ZN13VirtualDevice8PackDataIjEEvR9vrtaEventRT_i
                0x00444580       0x38 CMakeFiles\Basic_workflow.dir/objects.a(Can_Device.cpp.obj)
 .eh_frame$_ZN13VirtualDevice8PackDataIN19CanControllerDevice15CurrentTimeTypeEEEvR9vrtaEventRT_i
                0x004445b8       0x38 CMakeFiles\Basic_workflow.dir/objects.a(Can_Device.cpp.obj)
 .eh_frame$_ZN13VirtualDevice8PackDataIN19CanControllerDevice25EnableEgressTimeStampTypeEEEvR9vrtaEventRT_i
                0x004445f0       0x38 CMakeFiles\Basic_workflow.dir/objects.a(Can_Device.cpp.obj)
 .eh_frame$_ZN13VirtualDevice8PackDataIN19CanControllerDevice19EgressTimeStampTypeEEEvR9vrtaEventRT_i
                0x00444628       0x38 CMakeFiles\Basic_workflow.dir/objects.a(Can_Device.cpp.obj)
 .eh_frame$_ZN13VirtualDevice8PackDataIN19CanControllerDevice20IngressTimeStampTypeEEEvR9vrtaEventRT_i
                0x00444660       0x38 CMakeFiles\Basic_workflow.dir/objects.a(Can_Device.cpp.obj)
 .eh_frame$_ZN13VirtualDevice8SetValueIhEEvR9vrtaEventT_
                0x00444698       0x38 CMakeFiles\Basic_workflow.dir/objects.a(Can_Device.cpp.obj)
 .eh_frame$_ZN9CanDeviceD1Ev
                0x004446d0       0x38 CMakeFiles\Basic_workflow.dir/objects.a(Can_Device.cpp.obj)
 .eh_frame$_ZN9CanDeviceD0Ev
                0x00444708       0x38 CMakeFiles\Basic_workflow.dir/objects.a(Can_Device.cpp.obj)
 .eh_frame$_ZN19CanControllerDeviceD1Ev
                0x00444740       0x38 CMakeFiles\Basic_workflow.dir/objects.a(Can_Device.cpp.obj)
 .eh_frame$_ZN19CanControllerDeviceD0Ev
                0x00444778       0x38 CMakeFiles\Basic_workflow.dir/objects.a(Can_Device.cpp.obj)
 .eh_frame      0x004447b0       0x9c CMakeFiles\Basic_workflow.dir/objects.a(Can_HwProvider.cpp.obj)
 .eh_frame$_ZN6Can_Hw4NameEv
                0x0044484c       0x38 CMakeFiles\Basic_workflow.dir/objects.a(Can_Implementation.cpp.obj)
 .eh_frame$_ZN20Can_ChannelStateTypeC1Ev
                0x00444884       0x38 CMakeFiles\Basic_workflow.dir/objects.a(Can_Implementation.cpp.obj)
 .eh_frame$_ZN19Can_RxHwObjFifoTypeC1Ev
                0x004448bc       0x38 CMakeFiles\Basic_workflow.dir/objects.a(Can_Implementation.cpp.obj)
 .eh_frame$_ZN19Can_RxHwObjFifoType7enqueueEPK13Can_Hwp_Framet
                0x004448f4       0x44 CMakeFiles\Basic_workflow.dir/objects.a(Can_Implementation.cpp.obj)
 .eh_frame$_ZN19Can_RxHwObjFifoType7dequeueER11PduInfoTypeR10Can_HwTypej
                0x00444938       0x40 CMakeFiles\Basic_workflow.dir/objects.a(Can_Implementation.cpp.obj)
 .eh_frame$_ZNK19Can_RxHwObjFifoType7isEmptyEv
                0x00444978       0x38 CMakeFiles\Basic_workflow.dir/objects.a(Can_Implementation.cpp.obj)
 .eh_frame$_ZN19Can_RxHwObjFifoType5clearEv
                0x004449b0       0x38 CMakeFiles\Basic_workflow.dir/objects.a(Can_Implementation.cpp.obj)
 .eh_frame$_ZN18Can_HwobjStateTypeC1Ev
                0x004449e8       0x38 CMakeFiles\Basic_workflow.dir/objects.a(Can_Implementation.cpp.obj)
 .eh_frame$_ZN18Can_HwobjStateType5resetEv
                0x00444a20       0x38 CMakeFiles\Basic_workflow.dir/objects.a(Can_Implementation.cpp.obj)
 .eh_frame      0x00444a58      0x7c4 CMakeFiles\Basic_workflow.dir/objects.a(Can_Implementation.cpp.obj)
 .eh_frame$_ZN13VirtualDevice16UnsignedValueForERK10vrtaAction
                0x0044521c       0x38 CMakeFiles\Basic_workflow.dir/objects.a(Mcu_Device.cpp.obj)
 .eh_frame$_ZN13VirtualDevice6NoDataER10vrtaAction
                0x00445254       0x38 CMakeFiles\Basic_workflow.dir/objects.a(Mcu_Device.cpp.obj)
 .eh_frame$_ZN9McuDeviceC1EPKc
                0x0044528c       0x48 CMakeFiles\Basic_workflow.dir/objects.a(Mcu_Device.cpp.obj)
 .eh_frame$_ZN9McuDevice11ResetReasonE13Mcu_ResetType
                0x004452d4       0x44 CMakeFiles\Basic_workflow.dir/objects.a(Mcu_Device.cpp.obj)
 .eh_frame$_ZN9McuDevice11Reset_countEv
                0x00445318       0x38 CMakeFiles\Basic_workflow.dir/objects.a(Mcu_Device.cpp.obj)
 .eh_frame$_ZN9McuDevice21GetPersistentDataSizeEv
                0x00445350       0x38 CMakeFiles\Basic_workflow.dir/objects.a(Mcu_Device.cpp.obj)
 .eh_frame$_ZN9McuDevice17GetPersistentDataEv
                0x00445388       0x38 CMakeFiles\Basic_workflow.dir/objects.a(Mcu_Device.cpp.obj)
 .eh_frame$_ZN9McuDevice17SetPersistentDataEPht
                0x004453c0       0x38 CMakeFiles\Basic_workflow.dir/objects.a(Mcu_Device.cpp.obj)
 .eh_frame$_ZN9McuDevice13GetDeviceInfoERN13VirtualDevice7OptListE
                0x004453f8       0x38 CMakeFiles\Basic_workflow.dir/objects.a(Mcu_Device.cpp.obj)
 .eh_frame$_ZN9McuDevice16GetDeviceActionsERN13VirtualDevice10ActionListE
                0x00445430       0x38 CMakeFiles\Basic_workflow.dir/objects.a(Mcu_Device.cpp.obj)
 .eh_frame$_ZN9McuDevice17InjectResetActionERK10vrtaAction
                0x00445468       0x38 CMakeFiles\Basic_workflow.dir/objects.a(Mcu_Device.cpp.obj)
 .eh_frame$_ZN9McuDevice15GetDeviceEventsERN13VirtualDevice9EventListE
                0x004454a0       0x40 CMakeFiles\Basic_workflow.dir/objects.a(Mcu_Device.cpp.obj)
 .eh_frame$_ZN9McuDevice16ResetReasonEventER9vrtaEvent
                0x004454e0       0x38 CMakeFiles\Basic_workflow.dir/objects.a(Mcu_Device.cpp.obj)
 .eh_frame$_ZN9McuDevice15ResetCountEventER9vrtaEvent
                0x00445518       0x38 CMakeFiles\Basic_workflow.dir/objects.a(Mcu_Device.cpp.obj)
 .eh_frame      0x00445550       0xd8 CMakeFiles\Basic_workflow.dir/objects.a(Mcu_Device.cpp.obj)
 .eh_frame$_ZN13VirtualDevice8SetValueIjEEvR9vrtaEventT_
                0x00445628       0x38 CMakeFiles\Basic_workflow.dir/objects.a(Mcu_Device.cpp.obj)
 .eh_frame$_ZN9McuDeviceD1Ev
                0x00445660       0x38 CMakeFiles\Basic_workflow.dir/objects.a(Mcu_Device.cpp.obj)
 .eh_frame$_ZN9McuDeviceD0Ev
                0x00445698       0x38 CMakeFiles\Basic_workflow.dir/objects.a(Mcu_Device.cpp.obj)
 .eh_frame      0x004456d0      0x1d8 CMakeFiles\Basic_workflow.dir/objects.a(Mcu_Implementation.cpp.obj)
 .eh_frame$_ZN15MCAL_HwProviderD2Ev
                0x004458a8       0x38 CMakeFiles\Basic_workflow.dir/objects.a(VirtualCan.cpp.obj)
 .eh_frame$_ZN6Can_HwC2EPFvj13Can_Hwp_EventtP13Can_Hwp_FrameEj
                0x004458e0       0x38 CMakeFiles\Basic_workflow.dir/objects.a(VirtualCan.cpp.obj)
 .eh_frame$_ZN6Can_HwD2Ev
                0x00445918       0x38 CMakeFiles\Basic_workflow.dir/objects.a(VirtualCan.cpp.obj)
 .eh_frame$_ZN6Can_Hw24EnableTransmitProcessingEb
                0x00445950       0x38 CMakeFiles\Basic_workflow.dir/objects.a(VirtualCan.cpp.obj)
 .eh_frame$_ZN20Can_Virtual_TxObjectC1Ev
                0x00445988       0x38 CMakeFiles\Basic_workflow.dir/objects.a(VirtualCan.cpp.obj)
 .eh_frame$_ZN22Can_Virtual_ControllerC1Ev
                0x004459c0       0x38 CMakeFiles\Basic_workflow.dir/objects.a(VirtualCan.cpp.obj)
 .eh_frame$_ZN22Can_Virtual_ControllerD1Ev
                0x004459f8       0x38 CMakeFiles\Basic_workflow.dir/objects.a(VirtualCan.cpp.obj)
 .eh_frame$_ZN22Can_Virtual_Controller6UpCallE13Can_Hwp_EventtP13Can_Hwp_Frame
                0x00445a30       0x3c CMakeFiles\Basic_workflow.dir/objects.a(VirtualCan.cpp.obj)
 .eh_frame$_ZN18Can_Virtual_DriverC1Ev
                0x00445a6c       0x38 CMakeFiles\Basic_workflow.dir/objects.a(VirtualCan.cpp.obj)
 .eh_frame$_ZN18Can_Virtual_DriverD1Ev
                0x00445aa4       0x3c CMakeFiles\Basic_workflow.dir/objects.a(VirtualCan.cpp.obj)
 .eh_frame$_ZN18Can_Virtual_Driver10InitialiseEv
                0x00445ae0       0x44 CMakeFiles\Basic_workflow.dir/objects.a(VirtualCan.cpp.obj)
 .eh_frame$_ZN18Can_Virtual_Driver12DeInitialiseEv
                0x00445b24       0x3c CMakeFiles\Basic_workflow.dir/objects.a(VirtualCan.cpp.obj)
 .eh_frame$_ZN18Can_Virtual_Driver8TeardownEv
                0x00445b60       0x38 CMakeFiles\Basic_workflow.dir/objects.a(VirtualCan.cpp.obj)
 .eh_frame$_ZN18Can_Virtual_Driver19IsControllerPresentEj
                0x00445b98       0x38 CMakeFiles\Basic_workflow.dir/objects.a(VirtualCan.cpp.obj)
 .eh_frame$_ZN18Can_Virtual_Driver13AddControllerEjPKcPFvj13Can_Hwp_EventtP13Can_Hwp_FrameEj
                0x00445bd0       0x38 CMakeFiles\Basic_workflow.dir/objects.a(VirtualCan.cpp.obj)
 .eh_frame$_ZN18Can_Virtual_Driver19ConfigureControllerEjPK21Can_Hwp_ChannelConfig
                0x00445c08       0x48 CMakeFiles\Basic_workflow.dir/objects.a(VirtualCan.cpp.obj)
 .eh_frame$_ZN18Can_Virtual_Driver21SetControllerBaudrateEjPK22Can_Hwp_BaudrateConfig
                0x00445c50       0x38 CMakeFiles\Basic_workflow.dir/objects.a(VirtualCan.cpp.obj)
 .eh_frame$_ZN18Can_Virtual_Driver15StartControllerEj
                0x00445c88       0x38 CMakeFiles\Basic_workflow.dir/objects.a(VirtualCan.cpp.obj)
 .eh_frame$_ZN18Can_Virtual_Driver15SleepControllerEj
                0x00445cc0       0x38 CMakeFiles\Basic_workflow.dir/objects.a(VirtualCan.cpp.obj)
 .eh_frame$_ZN18Can_Virtual_Driver14StopControllerEj
                0x00445cf8       0x38 CMakeFiles\Basic_workflow.dir/objects.a(VirtualCan.cpp.obj)
 .eh_frame$_ZN18Can_Virtual_Driver22ControllerCausedWakeupEj
                0x00445d30       0x38 CMakeFiles\Basic_workflow.dir/objects.a(VirtualCan.cpp.obj)
 .eh_frame$_ZN18Can_Virtual_Driver5StateEj
                0x00445d68       0x38 CMakeFiles\Basic_workflow.dir/objects.a(VirtualCan.cpp.obj)
 .eh_frame$_ZN18Can_Virtual_Driver11ForceBusOffEj
                0x00445da0       0x38 CMakeFiles\Basic_workflow.dir/objects.a(VirtualCan.cpp.obj)
 .eh_frame$_ZN18Can_Virtual_Driver11ForceWakeupEj
                0x00445dd8       0x38 CMakeFiles\Basic_workflow.dir/objects.a(VirtualCan.cpp.obj)
 .eh_frame$_ZN18Can_Virtual_Driver5WriteEjtP13Can_Hwp_Frame
                0x00445e10       0x38 CMakeFiles\Basic_workflow.dir/objects.a(VirtualCan.cpp.obj)
 .eh_frame$_ZN18Can_Virtual_Driver27GetControllerTxErrorCounterEhPh
                0x00445e48       0x38 CMakeFiles\Basic_workflow.dir/objects.a(VirtualCan.cpp.obj)
 .eh_frame$_ZN18Can_Virtual_Driver28InjectControllerTxErrorCountEhh
                0x00445e80       0x38 CMakeFiles\Basic_workflow.dir/objects.a(VirtualCan.cpp.obj)
 .eh_frame$_ZN18Can_Virtual_Driver27GetControllerRxErrorCounterEhPh
                0x00445eb8       0x38 CMakeFiles\Basic_workflow.dir/objects.a(VirtualCan.cpp.obj)
 .eh_frame$_ZN18Can_Virtual_Driver28InjectControllerRxErrorCountEhh
                0x00445ef0       0x38 CMakeFiles\Basic_workflow.dir/objects.a(VirtualCan.cpp.obj)
 .eh_frame$_ZN18Can_Virtual_Driver11CurrentTimeEhP17Can_TimeStampTypeh
                0x00445f28       0x38 CMakeFiles\Basic_workflow.dir/objects.a(VirtualCan.cpp.obj)
 .eh_frame$_ZN18Can_Virtual_Driver17InjectCurrentTimeEh17Can_TimeStampType
                0x00445f60       0x38 CMakeFiles\Basic_workflow.dir/objects.a(VirtualCan.cpp.obj)
 .eh_frame$_ZN18Can_Virtual_Driver21EnableEgressTimeStampEht
                0x00445f98       0x38 CMakeFiles\Basic_workflow.dir/objects.a(VirtualCan.cpp.obj)
 .eh_frame$_ZN18Can_Virtual_Driver27InjectEnableEgressTimeStampEhth
                0x00445fd0       0x38 CMakeFiles\Basic_workflow.dir/objects.a(VirtualCan.cpp.obj)
 .eh_frame$_ZN18Can_Virtual_Driver18GetEgressTimeStampEhttP17Can_TimeStampType
                0x00446008       0x38 CMakeFiles\Basic_workflow.dir/objects.a(VirtualCan.cpp.obj)
 .eh_frame$_ZN18Can_Virtual_Driver21InjectEgressTimeStampEhtt17Can_TimeStampType
                0x00446040       0x38 CMakeFiles\Basic_workflow.dir/objects.a(VirtualCan.cpp.obj)
 .eh_frame$_ZN18Can_Virtual_Driver19GetIngressTimeStampEhtP17Can_TimeStampType
                0x00446078       0x38 CMakeFiles\Basic_workflow.dir/objects.a(VirtualCan.cpp.obj)
 .eh_frame$_ZN18Can_Virtual_Driver22InjectIngressTimeStampEht17Can_TimeStampType
                0x004460b0       0x38 CMakeFiles\Basic_workflow.dir/objects.a(VirtualCan.cpp.obj)
 .eh_frame$_ZN18Can_Virtual_Driver12WorkerThreadEv
                0x004460e8       0x38 CMakeFiles\Basic_workflow.dir/objects.a(VirtualCan.cpp.obj)
 .eh_frame$_ZN18Can_Virtual_Driver24EnableTransmitProcessingEjb
                0x00446120       0x38 CMakeFiles\Basic_workflow.dir/objects.a(VirtualCan.cpp.obj)
 .eh_frame$_ZN18Can_Virtual_Driver12HandleBusOffEP22Can_Virtual_Controller
                0x00446158       0x38 CMakeFiles\Basic_workflow.dir/objects.a(VirtualCan.cpp.obj)
 .eh_frame$_ZN18Can_Virtual_Driver12HandleWakeupEP22Can_Virtual_Controller
                0x00446190       0x38 CMakeFiles\Basic_workflow.dir/objects.a(VirtualCan.cpp.obj)
 .eh_frame$_ZN18Can_Virtual_Driver11HandleErrorEP22Can_Virtual_Controller
                0x004461c8       0x38 CMakeFiles\Basic_workflow.dir/objects.a(VirtualCan.cpp.obj)
 .eh_frame$_ZN18Can_Virtual_Driver21ChangeControllerStateEP22Can_Virtual_Controller
                0x00446200       0x38 CMakeFiles\Basic_workflow.dir/objects.a(VirtualCan.cpp.obj)
 .eh_frame$_ZN18Can_Virtual_Driver20ResetTransmitObjectsEP22Can_Virtual_Controller
                0x00446238       0x38 CMakeFiles\Basic_workflow.dir/objects.a(VirtualCan.cpp.obj)
 .eh_frame$_ZN18Can_Virtual_Driver14TransmitFramesEP22Can_Virtual_Controllerj
                0x00446270       0x3c CMakeFiles\Basic_workflow.dir/objects.a(VirtualCan.cpp.obj)
 .eh_frame$_ZN18Can_Virtual_Driver12ReceiveFrameEP22Can_Virtual_ControllerS1_P13Can_Hwp_Frame
                0x004462ac       0x3c CMakeFiles\Basic_workflow.dir/objects.a(VirtualCan.cpp.obj)
 .eh_frame$_ZN18Can_Virtual_Driver10SetupEventERPv
                0x004462e8       0x38 CMakeFiles\Basic_workflow.dir/objects.a(VirtualCan.cpp.obj)
 .eh_frame$_ZN18Can_Virtual_Driver12WaitForEventEPv
                0x00446320       0x38 CMakeFiles\Basic_workflow.dir/objects.a(VirtualCan.cpp.obj)
 .eh_frame$_ZN18Can_Virtual_Driver9SendEventEPv
                0x00446358       0x38 CMakeFiles\Basic_workflow.dir/objects.a(VirtualCan.cpp.obj)
 .eh_frame      0x00446390       0xd8 CMakeFiles\Basic_workflow.dir/objects.a(VirtualCan.cpp.obj)
 .eh_frame$_ZN13Can_VirtualHwC1EPFvj13Can_Hwp_EventtP13Can_Hwp_FrameEjj
                0x00446468       0x48 CMakeFiles\Basic_workflow.dir/objects.a(VirtualCan.cpp.obj)
 .eh_frame$_ZN13Can_VirtualHw9ConfigureEPK21Can_Hwp_ChannelConfig
                0x004464b0       0x38 CMakeFiles\Basic_workflow.dir/objects.a(VirtualCan.cpp.obj)
 .eh_frame$_ZN13Can_VirtualHw11SetBaudrateEPK22Can_Hwp_BaudrateConfig
                0x004464e8       0x38 CMakeFiles\Basic_workflow.dir/objects.a(VirtualCan.cpp.obj)
 .eh_frame$_ZN13Can_VirtualHw5StartEv
                0x00446520       0x38 CMakeFiles\Basic_workflow.dir/objects.a(VirtualCan.cpp.obj)
 .eh_frame$_ZN13Can_VirtualHw5SleepEv
                0x00446558       0x38 CMakeFiles\Basic_workflow.dir/objects.a(VirtualCan.cpp.obj)
 .eh_frame$_ZN13Can_VirtualHw4StopEv
                0x00446590       0x38 CMakeFiles\Basic_workflow.dir/objects.a(VirtualCan.cpp.obj)
 .eh_frame$_ZN13Can_VirtualHw5WriteEtP13Can_Hwp_Frame
                0x004465c8       0x38 CMakeFiles\Basic_workflow.dir/objects.a(VirtualCan.cpp.obj)
 .eh_frame$_ZN13Can_VirtualHw12CausedWakeupEv
                0x00446600       0x38 CMakeFiles\Basic_workflow.dir/objects.a(VirtualCan.cpp.obj)
 .eh_frame$_ZN13Can_VirtualHw5StateEv
                0x00446638       0x38 CMakeFiles\Basic_workflow.dir/objects.a(VirtualCan.cpp.obj)
 .eh_frame$_ZN13Can_VirtualHw11ForceBusOffEv
                0x00446670       0x38 CMakeFiles\Basic_workflow.dir/objects.a(VirtualCan.cpp.obj)
 .eh_frame$_ZN13Can_VirtualHw11ForceWakeupEv
                0x004466a8       0x38 CMakeFiles\Basic_workflow.dir/objects.a(VirtualCan.cpp.obj)
 .eh_frame$_ZN13Can_VirtualHw24EnableTransmitProcessingEb
                0x004466e0       0x38 CMakeFiles\Basic_workflow.dir/objects.a(VirtualCan.cpp.obj)
 .eh_frame$_ZN13Can_VirtualHw6DeInitEv
                0x00446718       0x38 CMakeFiles\Basic_workflow.dir/objects.a(VirtualCan.cpp.obj)
 .eh_frame$_ZN13Can_VirtualHw27GetControllerRxErrorCounterEPh
                0x00446750       0x38 CMakeFiles\Basic_workflow.dir/objects.a(VirtualCan.cpp.obj)
 .eh_frame$_ZN13Can_VirtualHw28InjectControllerRxErrorCountEh
                0x00446788       0x38 CMakeFiles\Basic_workflow.dir/objects.a(VirtualCan.cpp.obj)
 .eh_frame$_ZN13Can_VirtualHw27GetControllerTxErrorCounterEPh
                0x004467c0       0x38 CMakeFiles\Basic_workflow.dir/objects.a(VirtualCan.cpp.obj)
 .eh_frame$_ZN13Can_VirtualHw28InjectControllerTxErrorCountEh
                0x004467f8       0x38 CMakeFiles\Basic_workflow.dir/objects.a(VirtualCan.cpp.obj)
 .eh_frame$_ZN13Can_VirtualHw15ReadCurrentTimeEP17Can_TimeStampTypeh
                0x00446830       0x38 CMakeFiles\Basic_workflow.dir/objects.a(VirtualCan.cpp.obj)
 .eh_frame$_ZN13Can_VirtualHw17InjectCurrentTimeE17Can_TimeStampType
                0x00446868       0x38 CMakeFiles\Basic_workflow.dir/objects.a(VirtualCan.cpp.obj)
 .eh_frame$_ZN13Can_VirtualHw21EnableEgressTimeStampEt
                0x004468a0       0x38 CMakeFiles\Basic_workflow.dir/objects.a(VirtualCan.cpp.obj)
 .eh_frame$_ZN13Can_VirtualHw27InjectEnableEgressTimeStampEth
                0x004468d8       0x38 CMakeFiles\Basic_workflow.dir/objects.a(VirtualCan.cpp.obj)
 .eh_frame$_ZN13Can_VirtualHw18GetEgressTimeStampEttP17Can_TimeStampType
                0x00446910       0x3c CMakeFiles\Basic_workflow.dir/objects.a(VirtualCan.cpp.obj)
 .eh_frame$_ZN13Can_VirtualHw21InjectEgressTimeStampEtt17Can_TimeStampType
                0x0044694c       0x40 CMakeFiles\Basic_workflow.dir/objects.a(VirtualCan.cpp.obj)
 .eh_frame$_ZN13Can_VirtualHw19GetIngressTimeStampEtP17Can_TimeStampType
                0x0044698c       0x38 CMakeFiles\Basic_workflow.dir/objects.a(VirtualCan.cpp.obj)
 .eh_frame$_ZN13Can_VirtualHw22InjectIngressTimeStampEt17Can_TimeStampType
                0x004469c4       0x3c CMakeFiles\Basic_workflow.dir/objects.a(VirtualCan.cpp.obj)
 .eh_frame$_ZN22Can_Virtual_HwProvider14IsHardwareHereEj
                0x00446a00       0x38 CMakeFiles\Basic_workflow.dir/objects.a(VirtualCan.cpp.obj)
 .eh_frame$_ZN22Can_Virtual_HwProvider17IsHardwarePresentEj
                0x00446a38       0x38 CMakeFiles\Basic_workflow.dir/objects.a(VirtualCan.cpp.obj)
 .eh_frame$_ZN22Can_Virtual_HwProvider11GetHardwareEPFvj13Can_Hwp_EventtP13Can_Hwp_FrameEjj
                0x00446a70       0x4c CMakeFiles\Basic_workflow.dir/objects.a(VirtualCan.cpp.obj)
 .eh_frame$_ZN14Can_HwProviderD2Ev
                0x00446abc       0x38 CMakeFiles\Basic_workflow.dir/objects.a(VirtualCan.cpp.obj)
 .eh_frame$_ZN22Can_Virtual_HwProviderD1Ev
                0x00446af4       0x38 CMakeFiles\Basic_workflow.dir/objects.a(VirtualCan.cpp.obj)
 .eh_frame$_ZN22Can_Virtual_HwProviderD0Ev
                0x00446b2c       0x38 CMakeFiles\Basic_workflow.dir/objects.a(VirtualCan.cpp.obj)
 .eh_frame$_ZN13Can_VirtualHwD1Ev
                0x00446b64       0x38 CMakeFiles\Basic_workflow.dir/objects.a(VirtualCan.cpp.obj)
 .eh_frame$_ZN13Can_VirtualHwD0Ev
                0x00446b9c       0x38 CMakeFiles\Basic_workflow.dir/objects.a(VirtualCan.cpp.obj)
 .eh_frame$_ZN14vrtaComparable5ValueEv
                0x00446bd4       0x38 CMakeFiles\Basic_workflow.dir/objects.a(VRTA_SystemClock.cpp.obj)
 .eh_frame$_ZN13vrtaUpCounterC1EPcR13vrtaBaseClock
                0x00446c0c       0x38 CMakeFiles\Basic_workflow.dir/objects.a(VRTA_SystemClock.cpp.obj)
 .eh_frame      0x00446c44       0xd8 CMakeFiles\Basic_workflow.dir/objects.a(VRTA_SystemClock.cpp.obj)
 .eh_frame$_ZN9vrtaClockD1Ev
                0x00446d1c       0x38 CMakeFiles\Basic_workflow.dir/objects.a(VRTA_SystemClock.cpp.obj)
 .eh_frame$_ZThn36_N9vrtaClockD1Ev
                0x00446d54       0x2c CMakeFiles\Basic_workflow.dir/objects.a(VRTA_SystemClock.cpp.obj)
 .eh_frame      0x00446d80      0x118 CMakeFiles\Basic_workflow.dir/objects.a(Vrta_Cfg.cpp.obj)
 .eh_frame      0x00446e98       0x98 CMakeFiles\Basic_workflow.dir/objects.a(target.cpp.obj)
 .eh_frame      0x00446f30       0x2c C:/ETAS/RTA-CAR_12.2.0/RTA-CAR/workspace/Basic_Workflow/build/../src/os\RTAOS.lib(TerminateTask.o)
 .eh_frame      0x00446f5c       0x54 C:/ETAS/RTA-CAR_12.2.0/RTA-CAR/workspace/Basic_Workflow/build/../src/os\RTAOS.lib(Os_SetJmp.o)
 .eh_frame      0x00446fb0       0x2c C:/ETAS/RTA-CAR_12.2.0/RTA-CAR/workspace/Basic_Workflow/build/../src/os\RTAOS.lib(GetTaskID.o)
 .eh_frame      0x00446fdc       0x3c C:/ETAS/RTA-CAR_12.2.0/RTA-CAR/workspace/Basic_Workflow/build/../src/os\RTAOS.lib(SuspendOSInterrupts.o)
 .eh_frame      0x00447018       0xbc C:/ETAS/RTA-CAR_12.2.0/RTA-CAR/workspace/Basic_Workflow/build/../src/os\RTAOS.lib(Os_Cfg_Counters.o)
 .eh_frame      0x004470d4       0x3c C:/ETAS/RTA-CAR_12.2.0/RTA-CAR/workspace/Basic_Workflow/build/../src/os\RTAOS.lib(SuspendAllInterrupts.o)
 .eh_frame      0x00447110       0x98 C:/ETAS/RTA-CAR_12.2.0/RTA-CAR/workspace/Basic_Workflow/build/../src/os\RTAOS.lib(Os_Cfg.o)
 .eh_frame      0x004471a8       0x44 C:/ETAS/RTA-CAR_12.2.0/RTA-CAR/workspace/Basic_Workflow/build/../src/os\RTAOS.lib(StopScheduleTable.o)
 .eh_frame      0x004471ec       0x30 C:/ETAS/RTA-CAR_12.2.0/RTA-CAR/workspace/Basic_Workflow/build/../src/os\RTAOS.lib(ResumeOSInterrupts.o)
 .eh_frame$_ZN34vrtaCustomTickSourceImplementation4TickEv
                0x0044721c       0x38 C:/ETAS/RTA-CAR_12.2.0/RTA-CAR/workspace/Basic_Workflow/build/../src/os\RTAOS.lib(vrtaSystemClock.o)
 .eh_frame      0x00447254      0x5f8 C:/ETAS/RTA-CAR_12.2.0/RTA-CAR/workspace/Basic_Workflow/build/../src/os\RTAOS.lib(vrtaSystemClock.o)
 .eh_frame$_ZN26vrtaSystemClockIdleHandler4IdleEj
                0x0044784c       0x50 C:/ETAS/RTA-CAR_12.2.0/RTA-CAR/workspace/Basic_Workflow/build/../src/os\RTAOS.lib(vrtaSystemClock.o)
 .eh_frame$_ZN34vrtaCustomTickSourceImplementationD1Ev
                0x0044789c       0x44 C:/ETAS/RTA-CAR_12.2.0/RTA-CAR/workspace/Basic_Workflow/build/../src/os\RTAOS.lib(vrtaSystemClock.o)
 .eh_frame$_ZN34vrtaCustomTickSourceImplementationD0Ev
                0x004478e0       0x4c C:/ETAS/RTA-CAR_12.2.0/RTA-CAR/workspace/Basic_Workflow/build/../src/os\RTAOS.lib(vrtaSystemClock.o)
 .eh_frame      0x0044792c       0x48 C:/ETAS/RTA-CAR_12.2.0/RTA-CAR/workspace/Basic_Workflow/build/../src/os\RTAOS.lib(StartScheduleTableRel.o)
 .eh_frame      0x00447974       0x30 C:/ETAS/RTA-CAR_12.2.0/RTA-CAR/workspace/Basic_Workflow/build/../src/os\RTAOS.lib(ResumeAllInterrupts.o)
 .eh_frame      0x004479a4       0x3c C:/ETAS/RTA-CAR_12.2.0/RTA-CAR/workspace/Basic_Workflow/build/../src/os\RTAOS.lib(GetResource.o)
 .eh_frame$_ZN13vrtaBaseClock8StoppingEv
                0x004479e0       0x2c C:/ETAS/RTA-CAR_12.2.0/RTA-CAR/workspace/Basic_Workflow/build/../src/os\RTAOS.lib(vrtaSampleDevices.o)
 .eh_frame$_ZN13vrtaBaseClock21GetPersistentDataSizeEv
                0x00447a0c       0x2c C:/ETAS/RTA-CAR_12.2.0/RTA-CAR/workspace/Basic_Workflow/build/../src/os\RTAOS.lib(vrtaSampleDevices.o)
 .eh_frame$_ZN13vrtaBaseClock17GetPersistentDataEv
                0x00447a38       0x2c C:/ETAS/RTA-CAR_12.2.0/RTA-CAR/workspace/Basic_Workflow/build/../src/os\RTAOS.lib(vrtaSampleDevices.o)
 .eh_frame$_ZN13vrtaBaseClock4StopEv
                0x00447a64       0x2c C:/ETAS/RTA-CAR_12.2.0/RTA-CAR/workspace/Basic_Workflow/build/../src/os\RTAOS.lib(vrtaSampleDevices.o)
 .eh_frame$_ZN14vrtaComparable21GetPersistentDataSizeEv
                0x00447a90       0x2c C:/ETAS/RTA-CAR_12.2.0/RTA-CAR/workspace/Basic_Workflow/build/../src/os\RTAOS.lib(vrtaSampleDevices.o)
 .eh_frame$_ZN14vrtaComparable17GetPersistentDataEv
                0x00447abc       0x2c C:/ETAS/RTA-CAR_12.2.0/RTA-CAR/workspace/Basic_Workflow/build/../src/os\RTAOS.lib(vrtaSampleDevices.o)
 .eh_frame$_ZN14vrtaComparable6SetValEj
                0x00447ae8       0x2c C:/ETAS/RTA-CAR_12.2.0/RTA-CAR/workspace/Basic_Workflow/build/../src/os\RTAOS.lib(vrtaSampleDevices.o)
 .eh_frame$_ZN11vrtaCounter21GetPersistentDataSizeEv
                0x00447b14       0x2c C:/ETAS/RTA-CAR_12.2.0/RTA-CAR/workspace/Basic_Workflow/build/../src/os\RTAOS.lib(vrtaSampleDevices.o)
 .eh_frame$_ZN11vrtaCompare8StartingEv
                0x00447b40       0x2c C:/ETAS/RTA-CAR_12.2.0/RTA-CAR/workspace/Basic_Workflow/build/../src/os\RTAOS.lib(vrtaSampleDevices.o)
 .eh_frame$_ZN11vrtaCompare8StoppingEv
                0x00447b6c       0x2c C:/ETAS/RTA-CAR_12.2.0/RTA-CAR/workspace/Basic_Workflow/build/../src/os\RTAOS.lib(vrtaSampleDevices.o)
 .eh_frame$_ZN11vrtaCompare21GetPersistentDataSizeEv
                0x00447b98       0x2c C:/ETAS/RTA-CAR_12.2.0/RTA-CAR/workspace/Basic_Workflow/build/../src/os\RTAOS.lib(vrtaSampleDevices.o)
 .eh_frame$_ZN11vrtaCompare17GetPersistentDataEv
                0x00447bc4       0x2c C:/ETAS/RTA-CAR_12.2.0/RTA-CAR/workspace/Basic_Workflow/build/../src/os\RTAOS.lib(vrtaSampleDevices.o)
 .eh_frame$_ZN10vrtaSensor8StartingEv
                0x00447bf0       0x2c C:/ETAS/RTA-CAR_12.2.0/RTA-CAR/workspace/Basic_Workflow/build/../src/os\RTAOS.lib(vrtaSampleDevices.o)
 .eh_frame$_ZN10vrtaSensor8StoppingEv
                0x00447c1c       0x2c C:/ETAS/RTA-CAR_12.2.0/RTA-CAR/workspace/Basic_Workflow/build/../src/os\RTAOS.lib(vrtaSampleDevices.o)
 .eh_frame$_ZN10vrtaSensor21GetPersistentDataSizeEv
                0x00447c48       0x2c C:/ETAS/RTA-CAR_12.2.0/RTA-CAR/workspace/Basic_Workflow/build/../src/os\RTAOS.lib(vrtaSampleDevices.o)
 .eh_frame$_ZN12vrtaActuator8StartingEv
                0x00447c74       0x2c C:/ETAS/RTA-CAR_12.2.0/RTA-CAR/workspace/Basic_Workflow/build/../src/os\RTAOS.lib(vrtaSampleDevices.o)
 .eh_frame$_ZN12vrtaActuator8StoppingEv
                0x00447ca0       0x2c C:/ETAS/RTA-CAR_12.2.0/RTA-CAR/workspace/Basic_Workflow/build/../src/os\RTAOS.lib(vrtaSampleDevices.o)
 .eh_frame$_ZN12vrtaActuator21GetPersistentDataSizeEv
                0x00447ccc       0x2c C:/ETAS/RTA-CAR_12.2.0/RTA-CAR/workspace/Basic_Workflow/build/../src/os\RTAOS.lib(vrtaSampleDevices.o)
 .eh_frame      0x00447cf8      0xd00 C:/ETAS/RTA-CAR_12.2.0/RTA-CAR/workspace/Basic_Workflow/build/../src/os\RTAOS.lib(vrtaSampleDevices.o)
 .eh_frame$_ZN17vrtaAdaptiveClockD1Ev
                0x004489f8       0x4c C:/ETAS/RTA-CAR_12.2.0/RTA-CAR/workspace/Basic_Workflow/build/../src/os\RTAOS.lib(vrtaSampleDevices.o)
 .eh_frame$_ZThn36_N17vrtaAdaptiveClockD1Ev
                0x00448a44       0x2c C:/ETAS/RTA-CAR_12.2.0/RTA-CAR/workspace/Basic_Workflow/build/../src/os\RTAOS.lib(vrtaSampleDevices.o)
 .eh_frame$_ZN9vrtaClockD0Ev
                0x00448a70       0x54 C:/ETAS/RTA-CAR_12.2.0/RTA-CAR/workspace/Basic_Workflow/build/../src/os\RTAOS.lib(vrtaSampleDevices.o)
 .eh_frame$_ZThn36_N9vrtaClockD0Ev
                0x00448ac4       0x2c C:/ETAS/RTA-CAR_12.2.0/RTA-CAR/workspace/Basic_Workflow/build/../src/os\RTAOS.lib(vrtaSampleDevices.o)
 .eh_frame$_ZN17vrtaAdaptiveClockD0Ev
                0x00448af0       0x54 C:/ETAS/RTA-CAR_12.2.0/RTA-CAR/workspace/Basic_Workflow/build/../src/os\RTAOS.lib(vrtaSampleDevices.o)
 .eh_frame$_ZThn36_N17vrtaAdaptiveClockD0Ev
                0x00448b44       0x2c C:/ETAS/RTA-CAR_12.2.0/RTA-CAR/workspace/Basic_Workflow/build/../src/os\RTAOS.lib(vrtaSampleDevices.o)
 .eh_frame$_ZN12vrtaActuator17GetPersistentDataEv
                0x00448b70       0x3c C:/ETAS/RTA-CAR_12.2.0/RTA-CAR/workspace/Basic_Workflow/build/../src/os\RTAOS.lib(vrtaSampleDevices.o)
 .eh_frame$_ZN11vrtaCounter17GetPersistentDataEv
                0x00448bac       0x3c C:/ETAS/RTA-CAR_12.2.0/RTA-CAR/workspace/Basic_Workflow/build/../src/os\RTAOS.lib(vrtaSampleDevices.o)
 .eh_frame$_ZN10vrtaSensor17GetPersistentDataEv
                0x00448be8       0x3c C:/ETAS/RTA-CAR_12.2.0/RTA-CAR/workspace/Basic_Workflow/build/../src/os\RTAOS.lib(vrtaSampleDevices.o)
 .eh_frame      0x00448c24       0x48 C:/ETAS/RTA-CAR_12.2.0/RTA-CAR/workspace/Basic_Workflow/build/../src/os\RTAOS.lib(StartOS.o)
 .eh_frame      0x00448c6c       0x34 C:/ETAS/RTA-CAR_12.2.0/RTA-CAR/workspace/Basic_Workflow/build/../src/os\RTAOS.lib(ShutdownOS.o)
 .eh_frame      0x00448ca0       0x78 C:/ETAS/RTA-CAR_12.2.0/RTA-CAR/workspace/Basic_Workflow/build/../src/os\RTAOS.lib(vrtaPrintf.o)
 .eh_frame      0x00448d18       0x48 C:/ETAS/RTA-CAR_12.2.0/RTA-CAR/workspace/Basic_Workflow/build/../src/os\RTAOS.lib(ActivateTask.o)
 .eh_frame      0x00448d60       0x3c C:/ETAS/RTA-CAR_12.2.0/RTA-CAR/workspace/Basic_Workflow/build/../src/os\RTAOS.lib(ReleaseResource.o)
 .eh_frame      0x00448d9c       0x2c C:/ETAS/RTA-CAR_12.2.0/RTA-CAR/workspace/Basic_Workflow/build/../src/os\RTAOS.lib(GetISRID.o)
 .eh_frame      0x00448dc8      0x3f4 C:/ETAS/RTA-CAR_12.2.0/RTA-CAR/workspace/Basic_Workflow/build/../src/os\RTAOS.lib(vrtaLoggerDevice.o)
 .eh_frame      0x004491bc       0x80 C:/ETAS/RTA-CAR_12.2.0/RTA-CAR/workspace/Basic_Workflow/build/../src/os\RTAOS.lib(vrtaIdleHandling.o)
 .eh_frame      0x0044923c       0x38 C:/ETAS/RTA-CAR_12.2.0/RTA-CAR/workspace/Basic_Workflow/build/../src/os\RTAOS.lib(DispatchTask.o)
 .eh_frame$_ZN10vrtaDevice21GetPersistentDataSizeEv
                0x00449274       0x2c C:/ETAS/RTA-CAR_12.2.0/RTA-CAR/workspace/Basic_Workflow/build/../src/os\RTAOS.lib(vrtaCore.o)
 .eh_frame$_ZN10vrtaDevice17GetPersistentDataEv
                0x004492a0       0x2c C:/ETAS/RTA-CAR_12.2.0/RTA-CAR/workspace/Basic_Workflow/build/../src/os\RTAOS.lib(vrtaCore.o)
 .eh_frame$_ZN10vrtaDevice17SetPersistentDataEPht
                0x004492cc       0x2c C:/ETAS/RTA-CAR_12.2.0/RTA-CAR/workspace/Basic_Workflow/build/../src/os\RTAOS.lib(vrtaCore.o)
 .eh_frame      0x004492f8      0x824 C:/ETAS/RTA-CAR_12.2.0/RTA-CAR/workspace/Basic_Workflow/build/../src/os\RTAOS.lib(vrtaCore.o)
 .eh_frame      0x00449b1c       0xd8 C:/ETAS/RTA-CAR_12.2.0/RTA-CAR/workspace/Basic_Workflow/build/../src/os\RTAOS.lib(vrtaAppMain.o)
 .eh_frame      0x00449bf4      0x9e0 C:/ETAS/RTA-CAR_12.2.0/RTA-CAR/workspace/Basic_Workflow/build/../src/os\RTAOS.lib(virtualDevice.o)
 .eh_frame$_ZN13VirtualDevice7OptListD1Ev
                0x0044a5d4       0x30 C:/ETAS/RTA-CAR_12.2.0/RTA-CAR/workspace/Basic_Workflow/build/../src/os\RTAOS.lib(virtualDevice.o)
 .eh_frame$_ZN13VirtualDevice9EventListD1Ev
                0x0044a604       0x30 C:/ETAS/RTA-CAR_12.2.0/RTA-CAR/workspace/Basic_Workflow/build/../src/os\RTAOS.lib(virtualDevice.o)
 .eh_frame$_ZN13VirtualDevice10ActionListD1Ev
                0x0044a634       0x30 C:/ETAS/RTA-CAR_12.2.0/RTA-CAR/workspace/Basic_Workflow/build/../src/os\RTAOS.lib(virtualDevice.o)
 .eh_frame$_ZN13VirtualDevice7OptListD0Ev
                0x0044a664       0x38 C:/ETAS/RTA-CAR_12.2.0/RTA-CAR/workspace/Basic_Workflow/build/../src/os\RTAOS.lib(virtualDevice.o)
 .eh_frame$_ZN13VirtualDevice9EventListD0Ev
                0x0044a69c       0x38 C:/ETAS/RTA-CAR_12.2.0/RTA-CAR/workspace/Basic_Workflow/build/../src/os\RTAOS.lib(virtualDevice.o)
 .eh_frame$_ZN13VirtualDevice10ActionListD0Ev
                0x0044a6d4       0x38 C:/ETAS/RTA-CAR_12.2.0/RTA-CAR/workspace/Basic_Workflow/build/../src/os\RTAOS.lib(virtualDevice.o)
 .eh_frame      0x0044a70c       0x40 C:/ETAS/RTA-CAR_12.2.0/RTA-CAR/workspace/Basic_Workflow/build/../src/os\RTAOS.lib(Os_Stack.o)
 .eh_frame      0x0044a74c       0x38 C:/ETAS/RTA-CAR_12.2.0/RTA-CAR/workspace/Basic_Workflow/build/../src/os\RTAOS.lib(Os_Cfg_KL.o)
 .eh_frame      0x0044a784       0x2c C:/ETAS/RTA-CAR_12.2.0/RTA-CAR/workspace/Basic_Workflow/build/../src/os\RTAOS.lib(Os_fsb.o)
 .eh_frame      0x0044a7b0       0x30 C:/ETAS/RTA-CAR_12.2.0/RTA-CAR/workspace/Basic_Workflow/build/../src/os\RTAOS.lib(GetStackValue.o)
 .eh_frame$_ZN17SystemClockDevice21GetPersistentDataSizeEv
                0x0044a7e0       0x2c C:/ETAS/RTA-CAR_12.2.0/RTA-CAR/workspace/Basic_Workflow/build/../src/os\RTAOS.lib(vrtaSystemClockDevice.o)
 .eh_frame$_ZN17SystemClockDevice17GetPersistentDataEv
                0x0044a80c       0x2c C:/ETAS/RTA-CAR_12.2.0/RTA-CAR/workspace/Basic_Workflow/build/../src/os\RTAOS.lib(vrtaSystemClockDevice.o)
 .eh_frame$_ZN17SystemClockDevice10TicksEventER9vrtaEvent
                0x0044a838       0x2c C:/ETAS/RTA-CAR_12.2.0/RTA-CAR/workspace/Basic_Workflow/build/../src/os\RTAOS.lib(vrtaSystemClockDevice.o)
 .eh_frame$_ZN17SystemClockDevice19TicksRemainingEventER9vrtaEvent
                0x0044a864       0x38 C:/ETAS/RTA-CAR_12.2.0/RTA-CAR/workspace/Basic_Workflow/build/../src/os\RTAOS.lib(vrtaSystemClockDevice.o)
 .eh_frame$_ZN17SystemClockDevice11TickEndDataER9vrtaEvent
                0x0044a89c       0x54 C:/ETAS/RTA-CAR_12.2.0/RTA-CAR/workspace/Basic_Workflow/build/../src/os\RTAOS.lib(vrtaSystemClockDevice.o)
 .eh_frame$_ZN17SystemClockDevice12DirectActionERK10vrtaAction
                0x0044a8f0       0x44 C:/ETAS/RTA-CAR_12.2.0/RTA-CAR/workspace/Basic_Workflow/build/../src/os\RTAOS.lib(vrtaSystemClockDevice.o)
 .eh_frame$_ZN17SystemClockDevice13UpdateAndTickERK10vrtaAction
                0x0044a934       0x68 C:/ETAS/RTA-CAR_12.2.0/RTA-CAR/workspace/Basic_Workflow/build/../src/os\RTAOS.lib(vrtaSystemClockDevice.o)
 .eh_frame$_ZN17SystemClockDevice9ModeEventER9vrtaEvent
                0x0044a99c       0x3c C:/ETAS/RTA-CAR_12.2.0/RTA-CAR/workspace/Basic_Workflow/build/../src/os\RTAOS.lib(vrtaSystemClockDevice.o)
 .eh_frame$_ZN17SystemClockDeviceD1Ev
                0x0044a9d8       0x2c C:/ETAS/RTA-CAR_12.2.0/RTA-CAR/workspace/Basic_Workflow/build/../src/os\RTAOS.lib(vrtaSystemClockDevice.o)
 .eh_frame      0x0044aa04      0x15c C:/ETAS/RTA-CAR_12.2.0/RTA-CAR/workspace/Basic_Workflow/build/../src/os\RTAOS.lib(vrtaSystemClockDevice.o)
 .eh_frame$_ZN17SystemClockDeviceD0Ev
                0x0044ab60       0x38 C:/ETAS/RTA-CAR_12.2.0/RTA-CAR/workspace/Basic_Workflow/build/../src/os\RTAOS.lib(vrtaSystemClockDevice.o)
 .eh_frame$_ZN17SystemClockDevice15GetDeviceEventsERN13VirtualDevice9EventListE
                0x0044ab98       0xfc C:/ETAS/RTA-CAR_12.2.0/RTA-CAR/workspace/Basic_Workflow/build/../src/os\RTAOS.lib(vrtaSystemClockDevice.o)
 .eh_frame$_ZN17SystemClockDevice10CSLIFEventER9vrtaEvent
                0x0044ac94       0x44 C:/ETAS/RTA-CAR_12.2.0/RTA-CAR/workspace/Basic_Workflow/build/../src/os\RTAOS.lib(vrtaSystemClockDevice.o)
 .eh_frame$_ZN17SystemClockDevice13StrategyEventER9vrtaEvent
                0x0044acd8       0x38 C:/ETAS/RTA-CAR_12.2.0/RTA-CAR/workspace/Basic_Workflow/build/../src/os\RTAOS.lib(vrtaSystemClockDevice.o)
 .eh_frame$_ZN17SystemClockDevice20DirectTickYieldEventER9vrtaEvent
                0x0044ad10       0x38 C:/ETAS/RTA-CAR_12.2.0/RTA-CAR/workspace/Basic_Workflow/build/../src/os\RTAOS.lib(vrtaSystemClockDevice.o)
 .eh_frame$_ZN17SystemClockDevice7MSEventER9vrtaEvent
                0x0044ad48       0x38 C:/ETAS/RTA-CAR_12.2.0/RTA-CAR/workspace/Basic_Workflow/build/../src/os\RTAOS.lib(vrtaSystemClockDevice.o)
 .eh_frame$_ZN17SystemClockDevice10ScaleEventER9vrtaEvent
                0x0044ad80       0x38 C:/ETAS/RTA-CAR_12.2.0/RTA-CAR/workspace/Basic_Workflow/build/../src/os\RTAOS.lib(vrtaSystemClockDevice.o)
 .eh_frame$_ZN17SystemClockDevice16GetDeviceActionsERN13VirtualDevice10ActionListE
                0x0044adb8      0x104 C:/ETAS/RTA-CAR_12.2.0/RTA-CAR/workspace/Basic_Workflow/build/../src/os\RTAOS.lib(vrtaSystemClockDevice.o)
 .eh_frame$_ZN17SystemClockDevice5CSLIFERK10vrtaAction
                0x0044aebc       0x94 C:/ETAS/RTA-CAR_12.2.0/RTA-CAR/workspace/Basic_Workflow/build/../src/os\RTAOS.lib(vrtaSystemClockDevice.o)
 .eh_frame$_ZN17SystemClockDevice13MonitorEventsERK10vrtaAction
                0x0044af50       0x4c C:/ETAS/RTA-CAR_12.2.0/RTA-CAR/workspace/Basic_Workflow/build/../src/os\RTAOS.lib(vrtaSystemClockDevice.o)
 .eh_frame$_ZN17SystemClockDevice17SetPersistentDataEPht
                0x0044af9c       0x4c C:/ETAS/RTA-CAR_12.2.0/RTA-CAR/workspace/Basic_Workflow/build/../src/os\RTAOS.lib(vrtaSystemClockDevice.o)
 .eh_frame$_ZN17SystemClockDevice14IdleTickActionERK10vrtaAction
                0x0044afe8       0x40 C:/ETAS/RTA-CAR_12.2.0/RTA-CAR/workspace/Basic_Workflow/build/../src/os\RTAOS.lib(vrtaSystemClockDevice.o)
 .eh_frame$_ZN17SystemClockDevice15DirectTickYieldERK10vrtaAction
                0x0044b028       0x38 C:/ETAS/RTA-CAR_12.2.0/RTA-CAR/workspace/Basic_Workflow/build/../src/os\RTAOS.lib(vrtaSystemClockDevice.o)
 .eh_frame$_ZN17SystemClockDevice12DirectFreezeERK10vrtaAction
                0x0044b060       0x38 C:/ETAS/RTA-CAR_12.2.0/RTA-CAR/workspace/Basic_Workflow/build/../src/os\RTAOS.lib(vrtaSystemClockDevice.o)
 .eh_frame$_ZN17SystemClockDevice10AutoActionERK10vrtaAction
                0x0044b098       0x40 C:/ETAS/RTA-CAR_12.2.0/RTA-CAR/workspace/Basic_Workflow/build/../src/os\RTAOS.lib(vrtaSystemClockDevice.o)
 .eh_frame$_ZN17SystemClockDevice14StrategyActionERK10vrtaAction
                0x0044b0d8       0x44 C:/ETAS/RTA-CAR_12.2.0/RTA-CAR/workspace/Basic_Workflow/build/../src/os\RTAOS.lib(vrtaSystemClockDevice.o)
 .eh_frame$_ZN17SystemClockDevice12ResumeActionERK10vrtaAction
                0x0044b11c       0x40 C:/ETAS/RTA-CAR_12.2.0/RTA-CAR/workspace/Basic_Workflow/build/../src/os\RTAOS.lib(vrtaSystemClockDevice.o)
 .eh_frame$_ZN17SystemClockDevice11PauseActionERK10vrtaAction
                0x0044b15c       0x40 C:/ETAS/RTA-CAR_12.2.0/RTA-CAR/workspace/Basic_Workflow/build/../src/os\RTAOS.lib(vrtaSystemClockDevice.o)
 .eh_frame$_ZN17SystemClockDevice11ScaleActionERK10vrtaAction
                0x0044b19c       0x44 C:/ETAS/RTA-CAR_12.2.0/RTA-CAR/workspace/Basic_Workflow/build/../src/os\RTAOS.lib(vrtaSystemClockDevice.o)
 .eh_frame$_ZN17SystemClockDevice13GetDeviceInfoERN13VirtualDevice7OptListE
                0x0044b1e0       0x4c C:/ETAS/RTA-CAR_12.2.0/RTA-CAR/workspace/Basic_Workflow/build/../src/os\RTAOS.lib(vrtaSystemClockDevice.o)
 .eh_frame$_ZN17SystemClockDevice11DirectEventER9vrtaEvent
                0x0044b22c       0x44 C:/ETAS/RTA-CAR_12.2.0/RTA-CAR/workspace/Basic_Workflow/build/../src/os\RTAOS.lib(vrtaSystemClockDevice.o)
 .eh_frame      0x0044b270       0x2c C:/ETAS/RTA-CAR_12.2.0/RTA-CAR/workspace/Basic_Workflow/build/../src/os\RTAOS.lib(InShutdown.o)
 .eh_frame$_ZN6OsCore7IdleSetERK10vrtaAction
                0x0044b29c       0x2c C:/ETAS/RTA-CAR_12.2.0/RTA-CAR/workspace/Basic_Workflow/build/../src/os\RTAOS.lib(vrtaOSMonitorDevice.o)
 .eh_frame$_ZN6OsCore6ParentER9vrtaEvent
                0x0044b2c8       0x2c C:/ETAS/RTA-CAR_12.2.0/RTA-CAR/workspace/Basic_Workflow/build/../src/os\RTAOS.lib(vrtaOSMonitorDevice.o)
 .eh_frame$_ZN6OsCore5IdlesER9vrtaEvent
                0x0044b2f4       0x2c C:/ETAS/RTA-CAR_12.2.0/RTA-CAR/workspace/Basic_Workflow/build/../src/os\RTAOS.lib(vrtaOSMonitorDevice.o)
 .eh_frame$_ZN6OsCore5AppIDER9vrtaEvent
                0x0044b320       0x2c C:/ETAS/RTA-CAR_12.2.0/RTA-CAR/workspace/Basic_Workflow/build/../src/os\RTAOS.lib(vrtaOSMonitorDevice.o)
 .eh_frame$_ZN6OsCore9LastErrorER9vrtaEvent
                0x0044b34c       0x2c C:/ETAS/RTA-CAR_12.2.0/RTA-CAR/workspace/Basic_Workflow/build/../src/os\RTAOS.lib(vrtaOSMonitorDevice.o)
 .eh_frame$_ZN6OsCore11RunningTaskER9vrtaEvent
                0x0044b378       0x2c C:/ETAS/RTA-CAR_12.2.0/RTA-CAR/workspace/Basic_Workflow/build/../src/os\RTAOS.lib(vrtaOSMonitorDevice.o)
 .eh_frame$_ZN6OsCore10RunningISRER9vrtaEvent
                0x0044b3a4       0x2c C:/ETAS/RTA-CAR_12.2.0/RTA-CAR/workspace/Basic_Workflow/build/../src/os\RTAOS.lib(vrtaOSMonitorDevice.o)
 .eh_frame$_ZN9OsMonitor16GetDeviceActionsERN13VirtualDevice10ActionListE
                0x0044b3d0       0x2c C:/ETAS/RTA-CAR_12.2.0/RTA-CAR/workspace/Basic_Workflow/build/../src/os\RTAOS.lib(vrtaOSMonitorDevice.o)
 .eh_frame$_ZN9OsMonitor12AppModeEventER9vrtaEvent
                0x0044b3fc       0x2c C:/ETAS/RTA-CAR_12.2.0/RTA-CAR/workspace/Basic_Workflow/build/../src/os\RTAOS.lib(vrtaOSMonitorDevice.o)
 .eh_frame$_ZN9OsMonitor23ISRVECU_SystemClock_ISRER9vrtaEvent
                0x0044b428       0x2c C:/ETAS/RTA-CAR_12.2.0/RTA-CAR/workspace/Basic_Workflow/build/../src/os\RTAOS.lib(vrtaOSMonitorDevice.o)
 .eh_frame$_ZN9OsMonitor14TASKOsTask_ASWER9vrtaEvent
                0x0044b454       0x2c C:/ETAS/RTA-CAR_12.2.0/RTA-CAR/workspace/Basic_Workflow/build/../src/os\RTAOS.lib(vrtaOSMonitorDevice.o)
 .eh_frame$_ZN9OsMonitor14TASKOsTask_BSWER9vrtaEvent
                0x0044b480       0x2c C:/ETAS/RTA-CAR_12.2.0/RTA-CAR/workspace/Basic_Workflow/build/../src/os\RTAOS.lib(vrtaOSMonitorDevice.o)
 .eh_frame$_ZN9OsMonitor12TASKInitTaskER9vrtaEvent
                0x0044b4ac       0x2c C:/ETAS/RTA-CAR_12.2.0/RTA-CAR/workspace/Basic_Workflow/build/../src/os\RTAOS.lib(vrtaOSMonitorDevice.o)
 .eh_frame$_ZN9OsMonitor22TableRte_ScheduleTableER9vrtaEvent
                0x0044b4d8       0x40 C:/ETAS/RTA-CAR_12.2.0/RTA-CAR/workspace/Basic_Workflow/build/../src/os\RTAOS.lib(vrtaOSMonitorDevice.o)
 .eh_frame      0x0044b518       0x74 C:/ETAS/RTA-CAR_12.2.0/RTA-CAR/workspace/Basic_Workflow/build/../src/os\RTAOS.lib(vrtaOSMonitorDevice.o)
 .eh_frame$_ZN9OsMonitorD1Ev
                0x0044b58c       0x2c C:/ETAS/RTA-CAR_12.2.0/RTA-CAR/workspace/Basic_Workflow/build/../src/os\RTAOS.lib(vrtaOSMonitorDevice.o)
 .eh_frame$_ZN6OsCoreD1Ev
                0x0044b5b8       0x2c C:/ETAS/RTA-CAR_12.2.0/RTA-CAR/workspace/Basic_Workflow/build/../src/os\RTAOS.lib(vrtaOSMonitorDevice.o)
 .eh_frame$_ZN9OsMonitorD0Ev
                0x0044b5e4       0x38 C:/ETAS/RTA-CAR_12.2.0/RTA-CAR/workspace/Basic_Workflow/build/../src/os\RTAOS.lib(vrtaOSMonitorDevice.o)
 .eh_frame$_ZN6OsCoreD0Ev
                0x0044b61c       0x38 C:/ETAS/RTA-CAR_12.2.0/RTA-CAR/workspace/Basic_Workflow/build/../src/os\RTAOS.lib(vrtaOSMonitorDevice.o)
 .eh_frame$_ZN9OsMonitor15GetDeviceEventsERN13VirtualDevice9EventListE
                0x0044b654       0xec C:/ETAS/RTA-CAR_12.2.0/RTA-CAR/workspace/Basic_Workflow/build/../src/os\RTAOS.lib(vrtaOSMonitorDevice.o)
 .eh_frame$_ZN6OsCore15GetDeviceEventsERN13VirtualDevice9EventListE
                0x0044b740       0xb0 C:/ETAS/RTA-CAR_12.2.0/RTA-CAR/workspace/Basic_Workflow/build/../src/os\RTAOS.lib(vrtaOSMonitorDevice.o)
 .eh_frame$_ZN9OsMonitor13GetDeviceInfoERN13VirtualDevice7OptListE
                0x0044b7f0       0x8c C:/ETAS/RTA-CAR_12.2.0/RTA-CAR/workspace/Basic_Workflow/build/../src/os\RTAOS.lib(vrtaOSMonitorDevice.o)
 .eh_frame$_ZN6OsCore13GetDeviceInfoERN13VirtualDevice7OptListE
                0x0044b87c       0x5c C:/ETAS/RTA-CAR_12.2.0/RTA-CAR/workspace/Basic_Workflow/build/../src/os\RTAOS.lib(vrtaOSMonitorDevice.o)
 .eh_frame$_ZN6OsCore16GetDeviceActionsERN13VirtualDevice10ActionListE
                0x0044b8d8       0x44 C:/ETAS/RTA-CAR_12.2.0/RTA-CAR/workspace/Basic_Workflow/build/../src/os\RTAOS.lib(vrtaOSMonitorDevice.o)
 .eh_frame$_ZN9OsMonitor22CounterRte_TickCounterER9vrtaEvent
                0x0044b91c       0x40 C:/ETAS/RTA-CAR_12.2.0/RTA-CAR/workspace/Basic_Workflow/build/../src/os\RTAOS.lib(vrtaOSMonitorDevice.o)
 .eh_frame$_ZN9OsMonitorC1EPKc
                0x0044b95c       0x54 C:/ETAS/RTA-CAR_12.2.0/RTA-CAR/workspace/Basic_Workflow/build/../src/os\RTAOS.lib(vrtaOSMonitorDevice.o)
 .eh_frame      0x0044b9b0       0x50 C:/ETAS/RTA-CAR_12.2.0/RTA-CAR/workspace/Basic_Workflow/build/../src/os\RTAOS.lib(Os_wrapper.o)
 .eh_frame      0x0044ba00      0x238 c:/mingw/bin/../lib/gcc/mingw32/6.3.0\libstdc++.a(eh_personality.o)
 .eh_frame      0x0044bc38       0x2c c:/mingw/bin/../lib/gcc/mingw32/6.3.0\libstdc++.a(new_opv.o)
 .eh_frame      0x0044bc64      0x198 c:/mingw/bin/../lib/gcc/mingw32/6.3.0\libstdc++.a(vmi_class_type_info.o)
 .eh_frame      0x0044bdfc       0x2c c:/mingw/bin/../lib/gcc/mingw32/6.3.0\libstdc++.a(del_opv.o)
 .eh_frame      0x0044be28       0x2c c:/mingw/bin/../lib/gcc/mingw32/6.3.0\libstdc++.a(del_ops.o)
 .eh_frame      0x0044be54       0x80 c:/mingw/bin/../lib/gcc/mingw32/6.3.0\libstdc++.a(eh_throw.o)
 .eh_frame      0x0044bed4      0x144 c:/mingw/bin/../lib/gcc/mingw32/6.3.0\libstdc++.a(class_type_info.o)
 .eh_frame      0x0044c018       0xdc c:/mingw/bin/../lib/gcc/mingw32/6.3.0\libstdc++.a(eh_terminate.o)
 .eh_frame      0x0044c0f4       0x34 c:/mingw/bin/../lib/gcc/mingw32/6.3.0\libstdc++.a(eh_call.o)
 .eh_frame$_ZNK9__gnu_cxx24__concurrence_lock_error4whatEv
                0x0044c128       0x2c c:/mingw/bin/../lib/gcc/mingw32/6.3.0\libstdc++.a(eh_alloc.o)
 .eh_frame$_ZNK9__gnu_cxx26__concurrence_unlock_error4whatEv
                0x0044c154       0x2c c:/mingw/bin/../lib/gcc/mingw32/6.3.0\libstdc++.a(eh_alloc.o)
 .eh_frame$_ZN9__gnu_cxx24__concurrence_lock_errorD1Ev
                0x0044c180       0x2c c:/mingw/bin/../lib/gcc/mingw32/6.3.0\libstdc++.a(eh_alloc.o)
 .eh_frame$_ZN9__gnu_cxx26__concurrence_unlock_errorD1Ev
                0x0044c1ac       0x2c c:/mingw/bin/../lib/gcc/mingw32/6.3.0\libstdc++.a(eh_alloc.o)
 .eh_frame$_ZN9__gnu_cxx24__concurrence_lock_errorD0Ev
                0x0044c1d8       0x38 c:/mingw/bin/../lib/gcc/mingw32/6.3.0\libstdc++.a(eh_alloc.o)
 .eh_frame$_ZN9__gnu_cxx26__concurrence_unlock_errorD0Ev
                0x0044c210       0x38 c:/mingw/bin/../lib/gcc/mingw32/6.3.0\libstdc++.a(eh_alloc.o)
 .eh_frame      0x0044c248      0x180 c:/mingw/bin/../lib/gcc/mingw32/6.3.0\libstdc++.a(eh_alloc.o)
 .eh_frame$_ZN9__gnu_cxx30__throw_concurrence_lock_errorEv
                0x0044c3c8       0x2c c:/mingw/bin/../lib/gcc/mingw32/6.3.0\libstdc++.a(eh_alloc.o)
 .eh_frame      0x0044c3f4       0x54 c:/mingw/bin/../lib/gcc/mingw32/6.3.0\libstdc++.a(eh_aux_runtime.o)
 .eh_frame      0x0044c448       0xec c:/mingw/bin/../lib/gcc/mingw32/6.3.0\libstdc++.a(eh_globals.o)
 .eh_frame      0x0044c534       0x4c c:/mingw/bin/../lib/gcc/mingw32/6.3.0\libstdc++.a(vterminate.o)
 .eh_frame      0x0044c580       0x60 c:/mingw/bin/../lib/gcc/mingw32/6.3.0\libstdc++.a(bad_cast.o)
 .eh_frame      0x0044c5e0      0x170 c:/mingw/bin/../lib/gcc/mingw32/6.3.0\libstdc++.a(si_class_type_info.o)
 .eh_frame      0x0044c750       0xb0 c:/mingw/bin/../lib/gcc/mingw32/6.3.0\libstdc++.a(tinfo.o)
 .eh_frame      0x0044c800       0x2c c:/mingw/bin/../lib/gcc/mingw32/6.3.0\libstdc++.a(del_opvs.o)
 .eh_frame      0x0044c82c       0xcc c:/mingw/bin/../lib/gcc/mingw32/6.3.0\libstdc++.a(eh_catch.o)
 .eh_frame      0x0044c8f8       0x3c c:/mingw/bin/../lib/gcc/mingw32/6.3.0\libstdc++.a(new_op.o)
 .eh_frame      0x0044c934       0x2c c:/mingw/bin/../lib/gcc/mingw32/6.3.0\libstdc++.a(del_op.o)
 .eh_frame      0x0044c960       0x40 c:/mingw/bin/../lib/gcc/mingw32/6.3.0\libstdc++.a(pure.o)
 .eh_frame      0x0044c9a0      0x118 c:/mingw/bin/../lib/gcc/mingw32/6.3.0\libstdc++.a(eh_exception.o)
 .eh_frame      0x0044cab8       0x60 c:/mingw/bin/../lib/gcc/mingw32/6.3.0\libstdc++.a(bad_typeid.o)
 .eh_frame      0x0044cb18       0x60 c:/mingw/bin/../lib/gcc/mingw32/6.3.0\libstdc++.a(bad_array_new.o)
 .eh_frame      0x0044cb78       0x60 c:/mingw/bin/../lib/gcc/mingw32/6.3.0\libstdc++.a(bad_alloc.o)
 .eh_frame      0x0044cbd8      0xb98 c:/mingw/bin/../lib/gcc/mingw32/6.3.0\libstdc++.a(cp-demangle.o)
 .eh_frame      0x0044d770       0x34 c:/mingw/bin/../lib/gcc/mingw32/6.3.0\libstdc++.a(eh_type.o)
 .eh_frame      0x0044d7a4       0x40 c:/mingw/bin/../lib/gcc/mingw32/6.3.0\libstdc++.a(new_handler.o)
 .eh_frame      0x0044d7e4       0x58 c:/mingw/bin/../lib/gcc/mingw32/6.3.0/../../..\libmingw32.a(setargv.o)
 .eh_frame      0x0044d83c       0x40 c:/mingw/bin/../lib/gcc/mingw32/6.3.0/../../..\libmingw32.a(cpu_features.o)
 .eh_frame      0x0044d87c       0x68 c:/mingw/bin/../lib/gcc/mingw32/6.3.0/../../..\libmingw32.a(gccmain.o)
 .eh_frame      0x0044d8e4       0x88 c:/mingw/bin/../lib/gcc/mingw32/6.3.0/../../..\libmingw32.a(tlssup.o)
 .eh_frame      0x0044d96c      0x108 c:/mingw/bin/../lib/gcc/mingw32/6.3.0/../../..\libmingw32.a(tlsthrd.o)
 .eh_frame      0x0044da74       0xd8 c:/mingw/bin/../lib/gcc/mingw32/6.3.0/../../..\libmingw32.a(pseudo-reloc.o)
 .eh_frame      0x0044db4c       0x58 c:/mingw/bin/../lib/gcc/mingw32/6.3.0\libgcc.a(_divdi3.o)
 .eh_frame      0x0044dba4      0x2e8 c:/mingw/bin/../lib/gcc/mingw32/6.3.0\libgcc.a(gthr-win32.o)
 .eh_frame      0x0044de8c      0x5d8 c:/mingw/bin/../lib/gcc/mingw32/6.3.0\libgcc_eh.a(unwind-dw2.o)
 .eh_frame      0x0044e464      0x5c0 c:/mingw/bin/../lib/gcc/mingw32/6.3.0\libgcc_eh.a(unwind-dw2-fde.o)
 .eh_frame      0x0044ea24       0x34 c:/mingw/bin/../lib/gcc/mingw32/6.3.0/../../..\libmingwex.a(fesetenv.o)
 .eh_frame      0x0044ea58       0x30 c:/mingw/bin/../lib/gcc/mingw32/6.3.0/../../..\libmingwex.a(feholdexcept.o)
 .eh_frame      0x0044ea88      0x25c c:/mingw/bin/../lib/gcc/mingw32/6.3.0/../../..\libmingwex.a(glob.o)
 .eh_frame      0x0044ece4       0x58 c:/mingw/bin/../lib/gcc/mingw32/6.3.0/../../..\libmingwex.a(dirname.o)
 .eh_frame      0x0044ed3c      0x1c4 c:/mingw/bin/../lib/gcc/mingw32/6.3.0/../../..\libmingwex.a(dirent.o)
 .eh_frame      0x0044ef00       0x40 c:/mingw/bin/../lib/gcc/mingw32/6.3.0/../../..\libmingw32.a(tlsmthread.o)
 .eh_frame      0x0044ef40       0x3c c:/mingw/bin/../lib/gcc/mingw32/6.3.0/crtend.o

.pdata
 *(.pdata*)

.bss            0x0044f000     0x5a4c
                0x0044f000                __bss_start__ = .
 *(.bss)
 .bss           0x0044f000        0x8 c:/mingw/bin/../lib/gcc/mingw32/6.3.0/../../../crt2.o
                0x0044f000                _argv
                0x0044f004                _argc
 .bss           0x0044f008       0x18 c:/mingw/bin/../lib/gcc/mingw32/6.3.0/crtbegin.o
 .bss           0x0044f020        0x4 CMakeFiles\Basic_workflow.dir/objects.a(unity_4_c.c.obj)
 .bss           0x0044f024        0x0 CMakeFiles\Basic_workflow.dir/objects.a(unity_3_c.c.obj)
 .bss           0x0044f024        0x0 CMakeFiles\Basic_workflow.dir/objects.a(unity_2_c.c.obj)
 .bss           0x0044f024        0x0 CMakeFiles\Basic_workflow.dir/objects.a(unity_1_c.c.obj)
 *fill*         0x0044f024       0x1c 
 .bss           0x0044f040      0x160 CMakeFiles\Basic_workflow.dir/objects.a(unity_0_c.c.obj)
                0x0044f040                BswM_Prv_isModuleInitialised_b
                0x0044f041                BswM_Prv_IntrptQueueInfo_st
                0x0044f044                BswM_Cfg_ComMIndicationModeInfo_ast
                0x0044f048                BswM_Cfg_GenericReqModeInfo_ast
                0x0044f054                BswM_isMultipleActionListTriggered_ab
                0x0044f060                BswM_Prv_DeferredRuleEvaluation_b
 .bss           0x0044f1a0        0x4 CMakeFiles\Basic_workflow.dir/objects.a(MySWC.c.obj)
 .bss           0x0044f1a4        0xc CMakeFiles\Basic_workflow.dir/objects.a(Det.c.obj)
                0x0044f1a4                Det_Initialized_b
                0x0044f1a8                Det_ActiveConfigPtr
 .bss           0x0044f1b0        0x0 CMakeFiles\Basic_workflow.dir/objects.a(EcuM_Cfg.c.obj)
 .bss           0x0044f1b0        0x0 CMakeFiles\Basic_workflow.dir/objects.a(EcuM_Cfg_PbExt.c.obj)
 .bss           0x0044f1b0        0x0 CMakeFiles\Basic_workflow.dir/objects.a(EcuM_Cfg_RbMo.c.obj)
 .bss           0x0044f1b0        0x0 CMakeFiles\Basic_workflow.dir/objects.a(EcuM_Cfg_Shutdown.c.obj)
 .bss           0x0044f1b0        0x0 CMakeFiles\Basic_workflow.dir/objects.a(EcuM_Cfg_Sleep.c.obj)
 .bss           0x0044f1b0        0x0 CMakeFiles\Basic_workflow.dir/objects.a(EcuM_Cfg_Startup.c.obj)
 .bss           0x0044f1b0        0x0 CMakeFiles\Basic_workflow.dir/objects.a(EcuM_Cfg_SynchPoint.c.obj)
 .bss           0x0044f1b0        0x0 CMakeFiles\Basic_workflow.dir/objects.a(EcuM_Lcfg.c.obj)
 .bss           0x0044f1b0        0x0 CMakeFiles\Basic_workflow.dir/objects.a(EcuM_PBcfg.c.obj)
 .bss           0x0044f1b0        0x4 CMakeFiles\Basic_workflow.dir/objects.a(EcuM_Callout_Stubs.c.obj)
 .bss           0x0044f1b4        0x0 CMakeFiles\Basic_workflow.dir/objects.a(EcuM_BootTarget.c.obj)
 .bss           0x0044f1b4        0x0 CMakeFiles\Basic_workflow.dir/objects.a(EcuM_CurrentState.c.obj)
 .bss           0x0044f1b4        0x0 CMakeFiles\Basic_workflow.dir/objects.a(EcuM_KillAllRequests.c.obj)
 .bss           0x0044f1b4        0x0 CMakeFiles\Basic_workflow.dir/objects.a(EcuM_MainFunction.c.obj)
 .bss           0x0044f1b4        0x0 CMakeFiles\Basic_workflow.dir/objects.a(EcuM_Misc.c.obj)
 .bss           0x0044f1b4        0x4 CMakeFiles\Basic_workflow.dir/objects.a(EcuM_Prv.c.obj)
                0x0044f1b4                EcuM_Prv_dataSelectedShutdownCause_u8
 .bss           0x0044f1b8        0x0 CMakeFiles\Basic_workflow.dir/objects.a(EcuM_Prv_RteActions.c.obj)
 .bss           0x0044f1b8        0x0 CMakeFiles\Basic_workflow.dir/objects.a(EcuM_ReleasePOST_RUN.c.obj)
 .bss           0x0044f1b8        0x0 CMakeFiles\Basic_workflow.dir/objects.a(EcuM_ReleaseRUN.c.obj)
 .bss           0x0044f1b8        0x0 CMakeFiles\Basic_workflow.dir/objects.a(EcuM_RequestPOST_RUN.c.obj)
 .bss           0x0044f1b8        0x0 CMakeFiles\Basic_workflow.dir/objects.a(EcuM_RequestRUN.c.obj)
 .bss           0x0044f1b8        0x0 CMakeFiles\Basic_workflow.dir/objects.a(EcuM_SetState.c.obj)
 .bss           0x0044f1b8        0x0 CMakeFiles\Basic_workflow.dir/objects.a(EcuM_Shutdown.c.obj)
 .bss           0x0044f1b8        0x0 CMakeFiles\Basic_workflow.dir/objects.a(EcuM_ShutdownServices.c.obj)
 .bss           0x0044f1b8        0x0 CMakeFiles\Basic_workflow.dir/objects.a(EcuM_Sleep.c.obj)
 .bss           0x0044f1b8        0x0 CMakeFiles\Basic_workflow.dir/objects.a(EcuM_Startup.c.obj)
 .bss           0x0044f1b8        0x0 CMakeFiles\Basic_workflow.dir/objects.a(EcuM_WakeupServices.c.obj)
 .bss           0x0044f1b8        0x4 CMakeFiles\Basic_workflow.dir/objects.a(Rte.c.obj)
                0x0044f1b8                Rte_RECount_OsTask_BSW_divby10_0
 .bss           0x0044f1bc        0x4 CMakeFiles\Basic_workflow.dir/objects.a(Rte_Lib.c.obj)
                0x0044f1bc                Rte_ResourceCount
                0x0044f1be                Rte_Initialized
                0x0044f1bf                SchM_Initialized
 .bss           0x0044f1c0       0x60 CMakeFiles\Basic_workflow.dir/objects.a(Can_Device.cpp.obj)
 .bss           0x0044f220        0x0 CMakeFiles\Basic_workflow.dir/objects.a(Can_HwProvider.cpp.obj)
 .bss           0x0044f220       0x1c CMakeFiles\Basic_workflow.dir/objects.a(Can_Implementation.cpp.obj)
 *fill*         0x0044f23c        0x4 
 .bss           0x0044f240       0x60 CMakeFiles\Basic_workflow.dir/objects.a(Mcu_Device.cpp.obj)
 .bss           0x0044f2a0        0x8 CMakeFiles\Basic_workflow.dir/objects.a(Mcu_Implementation.cpp.obj)
 .bss           0x0044f2a8       0x14 CMakeFiles\Basic_workflow.dir/objects.a(VirtualCan.cpp.obj)
 *fill*         0x0044f2bc        0x4 
 .bss           0x0044f2c0      0x160 CMakeFiles\Basic_workflow.dir/objects.a(VRTA_SystemClock.cpp.obj)
 .bss           0x0044f420       0x1c CMakeFiles\Basic_workflow.dir/objects.a(Vrta_Cfg.cpp.obj)
 .bss           0x0044f43c        0x0 CMakeFiles\Basic_workflow.dir/objects.a(target.cpp.obj)
 .bss           0x0044f43c        0x0 C:/ETAS/RTA-CAR_12.2.0/RTA-CAR/workspace/Basic_Workflow/build/../src/os\RTAOS.lib(TerminateTask.o)
 .bss           0x0044f43c        0x0 C:/ETAS/RTA-CAR_12.2.0/RTA-CAR/workspace/Basic_Workflow/build/../src/os\RTAOS.lib(Os_SetJmp.o)
 .bss           0x0044f43c        0x0 C:/ETAS/RTA-CAR_12.2.0/RTA-CAR/workspace/Basic_Workflow/build/../src/os\RTAOS.lib(GetTaskID.o)
 .bss           0x0044f43c        0x0 C:/ETAS/RTA-CAR_12.2.0/RTA-CAR/workspace/Basic_Workflow/build/../src/os\RTAOS.lib(SuspendOSInterrupts.o)
 .bss           0x0044f43c        0x0 C:/ETAS/RTA-CAR_12.2.0/RTA-CAR/workspace/Basic_Workflow/build/../src/os\RTAOS.lib(Os_Cfg_Counters.o)
 .bss           0x0044f43c        0x0 C:/ETAS/RTA-CAR_12.2.0/RTA-CAR/workspace/Basic_Workflow/build/../src/os\RTAOS.lib(SuspendAllInterrupts.o)
 .bss           0x0044f43c        0x0 C:/ETAS/RTA-CAR_12.2.0/RTA-CAR/workspace/Basic_Workflow/build/../src/os\RTAOS.lib(Os_Cfg.o)
 .bss           0x0044f43c        0x0 C:/ETAS/RTA-CAR_12.2.0/RTA-CAR/workspace/Basic_Workflow/build/../src/os\RTAOS.lib(StopScheduleTable.o)
 .bss           0x0044f43c        0x0 C:/ETAS/RTA-CAR_12.2.0/RTA-CAR/workspace/Basic_Workflow/build/../src/os\RTAOS.lib(ResumeOSInterrupts.o)
 .bss           0x0044f43c       0x40 C:/ETAS/RTA-CAR_12.2.0/RTA-CAR/workspace/Basic_Workflow/build/../src/os\RTAOS.lib(vrtaSystemClock.o)
                0x0044f43c                vrtaSystemClock
 .bss           0x0044f47c        0x0 C:/ETAS/RTA-CAR_12.2.0/RTA-CAR/workspace/Basic_Workflow/build/../src/os\RTAOS.lib(StartScheduleTableRel.o)
 .bss           0x0044f47c        0x0 C:/ETAS/RTA-CAR_12.2.0/RTA-CAR/workspace/Basic_Workflow/build/../src/os\RTAOS.lib(ResumeAllInterrupts.o)
 .bss           0x0044f47c        0x0 C:/ETAS/RTA-CAR_12.2.0/RTA-CAR/workspace/Basic_Workflow/build/../src/os\RTAOS.lib(GetResource.o)
 .bss           0x0044f47c        0x0 C:/ETAS/RTA-CAR_12.2.0/RTA-CAR/workspace/Basic_Workflow/build/../src/os\RTAOS.lib(vrtaSampleDevices.o)
 .bss           0x0044f47c        0x0 C:/ETAS/RTA-CAR_12.2.0/RTA-CAR/workspace/Basic_Workflow/build/../src/os\RTAOS.lib(StartOS.o)
 .bss           0x0044f47c        0x0 C:/ETAS/RTA-CAR_12.2.0/RTA-CAR/workspace/Basic_Workflow/build/../src/os\RTAOS.lib(ShutdownOS.o)
 *fill*         0x0044f47c        0x4 
 .bss           0x0044f480     0x5080 C:/ETAS/RTA-CAR_12.2.0/RTA-CAR/workspace/Basic_Workflow/build/../src/os\RTAOS.lib(vrtaPrintf.o)
                0x0044f480                SysLogger
 .bss           0x00454500        0x0 C:/ETAS/RTA-CAR_12.2.0/RTA-CAR/workspace/Basic_Workflow/build/../src/os\RTAOS.lib(ActivateTask.o)
 .bss           0x00454500        0x0 C:/ETAS/RTA-CAR_12.2.0/RTA-CAR/workspace/Basic_Workflow/build/../src/os\RTAOS.lib(ReleaseResource.o)
 .bss           0x00454500        0x0 C:/ETAS/RTA-CAR_12.2.0/RTA-CAR/workspace/Basic_Workflow/build/../src/os\RTAOS.lib(GetISRID.o)
 .bss           0x00454500        0x0 C:/ETAS/RTA-CAR_12.2.0/RTA-CAR/workspace/Basic_Workflow/build/../src/os\RTAOS.lib(vrtaLoggerDevice.o)
 .bss           0x00454500        0x4 C:/ETAS/RTA-CAR_12.2.0/RTA-CAR/workspace/Basic_Workflow/build/../src/os\RTAOS.lib(vrtaIdleHandling.o)
 .bss           0x00454504        0x0 C:/ETAS/RTA-CAR_12.2.0/RTA-CAR/workspace/Basic_Workflow/build/../src/os\RTAOS.lib(DispatchTask.o)
 *fill*         0x00454504        0x4 
 .bss           0x00454508       0xb0 C:/ETAS/RTA-CAR_12.2.0/RTA-CAR/workspace/Basic_Workflow/build/../src/os\RTAOS.lib(vrtaCore.o)
                0x00454508                vrtaNeedsForcedTerminate
 .bss           0x004545b8        0x0 C:/ETAS/RTA-CAR_12.2.0/RTA-CAR/workspace/Basic_Workflow/build/../src/os\RTAOS.lib(vrtaAppMain.o)
 .bss           0x004545b8        0x0 C:/ETAS/RTA-CAR_12.2.0/RTA-CAR/workspace/Basic_Workflow/build/../src/os\RTAOS.lib(virtualDevice.o)
 .bss           0x004545b8        0x0 C:/ETAS/RTA-CAR_12.2.0/RTA-CAR/workspace/Basic_Workflow/build/../src/os\RTAOS.lib(Os_vectors.o)
 .bss           0x004545b8        0x4 C:/ETAS/RTA-CAR_12.2.0/RTA-CAR/workspace/Basic_Workflow/build/../src/os\RTAOS.lib(Os_Stack.o)
 .bss           0x004545bc        0x0 C:/ETAS/RTA-CAR_12.2.0/RTA-CAR/workspace/Basic_Workflow/build/../src/os\RTAOS.lib(Os_Cfg_KL.o)
 .bss           0x004545bc        0x0 C:/ETAS/RTA-CAR_12.2.0/RTA-CAR/workspace/Basic_Workflow/build/../src/os\RTAOS.lib(Os_fsb.o)
 .bss           0x004545bc        0x0 C:/ETAS/RTA-CAR_12.2.0/RTA-CAR/workspace/Basic_Workflow/build/../src/os\RTAOS.lib(GetStackValue.o)
 *fill*         0x004545bc        0x4 
 .bss           0x004545c0      0x160 C:/ETAS/RTA-CAR_12.2.0/RTA-CAR/workspace/Basic_Workflow/build/../src/os\RTAOS.lib(vrtaSystemClockDevice.o)
                0x004545c0                SystemClock
 .bss           0x00454720        0x0 C:/ETAS/RTA-CAR_12.2.0/RTA-CAR/workspace/Basic_Workflow/build/../src/os\RTAOS.lib(InShutdown.o)
 .bss           0x00454720       0x40 C:/ETAS/RTA-CAR_12.2.0/RTA-CAR/workspace/Basic_Workflow/build/../src/os\RTAOS.lib(vrtaOSMonitorDevice.o)
 .bss           0x00454760        0x0 C:/ETAS/RTA-CAR_12.2.0/RTA-CAR/workspace/Basic_Workflow/build/../src/os\RTAOS.lib(Os_wrapper.o)
 .bss           0x00454760        0x0 c:/mingw/bin/../lib/gcc/mingw32/6.3.0/../../..\libwinmm.a(drqcs00150.o)
 .bss           0x00454760        0x0 c:/mingw/bin/../lib/gcc/mingw32/6.3.0/../../..\libwinmm.a(drqcs00149.o)
 .bss           0x00454760        0x0 c:/mingw/bin/../lib/gcc/mingw32/6.3.0/../../..\libwinmm.a(drqcs00144.o)
 .bss           0x00454760        0x0 c:/mingw/bin/../lib/gcc/mingw32/6.3.0/../../..\libwinmm.a(drqch.o)
 .bss           0x00454760        0x0 c:/mingw/bin/../lib/gcc/mingw32/6.3.0/../../..\libwinmm.a(drqct.o)
 .bss           0x00454760        0x0 c:/mingw/bin/../lib/gcc/mingw32/6.3.0\libstdc++.a(eh_personality.o)
 .bss           0x00454760        0x0 c:/mingw/bin/../lib/gcc/mingw32/6.3.0\libstdc++.a(new_opv.o)
 .bss           0x00454760        0x0 c:/mingw/bin/../lib/gcc/mingw32/6.3.0\libstdc++.a(vmi_class_type_info.o)
 .bss           0x00454760        0x0 c:/mingw/bin/../lib/gcc/mingw32/6.3.0\libstdc++.a(del_opv.o)
 .bss           0x00454760        0x0 c:/mingw/bin/../lib/gcc/mingw32/6.3.0\libstdc++.a(del_ops.o)
 .bss           0x00454760        0x0 c:/mingw/bin/../lib/gcc/mingw32/6.3.0\libstdc++.a(eh_throw.o)
 .bss           0x00454760        0x0 c:/mingw/bin/../lib/gcc/mingw32/6.3.0\libstdc++.a(class_type_info.o)
 .bss           0x00454760        0x0 c:/mingw/bin/../lib/gcc/mingw32/6.3.0\libstdc++.a(eh_terminate.o)
 .bss           0x00454760        0x0 c:/mingw/bin/../lib/gcc/mingw32/6.3.0\libstdc++.a(eh_call.o)
 .bss           0x00454760        0x0 c:/mingw/bin/../lib/gcc/mingw32/6.3.0\libstdc++.a(eh_alloc.o)
 .bss           0x00454760        0x0 c:/mingw/bin/../lib/gcc/mingw32/6.3.0\libstdc++.a(eh_term_handler.o)
 .bss           0x00454760        0x0 c:/mingw/bin/../lib/gcc/mingw32/6.3.0\libstdc++.a(eh_aux_runtime.o)
 .bss           0x00454760        0x0 c:/mingw/bin/../lib/gcc/mingw32/6.3.0\libstdc++.a(eh_globals.o)
 .bss           0x00454760        0x0 c:/mingw/bin/../lib/gcc/mingw32/6.3.0\libstdc++.a(vterminate.o)
 .bss           0x00454760        0x0 c:/mingw/bin/../lib/gcc/mingw32/6.3.0\libstdc++.a(bad_cast.o)
 .bss           0x00454760        0x0 c:/mingw/bin/../lib/gcc/mingw32/6.3.0\libstdc++.a(si_class_type_info.o)
 .bss           0x00454760        0x0 c:/mingw/bin/../lib/gcc/mingw32/6.3.0\libstdc++.a(tinfo.o)
 .bss           0x00454760        0x0 c:/mingw/bin/../lib/gcc/mingw32/6.3.0\libstdc++.a(del_opvs.o)
 .bss           0x00454760        0x0 c:/mingw/bin/../lib/gcc/mingw32/6.3.0\libstdc++.a(eh_catch.o)
 .bss           0x00454760        0x0 c:/mingw/bin/../lib/gcc/mingw32/6.3.0\libstdc++.a(new_op.o)
 .bss           0x00454760        0x0 c:/mingw/bin/../lib/gcc/mingw32/6.3.0\libstdc++.a(del_op.o)
 .bss           0x00454760        0x0 c:/mingw/bin/../lib/gcc/mingw32/6.3.0\libstdc++.a(pure.o)
 .bss           0x00454760        0x0 c:/mingw/bin/../lib/gcc/mingw32/6.3.0\libstdc++.a(eh_exception.o)
 .bss           0x00454760        0x0 c:/mingw/bin/../lib/gcc/mingw32/6.3.0\libstdc++.a(bad_typeid.o)
 .bss           0x00454760        0x0 c:/mingw/bin/../lib/gcc/mingw32/6.3.0\libstdc++.a(eh_unex_handler.o)
 .bss           0x00454760        0x0 c:/mingw/bin/../lib/gcc/mingw32/6.3.0\libstdc++.a(bad_array_new.o)
 .bss           0x00454760        0x0 c:/mingw/bin/../lib/gcc/mingw32/6.3.0\libstdc++.a(bad_alloc.o)
 .bss           0x00454760        0x0 c:/mingw/bin/../lib/gcc/mingw32/6.3.0\libstdc++.a(cp-demangle.o)
 .bss           0x00454760        0x0 c:/mingw/bin/../lib/gcc/mingw32/6.3.0\libstdc++.a(eh_type.o)
 .bss           0x00454760        0x0 c:/mingw/bin/../lib/gcc/mingw32/6.3.0\libstdc++.a(new_handler.o)
 .bss           0x00454760        0x0 c:/mingw/bin/../lib/gcc/mingw32/6.3.0/../../..\libkernel32.a(dujcs01223.o)
 .bss           0x00454760        0x0 c:/mingw/bin/../lib/gcc/mingw32/6.3.0/../../..\libkernel32.a(dujcs01166.o)
 .bss           0x00454760        0x0 c:/mingw/bin/../lib/gcc/mingw32/6.3.0/../../..\libkernel32.a(dujcs01162.o)
 .bss           0x00454760        0x0 c:/mingw/bin/../lib/gcc/mingw32/6.3.0/../../..\libkernel32.a(dujcs01152.o)
 .bss           0x00454760        0x0 c:/mingw/bin/../lib/gcc/mingw32/6.3.0/../../..\libkernel32.a(dujcs01140.o)
 .bss           0x00454760        0x0 c:/mingw/bin/../lib/gcc/mingw32/6.3.0/../../..\libkernel32.a(dujcs01065.o)
 .bss           0x00454760        0x0 c:/mingw/bin/../lib/gcc/mingw32/6.3.0/../../..\libkernel32.a(dujcs00978.o)
 .bss           0x00454760        0x0 c:/mingw/bin/../lib/gcc/mingw32/6.3.0/../../..\libkernel32.a(dujcs00974.o)
 .bss           0x00454760        0x0 c:/mingw/bin/../lib/gcc/mingw32/6.3.0/../../..\libkernel32.a(dujcs00923.o)
 .bss           0x00454760        0x0 c:/mingw/bin/../lib/gcc/mingw32/6.3.0/../../..\libkernel32.a(dujcs00922.o)
 .bss           0x00454760        0x0 c:/mingw/bin/../lib/gcc/mingw32/6.3.0/../../..\libkernel32.a(dujcs00844.o)
 .bss           0x00454760        0x0 c:/mingw/bin/../lib/gcc/mingw32/6.3.0/../../..\libkernel32.a(dujcs00817.o)
 .bss           0x00454760        0x0 c:/mingw/bin/../lib/gcc/mingw32/6.3.0/../../..\libkernel32.a(dujcs00577.o)
 .bss           0x00454760        0x0 c:/mingw/bin/../lib/gcc/mingw32/6.3.0/../../..\libkernel32.a(dujcs00529.o)
 .bss           0x00454760        0x0 c:/mingw/bin/../lib/gcc/mingw32/6.3.0/../../..\libkernel32.a(dujcs00510.o)
 .bss           0x00454760        0x0 c:/mingw/bin/../lib/gcc/mingw32/6.3.0/../../..\libkernel32.a(dujcs00473.o)
 .bss           0x00454760        0x0 c:/mingw/bin/../lib/gcc/mingw32/6.3.0/../../..\libkernel32.a(dujcs00446.o)
 .bss           0x00454760        0x0 c:/mingw/bin/../lib/gcc/mingw32/6.3.0/../../..\libkernel32.a(dujcs00352.o)
 .bss           0x00454760        0x0 c:/mingw/bin/../lib/gcc/mingw32/6.3.0/../../..\libkernel32.a(dujcs00347.o)
 .bss           0x00454760        0x0 c:/mingw/bin/../lib/gcc/mingw32/6.3.0/../../..\libkernel32.a(dujcs00280.o)
 .bss           0x00454760        0x0 c:/mingw/bin/../lib/gcc/mingw32/6.3.0/../../..\libkernel32.a(dujcs00279.o)
 .bss           0x00454760        0x0 c:/mingw/bin/../lib/gcc/mingw32/6.3.0/../../..\libkernel32.a(dujcs00169.o)
 .bss           0x00454760        0x0 c:/mingw/bin/../lib/gcc/mingw32/6.3.0/../../..\libkernel32.a(dujcs00154.o)
 .bss           0x00454760        0x0 c:/mingw/bin/../lib/gcc/mingw32/6.3.0/../../..\libkernel32.a(dujcs00136.o)
 .bss           0x00454760        0x0 c:/mingw/bin/../lib/gcc/mingw32/6.3.0/../../..\libkernel32.a(dujcs00129.o)
 .bss           0x00454760        0x0 c:/mingw/bin/../lib/gcc/mingw32/6.3.0/../../..\libkernel32.a(dujch.o)
 .bss           0x00454760        0x0 c:/mingw/bin/../lib/gcc/mingw32/6.3.0/../../..\libkernel32.a(dujct.o)
 .bss           0x00454760        0x0 c:/mingw/bin/../lib/gcc/mingw32/6.3.0/../../..\libuser32.a(dtpcs00434.o)
 .bss           0x00454760        0x0 c:/mingw/bin/../lib/gcc/mingw32/6.3.0/../../..\libuser32.a(dtpch.o)
 .bss           0x00454760        0x0 c:/mingw/bin/../lib/gcc/mingw32/6.3.0/../../..\libuser32.a(dtpct.o)
 .bss           0x00454760        0x0 c:/mingw/bin/../lib/gcc/mingw32/6.3.0/../../..\libmingw32.a(CRTglob.o)
 .bss           0x00454760        0x0 c:/mingw/bin/../lib/gcc/mingw32/6.3.0/../../..\libmingw32.a(setargv.o)
 .bss           0x00454760        0x4 c:/mingw/bin/../lib/gcc/mingw32/6.3.0/../../..\libmingw32.a(CRTfmode.o)
                0x00454760                _CRT_fmode
 .bss           0x00454764        0x4 c:/mingw/bin/../lib/gcc/mingw32/6.3.0/../../..\libmingw32.a(cpu_features.o)
                0x00454764                __cpu_features
 .bss           0x00454768        0x0 c:/mingw/bin/../lib/gcc/mingw32/6.3.0/../../..\libmingw32.a(CRT_fp10.o)
 .bss           0x00454768        0x0 c:/mingw/bin/../lib/gcc/mingw32/6.3.0/../../..\libmingw32.a(txtmode.o)
 .bss           0x00454768        0x4 c:/mingw/bin/../lib/gcc/mingw32/6.3.0/../../..\libmingw32.a(gccmain.o)
 .bss           0x0045476c        0x4 c:/mingw/bin/../lib/gcc/mingw32/6.3.0/../../..\libmingw32.a(crtst.o)
                0x0045476c                _CRT_MT
 .bss           0x00454770       0x10 c:/mingw/bin/../lib/gcc/mingw32/6.3.0/../../..\libmingw32.a(tlssup.o)
                0x00454770                mingw_initltssuo_force
                0x00454774                mingw_initltsdyn_force
                0x00454778                mingw_initltsdrot_force
                0x0045477c                _tls_index
 .bss           0x00454780       0x20 c:/mingw/bin/../lib/gcc/mingw32/6.3.0/../../..\libmingw32.a(tlsthrd.o)
 .bss           0x004547a0        0x4 c:/mingw/bin/../lib/gcc/mingw32/6.3.0/../../..\libmingw32.a(pseudo-reloc.o)
 .bss           0x004547a4        0x4 c:/mingw/bin/../lib/gcc/mingw32/6.3.0/../../..\libmingw32.a(pseudo-reloc-list.o)
 .bss           0x004547a8        0x0 c:/mingw/bin/../lib/gcc/mingw32/6.3.0\libgcc.a(_chkstk_ms.o)
 .bss           0x004547a8        0x0 c:/mingw/bin/../lib/gcc/mingw32/6.3.0\libgcc.a(_ctors.o)
 .bss           0x004547a8        0x0 c:/mingw/bin/../lib/gcc/mingw32/6.3.0\libgcc.a(_divdi3.o)
 .bss           0x004547a8        0x0 c:/mingw/bin/../lib/gcc/mingw32/6.3.0\libgcc.a(gthr-win32.o)
 .bss           0x004547a8       0x14 c:/mingw/bin/../lib/gcc/mingw32/6.3.0\libgcc_eh.a(unwind-dw2.o)
 .bss           0x004547bc       0x1c c:/mingw/bin/../lib/gcc/mingw32/6.3.0\libgcc_eh.a(unwind-dw2-fde.o)
 .bss           0x004547d8        0x0 c:/mingw/bin/../lib/gcc/mingw32/6.3.0/../../..\libmoldname.a(dagwbs00109.o)
 .bss           0x004547d8        0x0 c:/mingw/bin/../lib/gcc/mingw32/6.3.0/../../..\libmoldname.a(dagwbh.o)
 .bss           0x004547d8        0x0 c:/mingw/bin/../lib/gcc/mingw32/6.3.0/../../..\libmoldname.a(dagwbt.o)
 .bss           0x004547d8        0x0 c:/mingw/bin/../lib/gcc/mingw32/6.3.0/../../..\libmingwex.a(fesetenv.o)
 .bss           0x004547d8        0x0 c:/mingw/bin/../lib/gcc/mingw32/6.3.0/../../..\libmingwex.a(feholdexcept.o)
 .bss           0x004547d8        0x0 c:/mingw/bin/../lib/gcc/mingw32/6.3.0/../../..\libmingwex.a(glob.o)
 .bss           0x004547d8        0x4 c:/mingw/bin/../lib/gcc/mingw32/6.3.0/../../..\libmingwex.a(dirname.o)
 .bss           0x004547dc        0x0 c:/mingw/bin/../lib/gcc/mingw32/6.3.0/../../..\libmingwex.a(dirent.o)
 .bss           0x004547dc        0x0 c:/mingw/bin/../lib/gcc/mingw32/6.3.0/../../..\libmsvcrt.a(djpvbs01325.o)
 .bss           0x004547dc        0x0 c:/mingw/bin/../lib/gcc/mingw32/6.3.0/../../..\libmsvcrt.a(djpvbs01291.o)
 .bss           0x004547dc        0x0 c:/mingw/bin/../lib/gcc/mingw32/6.3.0/../../..\libmsvcrt.a(djpvbs01284.o)
 .bss           0x004547dc        0x0 c:/mingw/bin/../lib/gcc/mingw32/6.3.0/../../..\libmsvcrt.a(djpvbs01277.o)
 .bss           0x004547dc        0x0 c:/mingw/bin/../lib/gcc/mingw32/6.3.0/../../..\libmsvcrt.a(djpvbs01253.o)
 .bss           0x004547dc        0x0 c:/mingw/bin/../lib/gcc/mingw32/6.3.0/../../..\libmsvcrt.a(djpvbs01249.o)
 .bss           0x004547dc        0x0 c:/mingw/bin/../lib/gcc/mingw32/6.3.0/../../..\libmsvcrt.a(djpvbs01243.o)
 .bss           0x004547dc        0x0 c:/mingw/bin/../lib/gcc/mingw32/6.3.0/../../..\libmsvcrt.a(djpvbs01242.o)
 .bss           0x004547dc        0x0 c:/mingw/bin/../lib/gcc/mingw32/6.3.0/../../..\libmsvcrt.a(djpvbs01241.o)
 .bss           0x004547dc        0x0 c:/mingw/bin/../lib/gcc/mingw32/6.3.0/../../..\libmsvcrt.a(djpvbs01238.o)
 .bss           0x004547dc        0x0 c:/mingw/bin/../lib/gcc/mingw32/6.3.0/../../..\libmsvcrt.a(djpvbs01232.o)
 .bss           0x004547dc        0x0 c:/mingw/bin/../lib/gcc/mingw32/6.3.0/../../..\libmsvcrt.a(djpvbs01229.o)
 .bss           0x004547dc        0x0 c:/mingw/bin/../lib/gcc/mingw32/6.3.0/../../..\libmsvcrt.a(djpvbs01227.o)
 .bss           0x004547dc        0x0 c:/mingw/bin/../lib/gcc/mingw32/6.3.0/../../..\libmsvcrt.a(djpvbs01220.o)
 .bss           0x004547dc        0x0 c:/mingw/bin/../lib/gcc/mingw32/6.3.0/../../..\libmsvcrt.a(djpvbs01203.o)
 .bss           0x004547dc        0x0 c:/mingw/bin/../lib/gcc/mingw32/6.3.0/../../..\libmsvcrt.a(djpvbs01199.o)
 .bss           0x004547dc        0x0 c:/mingw/bin/../lib/gcc/mingw32/6.3.0/../../..\libmsvcrt.a(djpvbs01198.o)
 .bss           0x004547dc        0x0 c:/mingw/bin/../lib/gcc/mingw32/6.3.0/../../..\libmsvcrt.a(djpvbs01194.o)
 .bss           0x004547dc        0x0 c:/mingw/bin/../lib/gcc/mingw32/6.3.0/../../..\libmsvcrt.a(djpvbs01187.o)
 .bss           0x004547dc        0x0 c:/mingw/bin/../lib/gcc/mingw32/6.3.0/../../..\libmsvcrt.a(djpvbs01142.o)
 .bss           0x004547dc        0x0 c:/mingw/bin/../lib/gcc/mingw32/6.3.0/../../..\libmsvcrt.a(djpvbs01131.o)
 .bss           0x004547dc        0x0 c:/mingw/bin/../lib/gcc/mingw32/6.3.0/../../..\libmsvcrt.a(djpvbs01127.o)
 .bss           0x004547dc        0x0 c:/mingw/bin/../lib/gcc/mingw32/6.3.0/../../..\libmsvcrt.a(djpvbs01126.o)
 .bss           0x004547dc        0x0 c:/mingw/bin/../lib/gcc/mingw32/6.3.0/../../..\libmsvcrt.a(djpvbs01122.o)
 .bss           0x004547dc        0x0 c:/mingw/bin/../lib/gcc/mingw32/6.3.0/../../..\libmsvcrt.a(djpvbs01114.o)
 .bss           0x004547dc        0x0 c:/mingw/bin/../lib/gcc/mingw32/6.3.0/../../..\libmsvcrt.a(djpvbs01111.o)
 .bss           0x004547dc        0x0 c:/mingw/bin/../lib/gcc/mingw32/6.3.0/../../..\libmsvcrt.a(djpvbs01108.o)
 .bss           0x004547dc        0x0 c:/mingw/bin/../lib/gcc/mingw32/6.3.0/../../..\libmsvcrt.a(djpvbs01098.o)
 .bss           0x004547dc        0x0 c:/mingw/bin/../lib/gcc/mingw32/6.3.0/../../..\libmsvcrt.a(djpvbs01093.o)
 .bss           0x004547dc        0x0 c:/mingw/bin/../lib/gcc/mingw32/6.3.0/../../..\libmsvcrt.a(djpvbs01091.o)
 .bss           0x004547dc        0x0 c:/mingw/bin/../lib/gcc/mingw32/6.3.0/../../..\libmsvcrt.a(djpvbs01083.o)
 .bss           0x004547dc        0x0 c:/mingw/bin/../lib/gcc/mingw32/6.3.0/../../..\libmsvcrt.a(djpvbs00753.o)
 .bss           0x004547dc        0x0 c:/mingw/bin/../lib/gcc/mingw32/6.3.0/../../..\libmsvcrt.a(djpvbs00698.o)
 .bss           0x004547dc        0x0 c:/mingw/bin/../lib/gcc/mingw32/6.3.0/../../..\libmsvcrt.a(djpvbs00689.o)
 .bss           0x004547dc        0x0 c:/mingw/bin/../lib/gcc/mingw32/6.3.0/../../..\libmsvcrt.a(djpvbs00422.o)
 .bss           0x004547dc        0x0 c:/mingw/bin/../lib/gcc/mingw32/6.3.0/../../..\libmsvcrt.a(djpvbs00417.o)
 .bss           0x004547dc        0x0 c:/mingw/bin/../lib/gcc/mingw32/6.3.0/../../..\libmsvcrt.a(djpvbs00350.o)
 .bss           0x004547dc        0x0 c:/mingw/bin/../lib/gcc/mingw32/6.3.0/../../..\libmsvcrt.a(djpvbs00324.o)
 .bss           0x004547dc        0x0 c:/mingw/bin/../lib/gcc/mingw32/6.3.0/../../..\libmsvcrt.a(djpvbs00285.o)
 .bss           0x004547dc        0x0 c:/mingw/bin/../lib/gcc/mingw32/6.3.0/../../..\libmsvcrt.a(djpvbs00219.o)
 .bss           0x004547dc        0x0 c:/mingw/bin/../lib/gcc/mingw32/6.3.0/../../..\libmsvcrt.a(djpvbs00153.o)
 .bss           0x004547dc        0x0 c:/mingw/bin/../lib/gcc/mingw32/6.3.0/../../..\libmsvcrt.a(djpvbs00133.o)
 .bss           0x004547dc        0x0 c:/mingw/bin/../lib/gcc/mingw32/6.3.0/../../..\libmsvcrt.a(djpvbs00131.o)
 .bss           0x004547dc        0x0 c:/mingw/bin/../lib/gcc/mingw32/6.3.0/../../..\libmsvcrt.a(djpvbs00119.o)
 .bss           0x004547dc        0x0 c:/mingw/bin/../lib/gcc/mingw32/6.3.0/../../..\libmsvcrt.a(djpvbs00088.o)
 .bss           0x004547dc        0x0 c:/mingw/bin/../lib/gcc/mingw32/6.3.0/../../..\libmsvcrt.a(djpvbh.o)
 .bss           0x004547dc        0x0 c:/mingw/bin/../lib/gcc/mingw32/6.3.0/../../..\libmsvcrt.a(djpvbt.o)
 .bss           0x004547dc        0x0 c:/mingw/bin/../lib/gcc/mingw32/6.3.0/../../..\libkernel32.a(dujcs01215.o)
 .bss           0x004547dc        0x0 c:/mingw/bin/../lib/gcc/mingw32/6.3.0/../../..\libkernel32.a(dujcs01213.o)
 .bss           0x004547dc        0x0 c:/mingw/bin/../lib/gcc/mingw32/6.3.0/../../..\libkernel32.a(dujcs01174.o)
 .bss           0x004547dc        0x0 c:/mingw/bin/../lib/gcc/mingw32/6.3.0/../../..\libkernel32.a(dujcs01173.o)
 .bss           0x004547dc        0x0 c:/mingw/bin/../lib/gcc/mingw32/6.3.0/../../..\libkernel32.a(dujcs01172.o)
 .bss           0x004547dc        0x0 c:/mingw/bin/../lib/gcc/mingw32/6.3.0/../../..\libkernel32.a(dujcs01171.o)
 .bss           0x004547dc        0x0 c:/mingw/bin/../lib/gcc/mingw32/6.3.0/../../..\libkernel32.a(dujcs01091.o)
 .bss           0x004547dc        0x0 c:/mingw/bin/../lib/gcc/mingw32/6.3.0/../../..\libkernel32.a(dujcs00814.o)
 .bss           0x004547dc        0x0 c:/mingw/bin/../lib/gcc/mingw32/6.3.0/../../..\libkernel32.a(dujcs00747.o)
 .bss           0x004547dc        0x0 c:/mingw/bin/../lib/gcc/mingw32/6.3.0/../../..\libkernel32.a(dujcs00743.o)
 .bss           0x004547dc        0x0 c:/mingw/bin/../lib/gcc/mingw32/6.3.0/../../..\libkernel32.a(dujcs00734.o)
 .bss           0x004547dc        0x0 c:/mingw/bin/../lib/gcc/mingw32/6.3.0/../../..\libkernel32.a(dujcs00451.o)
 .bss           0x004547dc        0x0 c:/mingw/bin/../lib/gcc/mingw32/6.3.0/../../..\libkernel32.a(dujcs00388.o)
 .bss           0x004547dc        0x0 c:/mingw/bin/../lib/gcc/mingw32/6.3.0/../../..\libkernel32.a(dujcs00321.o)
 .bss           0x004547dc        0x0 c:/mingw/bin/../lib/gcc/mingw32/6.3.0/../../..\libkernel32.a(dujcs00304.o)
 .bss           0x004547dc        0x0 c:/mingw/bin/../lib/gcc/mingw32/6.3.0/../../..\libkernel32.a(dujcs00300.o)
 .bss           0x004547dc        0x0 c:/mingw/bin/../lib/gcc/mingw32/6.3.0/../../..\libkernel32.a(dujcs00236.o)
 .bss           0x004547dc        0x0 c:/mingw/bin/../lib/gcc/mingw32/6.3.0/../../..\libkernel32.a(dujcs00207.o)
 .bss           0x004547dc        0x0 c:/mingw/bin/../lib/gcc/mingw32/6.3.0/../../..\libkernel32.a(dujcs00172.o)
 .bss           0x004547dc        0x0 c:/mingw/bin/../lib/gcc/mingw32/6.3.0/../../..\libkernel32.a(dujcs00082.o)
 .bss           0x004547dc        0x0 c:/mingw/bin/../lib/gcc/mingw32/6.3.0/../../..\libmingw32.a(tlsmthread.o)
 .bss           0x004547dc        0x0 c:/mingw/bin/../lib/gcc/mingw32/6.3.0/../../..\libmoldname.a(dagwbs00082.o)
 .bss           0x004547dc        0x0 c:/mingw/bin/../lib/gcc/mingw32/6.3.0/../../..\libmoldname.a(dagwbs00080.o)
 .bss           0x004547dc        0x0 c:/mingw/bin/../lib/gcc/mingw32/6.3.0/crtend.o
 *(COMMON)
 COMMON         0x004547dc        0x4 c:/mingw/bin/../lib/gcc/mingw32/6.3.0/crtbegin.o
                0x004547dc                hmod_libgcc
 COMMON         0x004547e0        0x8 CMakeFiles\Basic_workflow.dir/objects.a(unity_4_c.c.obj)
                0x004547e0                PduR_State
                0x004547e4                PduR_Base
 COMMON         0x004547e8       0x30 CMakeFiles\Basic_workflow.dir/objects.a(unity_3_c.c.obj)
                0x004547e8                ComM_NvMblock
                0x004547ec                ComM_GlobalStruct
                0x004547f0                ComM_UserStruct
                0x004547fc                ComM_ChannelStruct
 COMMON         0x00454818        0x4 CMakeFiles\Basic_workflow.dir/objects.a(unity_2_c.c.obj)
                0x00454818                Com_InitStatus_en
 COMMON         0x0045481c       0xa4 CMakeFiles\Basic_workflow.dir/objects.a(unity_1_c.c.obj)
                0x0045481c                CanIf_Prv_RxNotification_taen
                0x00454820                Com_Prv_RxSigFlagS_TestECU_To_ApplicationECU_Data_Can_Network_Channel_CAN_Rx_st
                0x00454821                Com_RxSigBuf_ComMainFunctionRx_au8
                0x00454824                CanSM_PreFullCom_Substates_en
                0x00454828                Com_Prv_TxIpduRam_IP_ApplicationECU_To_TestECU_Can_Network_Channel_CAN_Tx_st
                0x0045483c                CanSM_NoComRequested_ab
                0x0045483e                CanSM_ModeRepeatReq_Time_u16
                0x00454840                CanSM_BusOffISRPend_ab
                0x00454841                CanSM_BusOff_Cntr_au8
                0x00454842                CanSM_Num_Unsuccessful_ModeReq_au8
                0x00454843                CanSM_Network_Init_ab
                0x00454844                Com_Prv_IpduGrpRam_ComIPduGroup_Tx_st
                0x00454848                CanIf_Prv_TxNotification_aen
                0x0045484c                CanSM_ModeRepeatReq_Max_u8
                0x0045484d                CanSM_BORMode_au8
                0x0045484e                CanSM_Trcv_ModeInd_ab
                0x00454850                CanSM_currBOR_State_en
                0x00454854                CanSM_GetBusOffDelay_Value_u8
                0x00454858                CanSM_WakeUpValidation_Substates_en
                0x0045485c                CanSM_ConfigSet_pcst
                0x00454860                CanSM_ModeChangeReq_flag
                0x00454864                CanSM_CurrNw_Mode_en
                0x00454868                CanSM_Init_ab
                0x00454869                CanIf_Prv_ControllerState_ast
                0x0045486a                CanSM_MutexMode_au8
                0x0045486c                CanSM_Network_pcst
                0x00454870                CanSM_ReqMode_a
                0x00454874                CanSM_BusSMMode_au8
                0x00454878                CanSM_PreNoCom_Substates_en
                0x0045487c                Com_Prv_IpduGrpRam_ComIPduGroup_Rx_st
                0x00454880                CanSM_ControllerState_en
                0x00454884                CanSM_Rb_DisableBusOffRecovery_ab
                0x00454888                Com_dIP_ApplicationECU_To_TestECU_Can_Network_Channel_CAN_TxByte
                0x00454890                CanSM_Ctrl_ModeInd_ab
                0x00454894                Com_dIP_TestECU_To_ApplicationECU_Can_Network_Channel_CAN_RxByte
                0x0045489c                CanSM_ReqComM_Mode_en
                0x0045489d                Com_Prv_TxSigFlagS_ApplicationECU_To_TestECU_Data_Can_Network_Channel_CAN_Tx_st
                0x0045489e                CanIf_Prv_InitStatus_b
                0x004548a0                CanSM_TxTimeoutexception_Substates_en
                0x004548a4                CanSM_Wuvalidation_Start_ab
                0x004548a8                Com_Prv_RxIpduRam_IP_TestECU_To_ApplicationECU_Can_Network_Channel_CAN_Rx_st
                0x004548b0                CanSM_TimerConfig_ast
                0x004548b8                CanSM_ControllerIndications_ab
                0x004548b9                CanSM_BOR_SilentCom_ab
                0x004548ba                CanSM_BusOff_Indicated_ab
                0x004548bc                CanSM_BOR_Controller_Stopped_state_en
 COMMON         0x004548c0       0x12 CMakeFiles\Basic_workflow.dir/objects.a(unity_0_c.c.obj)
                0x004548c0                BswM_Prv_flgNewReqstProgress_b
                0x004548c1                BswM_Prv_flgDelayedReqstProgress_b
                0x004548c2                BswM_Prv_flgDelayDeferredReqst_b
                0x004548c3                BswM_Prv_flgDeferredReqstProgress_b
                0x004548c4                BswM_Rb_ctrInterrupt_au8
                0x004548c6                BswM_Prv_isReqstDelayed_b
                0x004548c8                BswM_Prv_adrSelectedConfig_pcst
                0x004548cc                CanIf_Prv_ConfigSet_tpst
                0x004548d0                BswM_Prv_ctrInterrupt_u8
                0x004548d1                BswM_Prv_flgTimerActionState_b
 *fill*         0x004548d2        0x2 
 COMMON         0x004548d4       0x41 CMakeFiles\Basic_workflow.dir/objects.a(EcuM_Prv.c.obj)
                0x004548d4                EcuM_Prv_dataExpiredWakeupEvents_u32
                0x004548d8                EcuM_Prv_flgIsModuleInitialised_b
                0x004548dc                EcuM_Prv_dataSelectedShutdownTarget_st
                0x004548e0                EcuM_Prv_WkpSrcValidationTimeoutCtr_u16
                0x004548e2                EcuM_Prv_flgGoDown_b
                0x004548e4                EcuM_Prv_dataValWkpEventsInd_u32
                0x004548e8                EcuM_Prv_dataSelectedBootTargetInit_u8
                0x004548e9                EcuM_Prv_flgIsStartupTwoCalled_ab
                0x004548ec                EcuM_Rb_adrConfigPtr_st
                0x004548f0                EcuM_Prv_flgCoreReady_ab
                0x004548f4                EcuM_Prv_dataValidatedWakeupEvents_u32
                0x004548f8                EcuM_Prv_dataExpWkpEventsInd_u32
                0x004548fc                EcuM_Prv_dataPresentPhase_u8
                0x004548fd                EcuM_Prv_dataSelectedBootTarget_u8
                0x00454900                EcuM_Prv_dataOldPendingWakeupEvents_u32
                0x00454904                EcuM_Prv_dataPendingWakeupEvents_u32
                0x00454908                EcuM_Prv_dataPndWkpEventsInd_u32
                0x0045490c                EcuM_Prv_SlaveCoreTimeoutCtr_u8
                0x00454910                EcuM_Prv_dataClrWkpEventsInd_u32
                0x00454914                EcuM_Prv_flgShutdownInfoDoNotUpdate_b
 *fill*         0x00454915        0x3 
 COMMON         0x00454918        0x2 CMakeFiles\Basic_workflow.dir/objects.a(Rte.c.obj)
                0x00454918                Rte_Rx_000000
                0x00454919                Rte_ImplicitBufs
 *fill*         0x0045491a        0x2 
 COMMON         0x0045491c        0x8 C:/ETAS/RTA-CAR_12.2.0/RTA-CAR/workspace/Basic_Workflow/build/../src/os\RTAOS.lib(SuspendOSInterrupts.o)
                0x0045491c                Os_SuspendOSCount
                0x00454920                Os_SuspendOSImask
 COMMON         0x00454924        0x8 C:/ETAS/RTA-CAR_12.2.0/RTA-CAR/workspace/Basic_Workflow/build/../src/os\RTAOS.lib(SuspendAllInterrupts.o)
                0x00454924                Os_SuspendAllCount
                0x00454928                Os_SuspendAllImask
 *fill*         0x0045492c       0x14 
 COMMON         0x00454940       0xb8 C:/ETAS/RTA-CAR_12.2.0/RTA-CAR/workspace/Basic_Workflow/build/../src/os\RTAOS.lib(Os_Cfg.o)
                0x00454940                Os_InErrorHook
                0x00454944                Os_RunningISR
                0x00454948                Os_ReadyTasks
                0x0045494c                Os_dyn_scheduletables
                0x0045495c                Os_dyn_isrs
                0x00454960                Os_CurrentAppMode
                0x00454961                Os_OrtiApiID
                0x00454964                Os_VCoreTMask
                0x00454968                Os_ChainTaskRef
                0x0045496c                Os_ErrorInformation
                0x0045497c                Os_dyn_counters
                0x00454980                Os_GetStackValueAdjust
                0x00454984                Os_dyn_resources
                0x00454994                Os_RunningTask
                0x00454998                Os_InShutdownHook
                0x00454999                Os_OrtiLastError
                0x004549a0                Os_dyn_tasks
                0x004549f4                Os_RunningTPMask
 *fill*         0x004549f8        0x8 
 COMMON         0x00454a00       0x4a C:/ETAS/RTA-CAR_12.2.0/RTA-CAR/workspace/Basic_Workflow/build/../src/os\RTAOS.lib(vrtaAppMain.o)
                0x00454a00                Os_ICUForInterruptVector
                0x00454a44                VRTA_DEBUG_DEFER_INTERRUPTS
                0x00454a48                Os_ICUForCore
 *fill*         0x00454a4a        0x2 
 COMMON         0x00454a4c        0x0 c:/mingw/bin/../lib/gcc/mingw32/6.3.0\libgcc.a(_ctors.o)
                0x00454a4c                __bss_end__ = .

.edata
 *(.edata)

/DISCARD/
 *(.debug$S)
 *(.debug$T)
 *(.debug$F)
 *(.drectve)
 *(.note.GNU-stack)
 *(.gnu.lto_*)

.idata          0x00455000      0xc00
 SORT(*)(.idata$2)
 .idata$2       0x00455000       0x14 c:/mingw/bin/../lib/gcc/mingw32/6.3.0/../../..\libkernel32.a(dujch.o)
                0x00455000                _head_libkernel32_a
 .idata$2       0x00455014       0x14 c:/mingw/bin/../lib/gcc/mingw32/6.3.0/../../..\libmoldname.a(dagwbh.o)
                0x00455014                _head_libmoldname_a
 .idata$2       0x00455028       0x14 c:/mingw/bin/../lib/gcc/mingw32/6.3.0/../../..\libmsvcrt.a(djpvbh.o)
                0x00455028                _head_libmsvcrt_a
 .idata$2       0x0045503c       0x14 c:/mingw/bin/../lib/gcc/mingw32/6.3.0/../../..\libuser32.a(dtpch.o)
                0x0045503c                _head_libuser32_a
 .idata$2       0x00455050       0x14 c:/mingw/bin/../lib/gcc/mingw32/6.3.0/../../..\libwinmm.a(drqch.o)
                0x00455050                _head_libwinmm_a
 SORT(*)(.idata$3)
                0x00455064        0x4 LONG 0x0
                0x00455068        0x4 LONG 0x0
                0x0045506c        0x4 LONG 0x0
                0x00455070        0x4 LONG 0x0
                0x00455074        0x4 LONG 0x0
 SORT(*)(.idata$4)
 .idata$4       0x00455078        0x0 c:/mingw/bin/../lib/gcc/mingw32/6.3.0/../../..\libkernel32.a(dujch.o)
 .idata$4       0x00455078        0x4 c:/mingw/bin/../lib/gcc/mingw32/6.3.0/../../..\libkernel32.a(dujcs00082.o)
 .idata$4       0x0045507c        0x4 c:/mingw/bin/../lib/gcc/mingw32/6.3.0/../../..\libkernel32.a(dujcs00129.o)
 .idata$4       0x00455080        0x4 c:/mingw/bin/../lib/gcc/mingw32/6.3.0/../../..\libkernel32.a(dujcs00136.o)
 .idata$4       0x00455084        0x4 c:/mingw/bin/../lib/gcc/mingw32/6.3.0/../../..\libkernel32.a(dujcs00154.o)
 .idata$4       0x00455088        0x4 c:/mingw/bin/../lib/gcc/mingw32/6.3.0/../../..\libkernel32.a(dujcs00169.o)
 .idata$4       0x0045508c        0x4 c:/mingw/bin/../lib/gcc/mingw32/6.3.0/../../..\libkernel32.a(dujcs00172.o)
 .idata$4       0x00455090        0x4 c:/mingw/bin/../lib/gcc/mingw32/6.3.0/../../..\libkernel32.a(dujcs00207.o)
 .idata$4       0x00455094        0x4 c:/mingw/bin/../lib/gcc/mingw32/6.3.0/../../..\libkernel32.a(dujcs00236.o)
 .idata$4       0x00455098        0x4 c:/mingw/bin/../lib/gcc/mingw32/6.3.0/../../..\libkernel32.a(dujcs00279.o)
 .idata$4       0x0045509c        0x4 c:/mingw/bin/../lib/gcc/mingw32/6.3.0/../../..\libkernel32.a(dujcs00280.o)
 .idata$4       0x004550a0        0x4 c:/mingw/bin/../lib/gcc/mingw32/6.3.0/../../..\libkernel32.a(dujcs00300.o)
 .idata$4       0x004550a4        0x4 c:/mingw/bin/../lib/gcc/mingw32/6.3.0/../../..\libkernel32.a(dujcs00304.o)
 .idata$4       0x004550a8        0x4 c:/mingw/bin/../lib/gcc/mingw32/6.3.0/../../..\libkernel32.a(dujcs00321.o)
 .idata$4       0x004550ac        0x4 c:/mingw/bin/../lib/gcc/mingw32/6.3.0/../../..\libkernel32.a(dujcs00347.o)
 .idata$4       0x004550b0        0x4 c:/mingw/bin/../lib/gcc/mingw32/6.3.0/../../..\libkernel32.a(dujcs00352.o)
 .idata$4       0x004550b4        0x4 c:/mingw/bin/../lib/gcc/mingw32/6.3.0/../../..\libkernel32.a(dujcs00388.o)
 .idata$4       0x004550b8        0x4 c:/mingw/bin/../lib/gcc/mingw32/6.3.0/../../..\libkernel32.a(dujcs00446.o)
 .idata$4       0x004550bc        0x4 c:/mingw/bin/../lib/gcc/mingw32/6.3.0/../../..\libkernel32.a(dujcs00451.o)
 .idata$4       0x004550c0        0x4 c:/mingw/bin/../lib/gcc/mingw32/6.3.0/../../..\libkernel32.a(dujcs00473.o)
 .idata$4       0x004550c4        0x4 c:/mingw/bin/../lib/gcc/mingw32/6.3.0/../../..\libkernel32.a(dujcs00510.o)
 .idata$4       0x004550c8        0x4 c:/mingw/bin/../lib/gcc/mingw32/6.3.0/../../..\libkernel32.a(dujcs00529.o)
 .idata$4       0x004550cc        0x4 c:/mingw/bin/../lib/gcc/mingw32/6.3.0/../../..\libkernel32.a(dujcs00577.o)
 .idata$4       0x004550d0        0x4 c:/mingw/bin/../lib/gcc/mingw32/6.3.0/../../..\libkernel32.a(dujcs00734.o)
 .idata$4       0x004550d4        0x4 c:/mingw/bin/../lib/gcc/mingw32/6.3.0/../../..\libkernel32.a(dujcs00743.o)
 .idata$4       0x004550d8        0x4 c:/mingw/bin/../lib/gcc/mingw32/6.3.0/../../..\libkernel32.a(dujcs00747.o)
 .idata$4       0x004550dc        0x4 c:/mingw/bin/../lib/gcc/mingw32/6.3.0/../../..\libkernel32.a(dujcs00814.o)
 .idata$4       0x004550e0        0x4 c:/mingw/bin/../lib/gcc/mingw32/6.3.0/../../..\libkernel32.a(dujcs00817.o)
 .idata$4       0x004550e4        0x4 c:/mingw/bin/../lib/gcc/mingw32/6.3.0/../../..\libkernel32.a(dujcs00844.o)
 .idata$4       0x004550e8        0x4 c:/mingw/bin/../lib/gcc/mingw32/6.3.0/../../..\libkernel32.a(dujcs00922.o)
 .idata$4       0x004550ec        0x4 c:/mingw/bin/../lib/gcc/mingw32/6.3.0/../../..\libkernel32.a(dujcs00923.o)
 .idata$4       0x004550f0        0x4 c:/mingw/bin/../lib/gcc/mingw32/6.3.0/../../..\libkernel32.a(dujcs00974.o)
 .idata$4       0x004550f4        0x4 c:/mingw/bin/../lib/gcc/mingw32/6.3.0/../../..\libkernel32.a(dujcs00978.o)
 .idata$4       0x004550f8        0x4 c:/mingw/bin/../lib/gcc/mingw32/6.3.0/../../..\libkernel32.a(dujcs01065.o)
 .idata$4       0x004550fc        0x4 c:/mingw/bin/../lib/gcc/mingw32/6.3.0/../../..\libkernel32.a(dujcs01091.o)
 .idata$4       0x00455100        0x4 c:/mingw/bin/../lib/gcc/mingw32/6.3.0/../../..\libkernel32.a(dujcs01140.o)
 .idata$4       0x00455104        0x4 c:/mingw/bin/../lib/gcc/mingw32/6.3.0/../../..\libkernel32.a(dujcs01152.o)
 .idata$4       0x00455108        0x4 c:/mingw/bin/../lib/gcc/mingw32/6.3.0/../../..\libkernel32.a(dujcs01162.o)
 .idata$4       0x0045510c        0x4 c:/mingw/bin/../lib/gcc/mingw32/6.3.0/../../..\libkernel32.a(dujcs01166.o)
 .idata$4       0x00455110        0x4 c:/mingw/bin/../lib/gcc/mingw32/6.3.0/../../..\libkernel32.a(dujcs01171.o)
 .idata$4       0x00455114        0x4 c:/mingw/bin/../lib/gcc/mingw32/6.3.0/../../..\libkernel32.a(dujcs01172.o)
 .idata$4       0x00455118        0x4 c:/mingw/bin/../lib/gcc/mingw32/6.3.0/../../..\libkernel32.a(dujcs01173.o)
 .idata$4       0x0045511c        0x4 c:/mingw/bin/../lib/gcc/mingw32/6.3.0/../../..\libkernel32.a(dujcs01174.o)
 .idata$4       0x00455120        0x4 c:/mingw/bin/../lib/gcc/mingw32/6.3.0/../../..\libkernel32.a(dujcs01213.o)
 .idata$4       0x00455124        0x4 c:/mingw/bin/../lib/gcc/mingw32/6.3.0/../../..\libkernel32.a(dujcs01215.o)
 .idata$4       0x00455128        0x4 c:/mingw/bin/../lib/gcc/mingw32/6.3.0/../../..\libkernel32.a(dujcs01223.o)
 .idata$4       0x0045512c        0x4 c:/mingw/bin/../lib/gcc/mingw32/6.3.0/../../..\libkernel32.a(dujct.o)
 .idata$4       0x00455130        0x0 c:/mingw/bin/../lib/gcc/mingw32/6.3.0/../../..\libmoldname.a(dagwbh.o)
 .idata$4       0x00455130        0x4 c:/mingw/bin/../lib/gcc/mingw32/6.3.0/../../..\libmoldname.a(dagwbs00080.o)
 .idata$4       0x00455134        0x4 c:/mingw/bin/../lib/gcc/mingw32/6.3.0/../../..\libmoldname.a(dagwbs00082.o)
 .idata$4       0x00455138        0x4 c:/mingw/bin/../lib/gcc/mingw32/6.3.0/../../..\libmoldname.a(dagwbs00109.o)
 .idata$4       0x0045513c        0x4 c:/mingw/bin/../lib/gcc/mingw32/6.3.0/../../..\libmoldname.a(dagwbt.o)
 .idata$4       0x00455140        0x0 c:/mingw/bin/../lib/gcc/mingw32/6.3.0/../../..\libmsvcrt.a(djpvbh.o)
 .idata$4       0x00455140        0x4 c:/mingw/bin/../lib/gcc/mingw32/6.3.0/../../..\libmsvcrt.a(djpvbs00088.o)
 .idata$4       0x00455144        0x4 c:/mingw/bin/../lib/gcc/mingw32/6.3.0/../../..\libmsvcrt.a(djpvbs00119.o)
 .idata$4       0x00455148        0x4 c:/mingw/bin/../lib/gcc/mingw32/6.3.0/../../..\libmsvcrt.a(djpvbs00131.o)
 .idata$4       0x0045514c        0x4 c:/mingw/bin/../lib/gcc/mingw32/6.3.0/../../..\libmsvcrt.a(djpvbs00133.o)
 .idata$4       0x00455150        0x4 c:/mingw/bin/../lib/gcc/mingw32/6.3.0/../../..\libmsvcrt.a(djpvbs00153.o)
 .idata$4       0x00455154        0x4 c:/mingw/bin/../lib/gcc/mingw32/6.3.0/../../..\libmsvcrt.a(djpvbs00219.o)
 .idata$4       0x00455158        0x4 c:/mingw/bin/../lib/gcc/mingw32/6.3.0/../../..\libmsvcrt.a(djpvbs00285.o)
 .idata$4       0x0045515c        0x4 c:/mingw/bin/../lib/gcc/mingw32/6.3.0/../../..\libmsvcrt.a(djpvbs00324.o)
 .idata$4       0x00455160        0x4 c:/mingw/bin/../lib/gcc/mingw32/6.3.0/../../..\libmsvcrt.a(djpvbs00350.o)
 .idata$4       0x00455164        0x4 c:/mingw/bin/../lib/gcc/mingw32/6.3.0/../../..\libmsvcrt.a(djpvbs00417.o)
 .idata$4       0x00455168        0x4 c:/mingw/bin/../lib/gcc/mingw32/6.3.0/../../..\libmsvcrt.a(djpvbs00422.o)
 .idata$4       0x0045516c        0x4 c:/mingw/bin/../lib/gcc/mingw32/6.3.0/../../..\libmsvcrt.a(djpvbs00689.o)
 .idata$4       0x00455170        0x4 c:/mingw/bin/../lib/gcc/mingw32/6.3.0/../../..\libmsvcrt.a(djpvbs00698.o)
 .idata$4       0x00455174        0x4 c:/mingw/bin/../lib/gcc/mingw32/6.3.0/../../..\libmsvcrt.a(djpvbs00753.o)
 .idata$4       0x00455178        0x4 c:/mingw/bin/../lib/gcc/mingw32/6.3.0/../../..\libmsvcrt.a(djpvbs01083.o)
 .idata$4       0x0045517c        0x4 c:/mingw/bin/../lib/gcc/mingw32/6.3.0/../../..\libmsvcrt.a(djpvbs01091.o)
 .idata$4       0x00455180        0x4 c:/mingw/bin/../lib/gcc/mingw32/6.3.0/../../..\libmsvcrt.a(djpvbs01093.o)
 .idata$4       0x00455184        0x4 c:/mingw/bin/../lib/gcc/mingw32/6.3.0/../../..\libmsvcrt.a(djpvbs01098.o)
 .idata$4       0x00455188        0x4 c:/mingw/bin/../lib/gcc/mingw32/6.3.0/../../..\libmsvcrt.a(djpvbs01108.o)
 .idata$4       0x0045518c        0x4 c:/mingw/bin/../lib/gcc/mingw32/6.3.0/../../..\libmsvcrt.a(djpvbs01111.o)
 .idata$4       0x00455190        0x4 c:/mingw/bin/../lib/gcc/mingw32/6.3.0/../../..\libmsvcrt.a(djpvbs01114.o)
 .idata$4       0x00455194        0x4 c:/mingw/bin/../lib/gcc/mingw32/6.3.0/../../..\libmsvcrt.a(djpvbs01122.o)
 .idata$4       0x00455198        0x4 c:/mingw/bin/../lib/gcc/mingw32/6.3.0/../../..\libmsvcrt.a(djpvbs01126.o)
 .idata$4       0x0045519c        0x4 c:/mingw/bin/../lib/gcc/mingw32/6.3.0/../../..\libmsvcrt.a(djpvbs01127.o)
 .idata$4       0x004551a0        0x4 c:/mingw/bin/../lib/gcc/mingw32/6.3.0/../../..\libmsvcrt.a(djpvbs01131.o)
 .idata$4       0x004551a4        0x4 c:/mingw/bin/../lib/gcc/mingw32/6.3.0/../../..\libmsvcrt.a(djpvbs01142.o)
 .idata$4       0x004551a8        0x4 c:/mingw/bin/../lib/gcc/mingw32/6.3.0/../../..\libmsvcrt.a(djpvbs01187.o)
 .idata$4       0x004551ac        0x4 c:/mingw/bin/../lib/gcc/mingw32/6.3.0/../../..\libmsvcrt.a(djpvbs01194.o)
 .idata$4       0x004551b0        0x4 c:/mingw/bin/../lib/gcc/mingw32/6.3.0/../../..\libmsvcrt.a(djpvbs01198.o)
 .idata$4       0x004551b4        0x4 c:/mingw/bin/../lib/gcc/mingw32/6.3.0/../../..\libmsvcrt.a(djpvbs01199.o)
 .idata$4       0x004551b8        0x4 c:/mingw/bin/../lib/gcc/mingw32/6.3.0/../../..\libmsvcrt.a(djpvbs01203.o)
 .idata$4       0x004551bc        0x4 c:/mingw/bin/../lib/gcc/mingw32/6.3.0/../../..\libmsvcrt.a(djpvbs01220.o)
 .idata$4       0x004551c0        0x4 c:/mingw/bin/../lib/gcc/mingw32/6.3.0/../../..\libmsvcrt.a(djpvbs01227.o)
 .idata$4       0x004551c4        0x4 c:/mingw/bin/../lib/gcc/mingw32/6.3.0/../../..\libmsvcrt.a(djpvbs01229.o)
 .idata$4       0x004551c8        0x4 c:/mingw/bin/../lib/gcc/mingw32/6.3.0/../../..\libmsvcrt.a(djpvbs01232.o)
 .idata$4       0x004551cc        0x4 c:/mingw/bin/../lib/gcc/mingw32/6.3.0/../../..\libmsvcrt.a(djpvbs01238.o)
 .idata$4       0x004551d0        0x4 c:/mingw/bin/../lib/gcc/mingw32/6.3.0/../../..\libmsvcrt.a(djpvbs01241.o)
 .idata$4       0x004551d4        0x4 c:/mingw/bin/../lib/gcc/mingw32/6.3.0/../../..\libmsvcrt.a(djpvbs01242.o)
 .idata$4       0x004551d8        0x4 c:/mingw/bin/../lib/gcc/mingw32/6.3.0/../../..\libmsvcrt.a(djpvbs01243.o)
 .idata$4       0x004551dc        0x4 c:/mingw/bin/../lib/gcc/mingw32/6.3.0/../../..\libmsvcrt.a(djpvbs01249.o)
 .idata$4       0x004551e0        0x4 c:/mingw/bin/../lib/gcc/mingw32/6.3.0/../../..\libmsvcrt.a(djpvbs01253.o)
 .idata$4       0x004551e4        0x4 c:/mingw/bin/../lib/gcc/mingw32/6.3.0/../../..\libmsvcrt.a(djpvbs01277.o)
 .idata$4       0x004551e8        0x4 c:/mingw/bin/../lib/gcc/mingw32/6.3.0/../../..\libmsvcrt.a(djpvbs01284.o)
 .idata$4       0x004551ec        0x4 c:/mingw/bin/../lib/gcc/mingw32/6.3.0/../../..\libmsvcrt.a(djpvbs01291.o)
 .idata$4       0x004551f0        0x4 c:/mingw/bin/../lib/gcc/mingw32/6.3.0/../../..\libmsvcrt.a(djpvbs01325.o)
 .idata$4       0x004551f4        0x4 c:/mingw/bin/../lib/gcc/mingw32/6.3.0/../../..\libmsvcrt.a(djpvbt.o)
 .idata$4       0x004551f8        0x0 c:/mingw/bin/../lib/gcc/mingw32/6.3.0/../../..\libuser32.a(dtpch.o)
 .idata$4       0x004551f8        0x4 c:/mingw/bin/../lib/gcc/mingw32/6.3.0/../../..\libuser32.a(dtpcs00434.o)
 .idata$4       0x004551fc        0x4 c:/mingw/bin/../lib/gcc/mingw32/6.3.0/../../..\libuser32.a(dtpct.o)
 .idata$4       0x00455200        0x0 c:/mingw/bin/../lib/gcc/mingw32/6.3.0/../../..\libwinmm.a(drqch.o)
 .idata$4       0x00455200        0x4 c:/mingw/bin/../lib/gcc/mingw32/6.3.0/../../..\libwinmm.a(drqcs00144.o)
 .idata$4       0x00455204        0x4 c:/mingw/bin/../lib/gcc/mingw32/6.3.0/../../..\libwinmm.a(drqcs00149.o)
 .idata$4       0x00455208        0x4 c:/mingw/bin/../lib/gcc/mingw32/6.3.0/../../..\libwinmm.a(drqcs00150.o)
 .idata$4       0x0045520c        0x4 c:/mingw/bin/../lib/gcc/mingw32/6.3.0/../../..\libwinmm.a(drqct.o)
                0x00455210                __IAT_start__ = .
 SORT(*)(.idata$5)
 .idata$5       0x00455210        0x0 c:/mingw/bin/../lib/gcc/mingw32/6.3.0/../../..\libkernel32.a(dujch.o)
 .idata$5       0x00455210        0x4 c:/mingw/bin/../lib/gcc/mingw32/6.3.0/../../..\libkernel32.a(dujcs00082.o)
                0x00455210                _imp__CloseHandle@4
 .idata$5       0x00455214        0x4 c:/mingw/bin/../lib/gcc/mingw32/6.3.0/../../..\libkernel32.a(dujcs00129.o)
                0x00455214                _imp__CreateEventA@16
 .idata$5       0x00455218        0x4 c:/mingw/bin/../lib/gcc/mingw32/6.3.0/../../..\libkernel32.a(dujcs00136.o)
                0x00455218                _imp__CreateFileMappingA@24
 .idata$5       0x0045521c        0x4 c:/mingw/bin/../lib/gcc/mingw32/6.3.0/../../..\libkernel32.a(dujcs00154.o)
                0x0045521c                _imp__CreateMutexA@12
 .idata$5       0x00455220        0x4 c:/mingw/bin/../lib/gcc/mingw32/6.3.0/../../..\libkernel32.a(dujcs00169.o)
                0x00455220                _imp__CreateSemaphoreA@16
 .idata$5       0x00455224        0x4 c:/mingw/bin/../lib/gcc/mingw32/6.3.0/../../..\libkernel32.a(dujcs00172.o)
                0x00455224                _imp__CreateSemaphoreW@16
 .idata$5       0x00455228        0x4 c:/mingw/bin/../lib/gcc/mingw32/6.3.0/../../..\libkernel32.a(dujcs00207.o)
                0x00455228                _imp__DeleteCriticalSection@4
 .idata$5       0x0045522c        0x4 c:/mingw/bin/../lib/gcc/mingw32/6.3.0/../../..\libkernel32.a(dujcs00236.o)
                0x0045522c                _imp__EnterCriticalSection@4
 .idata$5       0x00455230        0x4 c:/mingw/bin/../lib/gcc/mingw32/6.3.0/../../..\libkernel32.a(dujcs00279.o)
                0x00455230                _imp__ExitProcess@4
 .idata$5       0x00455234        0x4 c:/mingw/bin/../lib/gcc/mingw32/6.3.0/../../..\libkernel32.a(dujcs00280.o)
                0x00455234                _imp__ExitThread@4
 .idata$5       0x00455238        0x4 c:/mingw/bin/../lib/gcc/mingw32/6.3.0/../../..\libkernel32.a(dujcs00300.o)
                0x00455238                _imp__FindClose@4
 .idata$5       0x0045523c        0x4 c:/mingw/bin/../lib/gcc/mingw32/6.3.0/../../..\libkernel32.a(dujcs00304.o)
                0x0045523c                _imp__FindFirstFileA@8
 .idata$5       0x00455240        0x4 c:/mingw/bin/../lib/gcc/mingw32/6.3.0/../../..\libkernel32.a(dujcs00321.o)
                0x00455240                _imp__FindNextFileA@8
 .idata$5       0x00455244        0x4 c:/mingw/bin/../lib/gcc/mingw32/6.3.0/../../..\libkernel32.a(dujcs00347.o)
                0x00455244                _imp__FormatMessageA@28
 .idata$5       0x00455248        0x4 c:/mingw/bin/../lib/gcc/mingw32/6.3.0/../../..\libkernel32.a(dujcs00352.o)
                0x00455248                _imp__FreeLibrary@4
 .idata$5       0x0045524c        0x4 c:/mingw/bin/../lib/gcc/mingw32/6.3.0/../../..\libkernel32.a(dujcs00388.o)
                0x0045524c                _imp__GetCommandLineA@0
 .idata$5       0x00455250        0x4 c:/mingw/bin/../lib/gcc/mingw32/6.3.0/../../..\libkernel32.a(dujcs00446.o)
                0x00455250                _imp__GetCurrentProcess@0
 .idata$5       0x00455254        0x4 c:/mingw/bin/../lib/gcc/mingw32/6.3.0/../../..\libkernel32.a(dujcs00451.o)
                0x00455254                _imp__GetCurrentThreadId@0
 .idata$5       0x00455258        0x4 c:/mingw/bin/../lib/gcc/mingw32/6.3.0/../../..\libkernel32.a(dujcs00473.o)
                0x00455258                _imp__GetEnvironmentVariableA@12
 .idata$5       0x0045525c        0x4 c:/mingw/bin/../lib/gcc/mingw32/6.3.0/../../..\libkernel32.a(dujcs00510.o)
                0x0045525c                _imp__GetLastError@0
 .idata$5       0x00455260        0x4 c:/mingw/bin/../lib/gcc/mingw32/6.3.0/../../..\libkernel32.a(dujcs00529.o)
                0x00455260                _imp__GetModuleHandleA@4
 .idata$5       0x00455264        0x4 c:/mingw/bin/../lib/gcc/mingw32/6.3.0/../../..\libkernel32.a(dujcs00577.o)
                0x00455264                _imp__GetProcAddress@8
 .idata$5       0x00455268        0x4 c:/mingw/bin/../lib/gcc/mingw32/6.3.0/../../..\libkernel32.a(dujcs00734.o)
                0x00455268                _imp__InitializeCriticalSection@4
 .idata$5       0x0045526c        0x4 c:/mingw/bin/../lib/gcc/mingw32/6.3.0/../../..\libkernel32.a(dujcs00743.o)
                0x0045526c                _imp__InterlockedDecrement@4
 .idata$5       0x00455270        0x4 c:/mingw/bin/../lib/gcc/mingw32/6.3.0/../../..\libkernel32.a(dujcs00747.o)
                0x00455270                _imp__InterlockedIncrement@4
 .idata$5       0x00455274        0x4 c:/mingw/bin/../lib/gcc/mingw32/6.3.0/../../..\libkernel32.a(dujcs00814.o)
                0x00455274                _imp__LeaveCriticalSection@4
 .idata$5       0x00455278        0x4 c:/mingw/bin/../lib/gcc/mingw32/6.3.0/../../..\libkernel32.a(dujcs00817.o)
                0x00455278                _imp__LoadLibraryA@4
 .idata$5       0x0045527c        0x4 c:/mingw/bin/../lib/gcc/mingw32/6.3.0/../../..\libkernel32.a(dujcs00844.o)
                0x0045527c                _imp__MapViewOfFile@20
 .idata$5       0x00455280        0x4 c:/mingw/bin/../lib/gcc/mingw32/6.3.0/../../..\libkernel32.a(dujcs00922.o)
                0x00455280                _imp__QueryPerformanceCounter@4
 .idata$5       0x00455284        0x4 c:/mingw/bin/../lib/gcc/mingw32/6.3.0/../../..\libkernel32.a(dujcs00923.o)
                0x00455284                _imp__QueryPerformanceFrequency@4
 .idata$5       0x00455288        0x4 c:/mingw/bin/../lib/gcc/mingw32/6.3.0/../../..\libkernel32.a(dujcs00974.o)
                0x00455288                _imp__ReleaseMutex@4
 .idata$5       0x0045528c        0x4 c:/mingw/bin/../lib/gcc/mingw32/6.3.0/../../..\libkernel32.a(dujcs00978.o)
                0x0045528c                _imp__ReleaseSemaphore@12
 .idata$5       0x00455290        0x4 c:/mingw/bin/../lib/gcc/mingw32/6.3.0/../../..\libkernel32.a(dujcs01065.o)
                0x00455290                _imp__SetEvent@4
 .idata$5       0x00455294        0x4 c:/mingw/bin/../lib/gcc/mingw32/6.3.0/../../..\libkernel32.a(dujcs01091.o)
                0x00455294                _imp__SetLastError@4
 .idata$5       0x00455298        0x4 c:/mingw/bin/../lib/gcc/mingw32/6.3.0/../../..\libkernel32.a(dujcs01140.o)
                0x00455298                _imp__SetUnhandledExceptionFilter@4
 .idata$5       0x0045529c        0x4 c:/mingw/bin/../lib/gcc/mingw32/6.3.0/../../..\libkernel32.a(dujcs01152.o)
                0x0045529c                _imp__Sleep@4
 .idata$5       0x004552a0        0x4 c:/mingw/bin/../lib/gcc/mingw32/6.3.0/../../..\libkernel32.a(dujcs01162.o)
                0x004552a0                _imp__SwitchToThread@0
 .idata$5       0x004552a4        0x4 c:/mingw/bin/../lib/gcc/mingw32/6.3.0/../../..\libkernel32.a(dujcs01166.o)
                0x004552a4                _imp__TerminateProcess@8
 .idata$5       0x004552a8        0x4 c:/mingw/bin/../lib/gcc/mingw32/6.3.0/../../..\libkernel32.a(dujcs01171.o)
                0x004552a8                _imp__TlsAlloc@0
 .idata$5       0x004552ac        0x4 c:/mingw/bin/../lib/gcc/mingw32/6.3.0/../../..\libkernel32.a(dujcs01172.o)
                0x004552ac                _imp__TlsFree@4
 .idata$5       0x004552b0        0x4 c:/mingw/bin/../lib/gcc/mingw32/6.3.0/../../..\libkernel32.a(dujcs01173.o)
                0x004552b0                _imp__TlsGetValue@4
 .idata$5       0x004552b4        0x4 c:/mingw/bin/../lib/gcc/mingw32/6.3.0/../../..\libkernel32.a(dujcs01174.o)
                0x004552b4                _imp__TlsSetValue@8
 .idata$5       0x004552b8        0x4 c:/mingw/bin/../lib/gcc/mingw32/6.3.0/../../..\libkernel32.a(dujcs01213.o)
                0x004552b8                _imp__VirtualProtect@16
 .idata$5       0x004552bc        0x4 c:/mingw/bin/../lib/gcc/mingw32/6.3.0/../../..\libkernel32.a(dujcs01215.o)
                0x004552bc                _imp__VirtualQuery@12
 .idata$5       0x004552c0        0x4 c:/mingw/bin/../lib/gcc/mingw32/6.3.0/../../..\libkernel32.a(dujcs01223.o)
                0x004552c0                _imp__WaitForSingleObject@8
 .idata$5       0x004552c4        0x4 c:/mingw/bin/../lib/gcc/mingw32/6.3.0/../../..\libkernel32.a(dujct.o)
 .idata$5       0x004552c8        0x0 c:/mingw/bin/../lib/gcc/mingw32/6.3.0/../../..\libmoldname.a(dagwbh.o)
 .idata$5       0x004552c8        0x4 c:/mingw/bin/../lib/gcc/mingw32/6.3.0/../../..\libmoldname.a(dagwbs00080.o)
                0x004552c8                _imp__strdup
 .idata$5       0x004552cc        0x4 c:/mingw/bin/../lib/gcc/mingw32/6.3.0/../../..\libmoldname.a(dagwbs00082.o)
                0x004552cc                _imp__stricoll
 .idata$5       0x004552d0        0x4 c:/mingw/bin/../lib/gcc/mingw32/6.3.0/../../..\libmoldname.a(dagwbs00109.o)
                0x004552d0                _imp__write
 .idata$5       0x004552d4        0x4 c:/mingw/bin/../lib/gcc/mingw32/6.3.0/../../..\libmoldname.a(dagwbt.o)
 .idata$5       0x004552d8        0x0 c:/mingw/bin/../lib/gcc/mingw32/6.3.0/../../..\libmsvcrt.a(djpvbh.o)
 .idata$5       0x004552d8        0x4 c:/mingw/bin/../lib/gcc/mingw32/6.3.0/../../..\libmsvcrt.a(djpvbs00088.o)
                0x004552d8                _imp____getmainargs
 .idata$5       0x004552dc        0x4 c:/mingw/bin/../lib/gcc/mingw32/6.3.0/../../..\libmsvcrt.a(djpvbs00119.o)
                0x004552dc                _imp____mb_cur_max
 .idata$5       0x004552e0        0x4 c:/mingw/bin/../lib/gcc/mingw32/6.3.0/../../..\libmsvcrt.a(djpvbs00131.o)
                0x004552e0                _imp____p__environ
 .idata$5       0x004552e4        0x4 c:/mingw/bin/../lib/gcc/mingw32/6.3.0/../../..\libmsvcrt.a(djpvbs00133.o)
                0x004552e4                _imp____p__fmode
 .idata$5       0x004552e8        0x4 c:/mingw/bin/../lib/gcc/mingw32/6.3.0/../../..\libmsvcrt.a(djpvbs00153.o)
                0x004552e8                _imp____set_app_type
 .idata$5       0x004552ec        0x4 c:/mingw/bin/../lib/gcc/mingw32/6.3.0/../../..\libmsvcrt.a(djpvbs00219.o)
                0x004552ec                _imp___cexit
 .idata$5       0x004552f0        0x4 c:/mingw/bin/../lib/gcc/mingw32/6.3.0/../../..\libmsvcrt.a(djpvbs00285.o)
                0x004552f0                _imp___errno
 .idata$5       0x004552f4        0x4 c:/mingw/bin/../lib/gcc/mingw32/6.3.0/../../..\libmsvcrt.a(djpvbs00324.o)
                0x004552f4                _imp___fpreset
 .idata$5       0x004552f8        0x4 c:/mingw/bin/../lib/gcc/mingw32/6.3.0/../../..\libmsvcrt.a(djpvbs00350.o)
                0x004552f8                _imp___fullpath
 .idata$5       0x004552fc        0x4 c:/mingw/bin/../lib/gcc/mingw32/6.3.0/../../..\libmsvcrt.a(djpvbs00417.o)
                0x004552fc                _imp___iob
 .idata$5       0x00455300        0x4 c:/mingw/bin/../lib/gcc/mingw32/6.3.0/../../..\libmsvcrt.a(djpvbs00422.o)
                0x00455300                _imp___isctype
 .idata$5       0x00455304        0x4 c:/mingw/bin/../lib/gcc/mingw32/6.3.0/../../..\libmsvcrt.a(djpvbs00689.o)
                0x00455304                _imp___onexit
 .idata$5       0x00455308        0x4 c:/mingw/bin/../lib/gcc/mingw32/6.3.0/../../..\libmsvcrt.a(djpvbs00698.o)
                0x00455308                _imp___pctype
 .idata$5       0x0045530c        0x4 c:/mingw/bin/../lib/gcc/mingw32/6.3.0/../../..\libmsvcrt.a(djpvbs00753.o)
                0x0045530c                _imp___setmode
 .idata$5       0x00455310        0x4 c:/mingw/bin/../lib/gcc/mingw32/6.3.0/../../..\libmsvcrt.a(djpvbs01083.o)
                0x00455310                _imp__abort
 .idata$5       0x00455314        0x4 c:/mingw/bin/../lib/gcc/mingw32/6.3.0/../../..\libmsvcrt.a(djpvbs01091.o)
                0x00455314                _imp__atexit
 .idata$5       0x00455318        0x4 c:/mingw/bin/../lib/gcc/mingw32/6.3.0/../../..\libmsvcrt.a(djpvbs01093.o)
                0x00455318                _imp__atoi
 .idata$5       0x0045531c        0x4 c:/mingw/bin/../lib/gcc/mingw32/6.3.0/../../..\libmsvcrt.a(djpvbs01098.o)
                0x0045531c                _imp__calloc
 .idata$5       0x00455320        0x4 c:/mingw/bin/../lib/gcc/mingw32/6.3.0/../../..\libmsvcrt.a(djpvbs01108.o)
                0x00455320                _imp__exit
 .idata$5       0x00455324        0x4 c:/mingw/bin/../lib/gcc/mingw32/6.3.0/../../..\libmsvcrt.a(djpvbs01111.o)
                0x00455324                _imp__fclose
 .idata$5       0x00455328        0x4 c:/mingw/bin/../lib/gcc/mingw32/6.3.0/../../..\libmsvcrt.a(djpvbs01114.o)
                0x00455328                _imp__fflush
 .idata$5       0x0045532c        0x4 c:/mingw/bin/../lib/gcc/mingw32/6.3.0/../../..\libmsvcrt.a(djpvbs01122.o)
                0x0045532c                _imp__fopen
 .idata$5       0x00455330        0x4 c:/mingw/bin/../lib/gcc/mingw32/6.3.0/../../..\libmsvcrt.a(djpvbs01126.o)
                0x00455330                _imp__fputc
 .idata$5       0x00455334        0x4 c:/mingw/bin/../lib/gcc/mingw32/6.3.0/../../..\libmsvcrt.a(djpvbs01127.o)
                0x00455334                _imp__fputs
 .idata$5       0x00455338        0x4 c:/mingw/bin/../lib/gcc/mingw32/6.3.0/../../..\libmsvcrt.a(djpvbs01131.o)
                0x00455338                _imp__free
 .idata$5       0x0045533c        0x4 c:/mingw/bin/../lib/gcc/mingw32/6.3.0/../../..\libmsvcrt.a(djpvbs01142.o)
                0x0045533c                _imp__fwrite
 .idata$5       0x00455340        0x4 c:/mingw/bin/../lib/gcc/mingw32/6.3.0/../../..\libmsvcrt.a(djpvbs01187.o)
                0x00455340                _imp__malloc
 .idata$5       0x00455344        0x4 c:/mingw/bin/../lib/gcc/mingw32/6.3.0/../../..\libmsvcrt.a(djpvbs01194.o)
                0x00455344                _imp__mbstowcs
 .idata$5       0x00455348        0x4 c:/mingw/bin/../lib/gcc/mingw32/6.3.0/../../..\libmsvcrt.a(djpvbs01198.o)
                0x00455348                _imp__memcmp
 .idata$5       0x0045534c        0x4 c:/mingw/bin/../lib/gcc/mingw32/6.3.0/../../..\libmsvcrt.a(djpvbs01199.o)
                0x0045534c                _imp__memcpy
 .idata$5       0x00455350        0x4 c:/mingw/bin/../lib/gcc/mingw32/6.3.0/../../..\libmsvcrt.a(djpvbs01203.o)
                0x00455350                _imp__memset
 .idata$5       0x00455354        0x4 c:/mingw/bin/../lib/gcc/mingw32/6.3.0/../../..\libmsvcrt.a(djpvbs01220.o)
                0x00455354                _imp__realloc
 .idata$5       0x00455358        0x4 c:/mingw/bin/../lib/gcc/mingw32/6.3.0/../../..\libmsvcrt.a(djpvbs01227.o)
                0x00455358                _imp__setlocale
 .idata$5       0x0045535c        0x4 c:/mingw/bin/../lib/gcc/mingw32/6.3.0/../../..\libmsvcrt.a(djpvbs01229.o)
                0x0045535c                _imp__signal
 .idata$5       0x00455360        0x4 c:/mingw/bin/../lib/gcc/mingw32/6.3.0/../../..\libmsvcrt.a(djpvbs01232.o)
                0x00455360                _imp__sprintf
 .idata$5       0x00455364        0x4 c:/mingw/bin/../lib/gcc/mingw32/6.3.0/../../..\libmsvcrt.a(djpvbs01238.o)
                0x00455364                _imp__strcat
 .idata$5       0x00455368        0x4 c:/mingw/bin/../lib/gcc/mingw32/6.3.0/../../..\libmsvcrt.a(djpvbs01241.o)
                0x00455368                _imp__strcmp
 .idata$5       0x0045536c        0x4 c:/mingw/bin/../lib/gcc/mingw32/6.3.0/../../..\libmsvcrt.a(djpvbs01242.o)
                0x0045536c                _imp__strcoll
 .idata$5       0x00455370        0x4 c:/mingw/bin/../lib/gcc/mingw32/6.3.0/../../..\libmsvcrt.a(djpvbs01243.o)
                0x00455370                _imp__strcpy
 .idata$5       0x00455374        0x4 c:/mingw/bin/../lib/gcc/mingw32/6.3.0/../../..\libmsvcrt.a(djpvbs01249.o)
                0x00455374                _imp__strlen
 .idata$5       0x00455378        0x4 c:/mingw/bin/../lib/gcc/mingw32/6.3.0/../../..\libmsvcrt.a(djpvbs01253.o)
                0x00455378                _imp__strncpy
 .idata$5       0x0045537c        0x4 c:/mingw/bin/../lib/gcc/mingw32/6.3.0/../../..\libmsvcrt.a(djpvbs01277.o)
                0x0045537c                _imp__tolower
 .idata$5       0x00455380        0x4 c:/mingw/bin/../lib/gcc/mingw32/6.3.0/../../..\libmsvcrt.a(djpvbs01284.o)
                0x00455380                _imp__vfprintf
 .idata$5       0x00455384        0x4 c:/mingw/bin/../lib/gcc/mingw32/6.3.0/../../..\libmsvcrt.a(djpvbs01291.o)
                0x00455384                _imp__vsprintf
 .idata$5       0x00455388        0x4 c:/mingw/bin/../lib/gcc/mingw32/6.3.0/../../..\libmsvcrt.a(djpvbs01325.o)
                0x00455388                _imp__wcstombs
 .idata$5       0x0045538c        0x4 c:/mingw/bin/../lib/gcc/mingw32/6.3.0/../../..\libmsvcrt.a(djpvbt.o)
 .idata$5       0x00455390        0x0 c:/mingw/bin/../lib/gcc/mingw32/6.3.0/../../..\libuser32.a(dtpch.o)
 .idata$5       0x00455390        0x4 c:/mingw/bin/../lib/gcc/mingw32/6.3.0/../../..\libuser32.a(dtpcs00434.o)
                0x00455390                _imp__MessageBoxA@16
 .idata$5       0x00455394        0x4 c:/mingw/bin/../lib/gcc/mingw32/6.3.0/../../..\libuser32.a(dtpct.o)
 .idata$5       0x00455398        0x0 c:/mingw/bin/../lib/gcc/mingw32/6.3.0/../../..\libwinmm.a(drqch.o)
 .idata$5       0x00455398        0x4 c:/mingw/bin/../lib/gcc/mingw32/6.3.0/../../..\libwinmm.a(drqcs00144.o)
                0x00455398                _imp__timeBeginPeriod@4
 .idata$5       0x0045539c        0x4 c:/mingw/bin/../lib/gcc/mingw32/6.3.0/../../..\libwinmm.a(drqcs00149.o)
                0x0045539c                _imp__timeKillEvent@4
 .idata$5       0x004553a0        0x4 c:/mingw/bin/../lib/gcc/mingw32/6.3.0/../../..\libwinmm.a(drqcs00150.o)
                0x004553a0                _imp__timeSetEvent@20
 .idata$5       0x004553a4        0x4 c:/mingw/bin/../lib/gcc/mingw32/6.3.0/../../..\libwinmm.a(drqct.o)
                0x004553a8                __IAT_end__ = .
 SORT(*)(.idata$6)
 .idata$6       0x004553a8        0xe c:/mingw/bin/../lib/gcc/mingw32/6.3.0/../../..\libkernel32.a(dujcs00082.o)
 .idata$6       0x004553b6       0x10 c:/mingw/bin/../lib/gcc/mingw32/6.3.0/../../..\libkernel32.a(dujcs00129.o)
 .idata$6       0x004553c6       0x16 c:/mingw/bin/../lib/gcc/mingw32/6.3.0/../../..\libkernel32.a(dujcs00136.o)
 .idata$6       0x004553dc       0x10 c:/mingw/bin/../lib/gcc/mingw32/6.3.0/../../..\libkernel32.a(dujcs00154.o)
 .idata$6       0x004553ec       0x14 c:/mingw/bin/../lib/gcc/mingw32/6.3.0/../../..\libkernel32.a(dujcs00169.o)
 .idata$6       0x00455400       0x14 c:/mingw/bin/../lib/gcc/mingw32/6.3.0/../../..\libkernel32.a(dujcs00172.o)
 .idata$6       0x00455414       0x18 c:/mingw/bin/../lib/gcc/mingw32/6.3.0/../../..\libkernel32.a(dujcs00207.o)
 .idata$6       0x0045542c       0x18 c:/mingw/bin/../lib/gcc/mingw32/6.3.0/../../..\libkernel32.a(dujcs00236.o)
 .idata$6       0x00455444        0xe c:/mingw/bin/../lib/gcc/mingw32/6.3.0/../../..\libkernel32.a(dujcs00279.o)
 .idata$6       0x00455452        0xe c:/mingw/bin/../lib/gcc/mingw32/6.3.0/../../..\libkernel32.a(dujcs00280.o)
 .idata$6       0x00455460        0xc c:/mingw/bin/../lib/gcc/mingw32/6.3.0/../../..\libkernel32.a(dujcs00300.o)
 .idata$6       0x0045546c       0x12 c:/mingw/bin/../lib/gcc/mingw32/6.3.0/../../..\libkernel32.a(dujcs00304.o)
 .idata$6       0x0045547e       0x10 c:/mingw/bin/../lib/gcc/mingw32/6.3.0/../../..\libkernel32.a(dujcs00321.o)
 .idata$6       0x0045548e       0x12 c:/mingw/bin/../lib/gcc/mingw32/6.3.0/../../..\libkernel32.a(dujcs00347.o)
 .idata$6       0x004554a0        0xe c:/mingw/bin/../lib/gcc/mingw32/6.3.0/../../..\libkernel32.a(dujcs00352.o)
 .idata$6       0x004554ae       0x12 c:/mingw/bin/../lib/gcc/mingw32/6.3.0/../../..\libkernel32.a(dujcs00388.o)
 .idata$6       0x004554c0       0x14 c:/mingw/bin/../lib/gcc/mingw32/6.3.0/../../..\libkernel32.a(dujcs00446.o)
 .idata$6       0x004554d4       0x16 c:/mingw/bin/../lib/gcc/mingw32/6.3.0/../../..\libkernel32.a(dujcs00451.o)
 .idata$6       0x004554ea       0x1a c:/mingw/bin/../lib/gcc/mingw32/6.3.0/../../..\libkernel32.a(dujcs00473.o)
 .idata$6       0x00455504       0x10 c:/mingw/bin/../lib/gcc/mingw32/6.3.0/../../..\libkernel32.a(dujcs00510.o)
 .idata$6       0x00455514       0x14 c:/mingw/bin/../lib/gcc/mingw32/6.3.0/../../..\libkernel32.a(dujcs00529.o)
 .idata$6       0x00455528       0x12 c:/mingw/bin/../lib/gcc/mingw32/6.3.0/../../..\libkernel32.a(dujcs00577.o)
 .idata$6       0x0045553a       0x1c c:/mingw/bin/../lib/gcc/mingw32/6.3.0/../../..\libkernel32.a(dujcs00734.o)
 .idata$6       0x00455556       0x18 c:/mingw/bin/../lib/gcc/mingw32/6.3.0/../../..\libkernel32.a(dujcs00743.o)
 .idata$6       0x0045556e       0x18 c:/mingw/bin/../lib/gcc/mingw32/6.3.0/../../..\libkernel32.a(dujcs00747.o)
 .idata$6       0x00455586       0x18 c:/mingw/bin/../lib/gcc/mingw32/6.3.0/../../..\libkernel32.a(dujcs00814.o)
 .idata$6       0x0045559e       0x10 c:/mingw/bin/../lib/gcc/mingw32/6.3.0/../../..\libkernel32.a(dujcs00817.o)
 .idata$6       0x004555ae       0x10 c:/mingw/bin/../lib/gcc/mingw32/6.3.0/../../..\libkernel32.a(dujcs00844.o)
 .idata$6       0x004555be       0x1a c:/mingw/bin/../lib/gcc/mingw32/6.3.0/../../..\libkernel32.a(dujcs00922.o)
 .idata$6       0x004555d8       0x1c c:/mingw/bin/../lib/gcc/mingw32/6.3.0/../../..\libkernel32.a(dujcs00923.o)
 .idata$6       0x004555f4       0x10 c:/mingw/bin/../lib/gcc/mingw32/6.3.0/../../..\libkernel32.a(dujcs00974.o)
 .idata$6       0x00455604       0x14 c:/mingw/bin/../lib/gcc/mingw32/6.3.0/../../..\libkernel32.a(dujcs00978.o)
 .idata$6       0x00455618        0xc c:/mingw/bin/../lib/gcc/mingw32/6.3.0/../../..\libkernel32.a(dujcs01065.o)
 .idata$6       0x00455624       0x10 c:/mingw/bin/../lib/gcc/mingw32/6.3.0/../../..\libkernel32.a(dujcs01091.o)
 .idata$6       0x00455634       0x1e c:/mingw/bin/../lib/gcc/mingw32/6.3.0/../../..\libkernel32.a(dujcs01140.o)
 .idata$6       0x00455652        0x8 c:/mingw/bin/../lib/gcc/mingw32/6.3.0/../../..\libkernel32.a(dujcs01152.o)
 .idata$6       0x0045565a       0x12 c:/mingw/bin/../lib/gcc/mingw32/6.3.0/../../..\libkernel32.a(dujcs01162.o)
 .idata$6       0x0045566c       0x14 c:/mingw/bin/../lib/gcc/mingw32/6.3.0/../../..\libkernel32.a(dujcs01166.o)
 .idata$6       0x00455680        0xc c:/mingw/bin/../lib/gcc/mingw32/6.3.0/../../..\libkernel32.a(dujcs01171.o)
 .idata$6       0x0045568c        0xa c:/mingw/bin/../lib/gcc/mingw32/6.3.0/../../..\libkernel32.a(dujcs01172.o)
 .idata$6       0x00455696        0xe c:/mingw/bin/../lib/gcc/mingw32/6.3.0/../../..\libkernel32.a(dujcs01173.o)
 .idata$6       0x004556a4        0xe c:/mingw/bin/../lib/gcc/mingw32/6.3.0/../../..\libkernel32.a(dujcs01174.o)
 .idata$6       0x004556b2       0x12 c:/mingw/bin/../lib/gcc/mingw32/6.3.0/../../..\libkernel32.a(dujcs01213.o)
 .idata$6       0x004556c4       0x10 c:/mingw/bin/../lib/gcc/mingw32/6.3.0/../../..\libkernel32.a(dujcs01215.o)
 .idata$6       0x004556d4       0x16 c:/mingw/bin/../lib/gcc/mingw32/6.3.0/../../..\libkernel32.a(dujcs01223.o)
 .idata$6       0x004556ea        0xa c:/mingw/bin/../lib/gcc/mingw32/6.3.0/../../..\libmoldname.a(dagwbs00080.o)
 .idata$6       0x004556f4        0xc c:/mingw/bin/../lib/gcc/mingw32/6.3.0/../../..\libmoldname.a(dagwbs00082.o)
 .idata$6       0x00455700        0xa c:/mingw/bin/../lib/gcc/mingw32/6.3.0/../../..\libmoldname.a(dagwbs00109.o)
 .idata$6       0x0045570a       0x10 c:/mingw/bin/../lib/gcc/mingw32/6.3.0/../../..\libmsvcrt.a(djpvbs00088.o)
 .idata$6       0x0045571a       0x10 c:/mingw/bin/../lib/gcc/mingw32/6.3.0/../../..\libmsvcrt.a(djpvbs00119.o)
 .idata$6       0x0045572a       0x10 c:/mingw/bin/../lib/gcc/mingw32/6.3.0/../../..\libmsvcrt.a(djpvbs00131.o)
 .idata$6       0x0045573a        0xe c:/mingw/bin/../lib/gcc/mingw32/6.3.0/../../..\libmsvcrt.a(djpvbs00133.o)
 .idata$6       0x00455748       0x12 c:/mingw/bin/../lib/gcc/mingw32/6.3.0/../../..\libmsvcrt.a(djpvbs00153.o)
 .idata$6       0x0045575a        0xa c:/mingw/bin/../lib/gcc/mingw32/6.3.0/../../..\libmsvcrt.a(djpvbs00219.o)
 .idata$6       0x00455764        0xa c:/mingw/bin/../lib/gcc/mingw32/6.3.0/../../..\libmsvcrt.a(djpvbs00285.o)
 .idata$6       0x0045576e        0xc c:/mingw/bin/../lib/gcc/mingw32/6.3.0/../../..\libmsvcrt.a(djpvbs00324.o)
 .idata$6       0x0045577a        0xc c:/mingw/bin/../lib/gcc/mingw32/6.3.0/../../..\libmsvcrt.a(djpvbs00350.o)
 .idata$6       0x00455786        0x8 c:/mingw/bin/../lib/gcc/mingw32/6.3.0/../../..\libmsvcrt.a(djpvbs00417.o)
 .idata$6       0x0045578e        0xc c:/mingw/bin/../lib/gcc/mingw32/6.3.0/../../..\libmsvcrt.a(djpvbs00422.o)
 .idata$6       0x0045579a        0xa c:/mingw/bin/../lib/gcc/mingw32/6.3.0/../../..\libmsvcrt.a(djpvbs00689.o)
 .idata$6       0x004557a4        0xa c:/mingw/bin/../lib/gcc/mingw32/6.3.0/../../..\libmsvcrt.a(djpvbs00698.o)
 .idata$6       0x004557ae        0xc c:/mingw/bin/../lib/gcc/mingw32/6.3.0/../../..\libmsvcrt.a(djpvbs00753.o)
 .idata$6       0x004557ba        0x8 c:/mingw/bin/../lib/gcc/mingw32/6.3.0/../../..\libmsvcrt.a(djpvbs01083.o)
 .idata$6       0x004557c2        0xa c:/mingw/bin/../lib/gcc/mingw32/6.3.0/../../..\libmsvcrt.a(djpvbs01091.o)
 .idata$6       0x004557cc        0x8 c:/mingw/bin/../lib/gcc/mingw32/6.3.0/../../..\libmsvcrt.a(djpvbs01093.o)
 .idata$6       0x004557d4        0xa c:/mingw/bin/../lib/gcc/mingw32/6.3.0/../../..\libmsvcrt.a(djpvbs01098.o)
 .idata$6       0x004557de        0x8 c:/mingw/bin/../lib/gcc/mingw32/6.3.0/../../..\libmsvcrt.a(djpvbs01108.o)
 .idata$6       0x004557e6        0xa c:/mingw/bin/../lib/gcc/mingw32/6.3.0/../../..\libmsvcrt.a(djpvbs01111.o)
 .idata$6       0x004557f0        0xa c:/mingw/bin/../lib/gcc/mingw32/6.3.0/../../..\libmsvcrt.a(djpvbs01114.o)
 .idata$6       0x004557fa        0x8 c:/mingw/bin/../lib/gcc/mingw32/6.3.0/../../..\libmsvcrt.a(djpvbs01122.o)
 .idata$6       0x00455802        0x8 c:/mingw/bin/../lib/gcc/mingw32/6.3.0/../../..\libmsvcrt.a(djpvbs01126.o)
 .idata$6       0x0045580a        0x8 c:/mingw/bin/../lib/gcc/mingw32/6.3.0/../../..\libmsvcrt.a(djpvbs01127.o)
 .idata$6       0x00455812        0x8 c:/mingw/bin/../lib/gcc/mingw32/6.3.0/../../..\libmsvcrt.a(djpvbs01131.o)
 .idata$6       0x0045581a        0xa c:/mingw/bin/../lib/gcc/mingw32/6.3.0/../../..\libmsvcrt.a(djpvbs01142.o)
 .idata$6       0x00455824        0xa c:/mingw/bin/../lib/gcc/mingw32/6.3.0/../../..\libmsvcrt.a(djpvbs01187.o)
 .idata$6       0x0045582e        0xc c:/mingw/bin/../lib/gcc/mingw32/6.3.0/../../..\libmsvcrt.a(djpvbs01194.o)
 .idata$6       0x0045583a        0xa c:/mingw/bin/../lib/gcc/mingw32/6.3.0/../../..\libmsvcrt.a(djpvbs01198.o)
 .idata$6       0x00455844        0xa c:/mingw/bin/../lib/gcc/mingw32/6.3.0/../../..\libmsvcrt.a(djpvbs01199.o)
 .idata$6       0x0045584e        0xa c:/mingw/bin/../lib/gcc/mingw32/6.3.0/../../..\libmsvcrt.a(djpvbs01203.o)
 .idata$6       0x00455858        0xa c:/mingw/bin/../lib/gcc/mingw32/6.3.0/../../..\libmsvcrt.a(djpvbs01220.o)
 .idata$6       0x00455862        0xc c:/mingw/bin/../lib/gcc/mingw32/6.3.0/../../..\libmsvcrt.a(djpvbs01227.o)
 .idata$6       0x0045586e        0xa c:/mingw/bin/../lib/gcc/mingw32/6.3.0/../../..\libmsvcrt.a(djpvbs01229.o)
 .idata$6       0x00455878        0xa c:/mingw/bin/../lib/gcc/mingw32/6.3.0/../../..\libmsvcrt.a(djpvbs01232.o)
 .idata$6       0x00455882        0xa c:/mingw/bin/../lib/gcc/mingw32/6.3.0/../../..\libmsvcrt.a(djpvbs01238.o)
 .idata$6       0x0045588c        0xa c:/mingw/bin/../lib/gcc/mingw32/6.3.0/../../..\libmsvcrt.a(djpvbs01241.o)
 .idata$6       0x00455896        0xa c:/mingw/bin/../lib/gcc/mingw32/6.3.0/../../..\libmsvcrt.a(djpvbs01242.o)
 .idata$6       0x004558a0        0xa c:/mingw/bin/../lib/gcc/mingw32/6.3.0/../../..\libmsvcrt.a(djpvbs01243.o)
 .idata$6       0x004558aa        0xa c:/mingw/bin/../lib/gcc/mingw32/6.3.0/../../..\libmsvcrt.a(djpvbs01249.o)
 .idata$6       0x004558b4        0xa c:/mingw/bin/../lib/gcc/mingw32/6.3.0/../../..\libmsvcrt.a(djpvbs01253.o)
 .idata$6       0x004558be        0xa c:/mingw/bin/../lib/gcc/mingw32/6.3.0/../../..\libmsvcrt.a(djpvbs01277.o)
 .idata$6       0x004558c8        0xc c:/mingw/bin/../lib/gcc/mingw32/6.3.0/../../..\libmsvcrt.a(djpvbs01284.o)
 .idata$6       0x004558d4        0xc c:/mingw/bin/../lib/gcc/mingw32/6.3.0/../../..\libmsvcrt.a(djpvbs01291.o)
 .idata$6       0x004558e0        0xc c:/mingw/bin/../lib/gcc/mingw32/6.3.0/../../..\libmsvcrt.a(djpvbs01325.o)
 .idata$6       0x004558ec        0xe c:/mingw/bin/../lib/gcc/mingw32/6.3.0/../../..\libuser32.a(dtpcs00434.o)
 .idata$6       0x004558fa       0x12 c:/mingw/bin/../lib/gcc/mingw32/6.3.0/../../..\libwinmm.a(drqcs00144.o)
 .idata$6       0x0045590c       0x10 c:/mingw/bin/../lib/gcc/mingw32/6.3.0/../../..\libwinmm.a(drqcs00149.o)
 .idata$6       0x0045591c       0x10 c:/mingw/bin/../lib/gcc/mingw32/6.3.0/../../..\libwinmm.a(drqcs00150.o)
 SORT(*)(.idata$7)
 .idata$7       0x0045592c        0x4 c:/mingw/bin/../lib/gcc/mingw32/6.3.0/../../..\libkernel32.a(dujcs00082.o)
 .idata$7       0x00455930        0x4 c:/mingw/bin/../lib/gcc/mingw32/6.3.0/../../..\libkernel32.a(dujcs00129.o)
 .idata$7       0x00455934        0x4 c:/mingw/bin/../lib/gcc/mingw32/6.3.0/../../..\libkernel32.a(dujcs00136.o)
 .idata$7       0x00455938        0x4 c:/mingw/bin/../lib/gcc/mingw32/6.3.0/../../..\libkernel32.a(dujcs00154.o)
 .idata$7       0x0045593c        0x4 c:/mingw/bin/../lib/gcc/mingw32/6.3.0/../../..\libkernel32.a(dujcs00169.o)
 .idata$7       0x00455940        0x4 c:/mingw/bin/../lib/gcc/mingw32/6.3.0/../../..\libkernel32.a(dujcs00172.o)
 .idata$7       0x00455944        0x4 c:/mingw/bin/../lib/gcc/mingw32/6.3.0/../../..\libkernel32.a(dujcs00207.o)
 .idata$7       0x00455948        0x4 c:/mingw/bin/../lib/gcc/mingw32/6.3.0/../../..\libkernel32.a(dujcs00236.o)
 .idata$7       0x0045594c        0x4 c:/mingw/bin/../lib/gcc/mingw32/6.3.0/../../..\libkernel32.a(dujcs00279.o)
 .idata$7       0x00455950        0x4 c:/mingw/bin/../lib/gcc/mingw32/6.3.0/../../..\libkernel32.a(dujcs00280.o)
 .idata$7       0x00455954        0x4 c:/mingw/bin/../lib/gcc/mingw32/6.3.0/../../..\libkernel32.a(dujcs00300.o)
 .idata$7       0x00455958        0x4 c:/mingw/bin/../lib/gcc/mingw32/6.3.0/../../..\libkernel32.a(dujcs00304.o)
 .idata$7       0x0045595c        0x4 c:/mingw/bin/../lib/gcc/mingw32/6.3.0/../../..\libkernel32.a(dujcs00321.o)
 .idata$7       0x00455960        0x4 c:/mingw/bin/../lib/gcc/mingw32/6.3.0/../../..\libkernel32.a(dujcs00347.o)
 .idata$7       0x00455964        0x4 c:/mingw/bin/../lib/gcc/mingw32/6.3.0/../../..\libkernel32.a(dujcs00352.o)
 .idata$7       0x00455968        0x4 c:/mingw/bin/../lib/gcc/mingw32/6.3.0/../../..\libkernel32.a(dujcs00388.o)
 .idata$7       0x0045596c        0x4 c:/mingw/bin/../lib/gcc/mingw32/6.3.0/../../..\libkernel32.a(dujcs00446.o)
 .idata$7       0x00455970        0x4 c:/mingw/bin/../lib/gcc/mingw32/6.3.0/../../..\libkernel32.a(dujcs00451.o)
 .idata$7       0x00455974        0x4 c:/mingw/bin/../lib/gcc/mingw32/6.3.0/../../..\libkernel32.a(dujcs00473.o)
 .idata$7       0x00455978        0x4 c:/mingw/bin/../lib/gcc/mingw32/6.3.0/../../..\libkernel32.a(dujcs00510.o)
 .idata$7       0x0045597c        0x4 c:/mingw/bin/../lib/gcc/mingw32/6.3.0/../../..\libkernel32.a(dujcs00529.o)
 .idata$7       0x00455980        0x4 c:/mingw/bin/../lib/gcc/mingw32/6.3.0/../../..\libkernel32.a(dujcs00577.o)
 .idata$7       0x00455984        0x4 c:/mingw/bin/../lib/gcc/mingw32/6.3.0/../../..\libkernel32.a(dujcs00734.o)
 .idata$7       0x00455988        0x4 c:/mingw/bin/../lib/gcc/mingw32/6.3.0/../../..\libkernel32.a(dujcs00743.o)
 .idata$7       0x0045598c        0x4 c:/mingw/bin/../lib/gcc/mingw32/6.3.0/../../..\libkernel32.a(dujcs00747.o)
 .idata$7       0x00455990        0x4 c:/mingw/bin/../lib/gcc/mingw32/6.3.0/../../..\libkernel32.a(dujcs00814.o)
 .idata$7       0x00455994        0x4 c:/mingw/bin/../lib/gcc/mingw32/6.3.0/../../..\libkernel32.a(dujcs00817.o)
 .idata$7       0x00455998        0x4 c:/mingw/bin/../lib/gcc/mingw32/6.3.0/../../..\libkernel32.a(dujcs00844.o)
 .idata$7       0x0045599c        0x4 c:/mingw/bin/../lib/gcc/mingw32/6.3.0/../../..\libkernel32.a(dujcs00922.o)
 .idata$7       0x004559a0        0x4 c:/mingw/bin/../lib/gcc/mingw32/6.3.0/../../..\libkernel32.a(dujcs00923.o)
 .idata$7       0x004559a4        0x4 c:/mingw/bin/../lib/gcc/mingw32/6.3.0/../../..\libkernel32.a(dujcs00974.o)
 .idata$7       0x004559a8        0x4 c:/mingw/bin/../lib/gcc/mingw32/6.3.0/../../..\libkernel32.a(dujcs00978.o)
 .idata$7       0x004559ac        0x4 c:/mingw/bin/../lib/gcc/mingw32/6.3.0/../../..\libkernel32.a(dujcs01065.o)
 .idata$7       0x004559b0        0x4 c:/mingw/bin/../lib/gcc/mingw32/6.3.0/../../..\libkernel32.a(dujcs01091.o)
 .idata$7       0x004559b4        0x4 c:/mingw/bin/../lib/gcc/mingw32/6.3.0/../../..\libkernel32.a(dujcs01140.o)
 .idata$7       0x004559b8        0x4 c:/mingw/bin/../lib/gcc/mingw32/6.3.0/../../..\libkernel32.a(dujcs01152.o)
 .idata$7       0x004559bc        0x4 c:/mingw/bin/../lib/gcc/mingw32/6.3.0/../../..\libkernel32.a(dujcs01162.o)
 .idata$7       0x004559c0        0x4 c:/mingw/bin/../lib/gcc/mingw32/6.3.0/../../..\libkernel32.a(dujcs01166.o)
 .idata$7       0x004559c4        0x4 c:/mingw/bin/../lib/gcc/mingw32/6.3.0/../../..\libkernel32.a(dujcs01171.o)
 .idata$7       0x004559c8        0x4 c:/mingw/bin/../lib/gcc/mingw32/6.3.0/../../..\libkernel32.a(dujcs01172.o)
 .idata$7       0x004559cc        0x4 c:/mingw/bin/../lib/gcc/mingw32/6.3.0/../../..\libkernel32.a(dujcs01173.o)
 .idata$7       0x004559d0        0x4 c:/mingw/bin/../lib/gcc/mingw32/6.3.0/../../..\libkernel32.a(dujcs01174.o)
 .idata$7       0x004559d4        0x4 c:/mingw/bin/../lib/gcc/mingw32/6.3.0/../../..\libkernel32.a(dujcs01213.o)
 .idata$7       0x004559d8        0x4 c:/mingw/bin/../lib/gcc/mingw32/6.3.0/../../..\libkernel32.a(dujcs01215.o)
 .idata$7       0x004559dc        0x4 c:/mingw/bin/../lib/gcc/mingw32/6.3.0/../../..\libkernel32.a(dujcs01223.o)
 .idata$7       0x004559e0       0x10 c:/mingw/bin/../lib/gcc/mingw32/6.3.0/../../..\libkernel32.a(dujct.o)
                0x004559e0                _libkernel32_a_iname
 .idata$7       0x004559f0        0x4 c:/mingw/bin/../lib/gcc/mingw32/6.3.0/../../..\libmoldname.a(dagwbs00080.o)
 .idata$7       0x004559f4        0x4 c:/mingw/bin/../lib/gcc/mingw32/6.3.0/../../..\libmoldname.a(dagwbs00082.o)
 .idata$7       0x004559f8        0x4 c:/mingw/bin/../lib/gcc/mingw32/6.3.0/../../..\libmoldname.a(dagwbs00109.o)
 .idata$7       0x004559fc        0xc c:/mingw/bin/../lib/gcc/mingw32/6.3.0/../../..\libmoldname.a(dagwbt.o)
                0x004559fc                _libmoldname_a_iname
 .idata$7       0x00455a08        0x4 c:/mingw/bin/../lib/gcc/mingw32/6.3.0/../../..\libmsvcrt.a(djpvbs00088.o)
 .idata$7       0x00455a0c        0x4 c:/mingw/bin/../lib/gcc/mingw32/6.3.0/../../..\libmsvcrt.a(djpvbs00119.o)
 .idata$7       0x00455a10        0x4 c:/mingw/bin/../lib/gcc/mingw32/6.3.0/../../..\libmsvcrt.a(djpvbs00131.o)
 .idata$7       0x00455a14        0x4 c:/mingw/bin/../lib/gcc/mingw32/6.3.0/../../..\libmsvcrt.a(djpvbs00133.o)
 .idata$7       0x00455a18        0x4 c:/mingw/bin/../lib/gcc/mingw32/6.3.0/../../..\libmsvcrt.a(djpvbs00153.o)
 .idata$7       0x00455a1c        0x4 c:/mingw/bin/../lib/gcc/mingw32/6.3.0/../../..\libmsvcrt.a(djpvbs00219.o)
 .idata$7       0x00455a20        0x4 c:/mingw/bin/../lib/gcc/mingw32/6.3.0/../../..\libmsvcrt.a(djpvbs00285.o)
 .idata$7       0x00455a24        0x4 c:/mingw/bin/../lib/gcc/mingw32/6.3.0/../../..\libmsvcrt.a(djpvbs00324.o)
 .idata$7       0x00455a28        0x4 c:/mingw/bin/../lib/gcc/mingw32/6.3.0/../../..\libmsvcrt.a(djpvbs00350.o)
 .idata$7       0x00455a2c        0x4 c:/mingw/bin/../lib/gcc/mingw32/6.3.0/../../..\libmsvcrt.a(djpvbs00417.o)
 .idata$7       0x00455a30        0x4 c:/mingw/bin/../lib/gcc/mingw32/6.3.0/../../..\libmsvcrt.a(djpvbs00422.o)
 .idata$7       0x00455a34        0x4 c:/mingw/bin/../lib/gcc/mingw32/6.3.0/../../..\libmsvcrt.a(djpvbs00689.o)
 .idata$7       0x00455a38        0x4 c:/mingw/bin/../lib/gcc/mingw32/6.3.0/../../..\libmsvcrt.a(djpvbs00698.o)
 .idata$7       0x00455a3c        0x4 c:/mingw/bin/../lib/gcc/mingw32/6.3.0/../../..\libmsvcrt.a(djpvbs00753.o)
 .idata$7       0x00455a40        0x4 c:/mingw/bin/../lib/gcc/mingw32/6.3.0/../../..\libmsvcrt.a(djpvbs01083.o)
 .idata$7       0x00455a44        0x4 c:/mingw/bin/../lib/gcc/mingw32/6.3.0/../../..\libmsvcrt.a(djpvbs01091.o)
 .idata$7       0x00455a48        0x4 c:/mingw/bin/../lib/gcc/mingw32/6.3.0/../../..\libmsvcrt.a(djpvbs01093.o)
 .idata$7       0x00455a4c        0x4 c:/mingw/bin/../lib/gcc/mingw32/6.3.0/../../..\libmsvcrt.a(djpvbs01098.o)
 .idata$7       0x00455a50        0x4 c:/mingw/bin/../lib/gcc/mingw32/6.3.0/../../..\libmsvcrt.a(djpvbs01108.o)
 .idata$7       0x00455a54        0x4 c:/mingw/bin/../lib/gcc/mingw32/6.3.0/../../..\libmsvcrt.a(djpvbs01111.o)
 .idata$7       0x00455a58        0x4 c:/mingw/bin/../lib/gcc/mingw32/6.3.0/../../..\libmsvcrt.a(djpvbs01114.o)
 .idata$7       0x00455a5c        0x4 c:/mingw/bin/../lib/gcc/mingw32/6.3.0/../../..\libmsvcrt.a(djpvbs01122.o)
 .idata$7       0x00455a60        0x4 c:/mingw/bin/../lib/gcc/mingw32/6.3.0/../../..\libmsvcrt.a(djpvbs01126.o)
 .idata$7       0x00455a64        0x4 c:/mingw/bin/../lib/gcc/mingw32/6.3.0/../../..\libmsvcrt.a(djpvbs01127.o)
 .idata$7       0x00455a68        0x4 c:/mingw/bin/../lib/gcc/mingw32/6.3.0/../../..\libmsvcrt.a(djpvbs01131.o)
 .idata$7       0x00455a6c        0x4 c:/mingw/bin/../lib/gcc/mingw32/6.3.0/../../..\libmsvcrt.a(djpvbs01142.o)
 .idata$7       0x00455a70        0x4 c:/mingw/bin/../lib/gcc/mingw32/6.3.0/../../..\libmsvcrt.a(djpvbs01187.o)
 .idata$7       0x00455a74        0x4 c:/mingw/bin/../lib/gcc/mingw32/6.3.0/../../..\libmsvcrt.a(djpvbs01194.o)
 .idata$7       0x00455a78        0x4 c:/mingw/bin/../lib/gcc/mingw32/6.3.0/../../..\libmsvcrt.a(djpvbs01198.o)
 .idata$7       0x00455a7c        0x4 c:/mingw/bin/../lib/gcc/mingw32/6.3.0/../../..\libmsvcrt.a(djpvbs01199.o)
 .idata$7       0x00455a80        0x4 c:/mingw/bin/../lib/gcc/mingw32/6.3.0/../../..\libmsvcrt.a(djpvbs01203.o)
 .idata$7       0x00455a84        0x4 c:/mingw/bin/../lib/gcc/mingw32/6.3.0/../../..\libmsvcrt.a(djpvbs01220.o)
 .idata$7       0x00455a88        0x4 c:/mingw/bin/../lib/gcc/mingw32/6.3.0/../../..\libmsvcrt.a(djpvbs01227.o)
 .idata$7       0x00455a8c        0x4 c:/mingw/bin/../lib/gcc/mingw32/6.3.0/../../..\libmsvcrt.a(djpvbs01229.o)
 .idata$7       0x00455a90        0x4 c:/mingw/bin/../lib/gcc/mingw32/6.3.0/../../..\libmsvcrt.a(djpvbs01232.o)
 .idata$7       0x00455a94        0x4 c:/mingw/bin/../lib/gcc/mingw32/6.3.0/../../..\libmsvcrt.a(djpvbs01238.o)
 .idata$7       0x00455a98        0x4 c:/mingw/bin/../lib/gcc/mingw32/6.3.0/../../..\libmsvcrt.a(djpvbs01241.o)
 .idata$7       0x00455a9c        0x4 c:/mingw/bin/../lib/gcc/mingw32/6.3.0/../../..\libmsvcrt.a(djpvbs01242.o)
 .idata$7       0x00455aa0        0x4 c:/mingw/bin/../lib/gcc/mingw32/6.3.0/../../..\libmsvcrt.a(djpvbs01243.o)
 .idata$7       0x00455aa4        0x4 c:/mingw/bin/../lib/gcc/mingw32/6.3.0/../../..\libmsvcrt.a(djpvbs01249.o)
 .idata$7       0x00455aa8        0x4 c:/mingw/bin/../lib/gcc/mingw32/6.3.0/../../..\libmsvcrt.a(djpvbs01253.o)
 .idata$7       0x00455aac        0x4 c:/mingw/bin/../lib/gcc/mingw32/6.3.0/../../..\libmsvcrt.a(djpvbs01277.o)
 .idata$7       0x00455ab0        0x4 c:/mingw/bin/../lib/gcc/mingw32/6.3.0/../../..\libmsvcrt.a(djpvbs01284.o)
 .idata$7       0x00455ab4        0x4 c:/mingw/bin/../lib/gcc/mingw32/6.3.0/../../..\libmsvcrt.a(djpvbs01291.o)
 .idata$7       0x00455ab8        0x4 c:/mingw/bin/../lib/gcc/mingw32/6.3.0/../../..\libmsvcrt.a(djpvbs01325.o)
 .idata$7       0x00455abc        0xc c:/mingw/bin/../lib/gcc/mingw32/6.3.0/../../..\libmsvcrt.a(djpvbt.o)
                0x00455abc                _libmsvcrt_a_iname
 .idata$7       0x00455ac8        0x4 c:/mingw/bin/../lib/gcc/mingw32/6.3.0/../../..\libuser32.a(dtpcs00434.o)
 .idata$7       0x00455acc        0xc c:/mingw/bin/../lib/gcc/mingw32/6.3.0/../../..\libuser32.a(dtpct.o)
                0x00455acc                _libuser32_a_iname
 .idata$7       0x00455ad8        0x4 c:/mingw/bin/../lib/gcc/mingw32/6.3.0/../../..\libwinmm.a(drqcs00144.o)
 .idata$7       0x00455adc        0x4 c:/mingw/bin/../lib/gcc/mingw32/6.3.0/../../..\libwinmm.a(drqcs00149.o)
 .idata$7       0x00455ae0        0x4 c:/mingw/bin/../lib/gcc/mingw32/6.3.0/../../..\libwinmm.a(drqcs00150.o)
 .idata$7       0x00455ae4        0xc c:/mingw/bin/../lib/gcc/mingw32/6.3.0/../../..\libwinmm.a(drqct.o)
                0x00455ae4                _libwinmm_a_iname

.CRT            0x00456000      0x200
                0x00456000                ___crt_xc_start__ = .
 *(SORT(.CRT$XC*))
                0x00456000                ___crt_xc_end__ = .
                0x00456000                ___crt_xi_start__ = .
 *(SORT(.CRT$XI*))
                0x00456000                ___crt_xi_end__ = .
                0x00456000                ___crt_xl_start__ = .
 *(SORT(.CRT$XL*))
 .CRT$XLA       0x00456000        0x4 c:/mingw/bin/../lib/gcc/mingw32/6.3.0/../../..\libmingw32.a(tlssup.o)
                0x00456000                __xl_a
 .CRT$XLC       0x00456004        0x4 c:/mingw/bin/../lib/gcc/mingw32/6.3.0/../../..\libmingw32.a(tlssup.o)
                0x00456004                __xl_c
 .CRT$XLD       0x00456008        0x4 c:/mingw/bin/../lib/gcc/mingw32/6.3.0/../../..\libmingw32.a(tlssup.o)
                0x00456008                __xl_d
 .CRT$XLZ       0x0045600c        0x4 c:/mingw/bin/../lib/gcc/mingw32/6.3.0/../../..\libmingw32.a(tlssup.o)
                0x0045600c                __xl_z
                0x00456010                ___crt_xp_start__ = .
 *(SORT(.CRT$XP*))
                0x00456010                ___crt_xp_end__ = .
                0x00456010                ___crt_xt_start__ = .
 *(SORT(.CRT$XT*))
                0x00456010                ___crt_xt_end__ = .
 .CRT$XDA       0x00456010        0x4 c:/mingw/bin/../lib/gcc/mingw32/6.3.0/../../..\libmingw32.a(tlssup.o)
 .CRT$XDZ       0x00456014        0x4 c:/mingw/bin/../lib/gcc/mingw32/6.3.0/../../..\libmingw32.a(tlssup.o)

.tls            0x00457000      0x200
                0x00457000                ___tls_start__ = .
 *(.tls$AAA)
 .tls$AAA       0x00457000        0x4 c:/mingw/bin/../lib/gcc/mingw32/6.3.0/../../..\libmingw32.a(tlssup.o)
                0x00457000                _tls_start
 *(.tls)
 .tls           0x00457004       0x18 c:/mingw/bin/../lib/gcc/mingw32/6.3.0/../../..\libmingw32.a(tlssup.o)
                0x00457004                _tls_used
 *(.tls$)
 *(SORT(.tls$*))
 .tls$ZZZ       0x0045701c        0x4 c:/mingw/bin/../lib/gcc/mingw32/6.3.0/../../..\libmingw32.a(tlssup.o)
                0x0045701c                _tls_end
 *(.tls$ZZZ)
                0x00457020                ___tls_end__ = .

.endjunk        0x00458000        0x0
                [!provide]                PROVIDE (end, .)
                [!provide]                PROVIDE (_end, .)
                0x00458000                __end__ = .

.rsrc
 *(.rsrc)
 *(.rsrc$*)

.reloc
 *(.reloc)

.stab
 *(.stab)

.stabstr
 *(.stabstr)

.debug_aranges  0x00458000     0x1400
 *(.debug_aranges)
 .debug_aranges
                0x00458000       0x20 CMakeFiles\Basic_workflow.dir/objects.a(unity_4_c.c.obj)
 .debug_aranges
                0x00458020       0x20 CMakeFiles\Basic_workflow.dir/objects.a(unity_3_c.c.obj)
 .debug_aranges
                0x00458040       0x20 CMakeFiles\Basic_workflow.dir/objects.a(unity_2_c.c.obj)
 .debug_aranges
                0x00458060       0x20 CMakeFiles\Basic_workflow.dir/objects.a(unity_1_c.c.obj)
 .debug_aranges
                0x00458080       0x20 CMakeFiles\Basic_workflow.dir/objects.a(unity_0_c.c.obj)
 .debug_aranges
                0x004580a0       0x20 CMakeFiles\Basic_workflow.dir/objects.a(MySWC.c.obj)
 .debug_aranges
                0x004580c0       0x20 CMakeFiles\Basic_workflow.dir/objects.a(Det.c.obj)
 .debug_aranges
                0x004580e0       0x18 CMakeFiles\Basic_workflow.dir/objects.a(EcuM_Cfg.c.obj)
 .debug_aranges
                0x004580f8       0x20 CMakeFiles\Basic_workflow.dir/objects.a(EcuM_Cfg_PbExt.c.obj)
 .debug_aranges
                0x00458118       0x20 CMakeFiles\Basic_workflow.dir/objects.a(EcuM_Cfg_RbMo.c.obj)
 .debug_aranges
                0x00458138       0x20 CMakeFiles\Basic_workflow.dir/objects.a(EcuM_Cfg_Sleep.c.obj)
 .debug_aranges
                0x00458158       0x20 CMakeFiles\Basic_workflow.dir/objects.a(EcuM_Cfg_Startup.c.obj)
 .debug_aranges
                0x00458178       0x20 CMakeFiles\Basic_workflow.dir/objects.a(EcuM_Cfg_SynchPoint.c.obj)
 .debug_aranges
                0x00458198       0x18 CMakeFiles\Basic_workflow.dir/objects.a(EcuM_Lcfg.c.obj)
 .debug_aranges
                0x004581b0       0x18 CMakeFiles\Basic_workflow.dir/objects.a(EcuM_PBcfg.c.obj)
 .debug_aranges
                0x004581c8       0x20 CMakeFiles\Basic_workflow.dir/objects.a(EcuM_Callout_Stubs.c.obj)
 .debug_aranges
                0x004581e8       0x20 CMakeFiles\Basic_workflow.dir/objects.a(EcuM_BootTarget.c.obj)
 .debug_aranges
                0x00458208       0x18 CMakeFiles\Basic_workflow.dir/objects.a(EcuM_CurrentState.c.obj)
 .debug_aranges
                0x00458220       0x18 CMakeFiles\Basic_workflow.dir/objects.a(EcuM_KillAllRequests.c.obj)
 .debug_aranges
                0x00458238       0x20 CMakeFiles\Basic_workflow.dir/objects.a(EcuM_MainFunction.c.obj)
 .debug_aranges
                0x00458258       0x18 CMakeFiles\Basic_workflow.dir/objects.a(EcuM_Misc.c.obj)
 .debug_aranges
                0x00458270       0x20 CMakeFiles\Basic_workflow.dir/objects.a(EcuM_Prv.c.obj)
 .debug_aranges
                0x00458290       0x18 CMakeFiles\Basic_workflow.dir/objects.a(EcuM_Prv_RteActions.c.obj)
 .debug_aranges
                0x004582a8       0x18 CMakeFiles\Basic_workflow.dir/objects.a(EcuM_ReleasePOST_RUN.c.obj)
 .debug_aranges
                0x004582c0       0x18 CMakeFiles\Basic_workflow.dir/objects.a(EcuM_ReleaseRUN.c.obj)
 .debug_aranges
                0x004582d8       0x18 CMakeFiles\Basic_workflow.dir/objects.a(EcuM_RequestPOST_RUN.c.obj)
 .debug_aranges
                0x004582f0       0x18 CMakeFiles\Basic_workflow.dir/objects.a(EcuM_RequestRUN.c.obj)
 .debug_aranges
                0x00458308       0x18 CMakeFiles\Basic_workflow.dir/objects.a(EcuM_SetState.c.obj)
 .debug_aranges
                0x00458320       0x20 CMakeFiles\Basic_workflow.dir/objects.a(EcuM_Shutdown.c.obj)
 .debug_aranges
                0x00458340       0x20 CMakeFiles\Basic_workflow.dir/objects.a(EcuM_ShutdownServices.c.obj)
 .debug_aranges
                0x00458360       0x18 CMakeFiles\Basic_workflow.dir/objects.a(EcuM_Sleep.c.obj)
 .debug_aranges
                0x00458378       0x20 CMakeFiles\Basic_workflow.dir/objects.a(EcuM_Startup.c.obj)
 .debug_aranges
                0x00458398       0x20 CMakeFiles\Basic_workflow.dir/objects.a(EcuM_WakeupServices.c.obj)
 .debug_aranges
                0x004583b8       0x20 CMakeFiles\Basic_workflow.dir/objects.a(Rte.c.obj)
 .debug_aranges
                0x004583d8       0x20 CMakeFiles\Basic_workflow.dir/objects.a(Rte_Lib.c.obj)
 .debug_aranges
                0x004583f8      0x2e0 CMakeFiles\Basic_workflow.dir/objects.a(Can_Device.cpp.obj)
 .debug_aranges
                0x004586d8       0x20 CMakeFiles\Basic_workflow.dir/objects.a(Can_HwProvider.cpp.obj)
 .debug_aranges
                0x004586f8       0x68 CMakeFiles\Basic_workflow.dir/objects.a(Can_Implementation.cpp.obj)
 .debug_aranges
                0x00458760       0xc0 CMakeFiles\Basic_workflow.dir/objects.a(Mcu_Device.cpp.obj)
 .debug_aranges
                0x00458820       0x20 CMakeFiles\Basic_workflow.dir/objects.a(Mcu_Implementation.cpp.obj)
 .debug_aranges
                0x00458840      0x2b0 CMakeFiles\Basic_workflow.dir/objects.a(VirtualCan.cpp.obj)
 .debug_aranges
                0x00458af0       0x40 CMakeFiles\Basic_workflow.dir/objects.a(VRTA_SystemClock.cpp.obj)
 .debug_aranges
                0x00458b30       0x20 CMakeFiles\Basic_workflow.dir/objects.a(Vrta_Cfg.cpp.obj)
 .debug_aranges
                0x00458b50       0x20 CMakeFiles\Basic_workflow.dir/objects.a(target.cpp.obj)
 .debug_aranges
                0x00458b70       0x20 C:/ETAS/RTA-CAR_12.2.0/RTA-CAR/workspace/Basic_Workflow/build/../src/os\RTAOS.lib(TerminateTask.o)
 .debug_aranges
                0x00458b90       0x20 C:/ETAS/RTA-CAR_12.2.0/RTA-CAR/workspace/Basic_Workflow/build/../src/os\RTAOS.lib(Os_SetJmp.o)
 .debug_aranges
                0x00458bb0       0x20 C:/ETAS/RTA-CAR_12.2.0/RTA-CAR/workspace/Basic_Workflow/build/../src/os\RTAOS.lib(GetTaskID.o)
 .debug_aranges
                0x00458bd0       0x20 C:/ETAS/RTA-CAR_12.2.0/RTA-CAR/workspace/Basic_Workflow/build/../src/os\RTAOS.lib(SuspendOSInterrupts.o)
 .debug_aranges
                0x00458bf0       0x20 C:/ETAS/RTA-CAR_12.2.0/RTA-CAR/workspace/Basic_Workflow/build/../src/os\RTAOS.lib(Os_Cfg_Counters.o)
 .debug_aranges
                0x00458c10       0x20 C:/ETAS/RTA-CAR_12.2.0/RTA-CAR/workspace/Basic_Workflow/build/../src/os\RTAOS.lib(SuspendAllInterrupts.o)
 .debug_aranges
                0x00458c30       0x20 C:/ETAS/RTA-CAR_12.2.0/RTA-CAR/workspace/Basic_Workflow/build/../src/os\RTAOS.lib(Os_Cfg.o)
 .debug_aranges
                0x00458c50       0x20 C:/ETAS/RTA-CAR_12.2.0/RTA-CAR/workspace/Basic_Workflow/build/../src/os\RTAOS.lib(StopScheduleTable.o)
 .debug_aranges
                0x00458c70       0x20 C:/ETAS/RTA-CAR_12.2.0/RTA-CAR/workspace/Basic_Workflow/build/../src/os\RTAOS.lib(ResumeOSInterrupts.o)
 .debug_aranges
                0x00458c90       0x48 C:/ETAS/RTA-CAR_12.2.0/RTA-CAR/workspace/Basic_Workflow/build/../src/os\RTAOS.lib(vrtaSystemClock.o)
 .debug_aranges
                0x00458cd8       0x20 C:/ETAS/RTA-CAR_12.2.0/RTA-CAR/workspace/Basic_Workflow/build/../src/os\RTAOS.lib(StartScheduleTableRel.o)
 .debug_aranges
                0x00458cf8       0x20 C:/ETAS/RTA-CAR_12.2.0/RTA-CAR/workspace/Basic_Workflow/build/../src/os\RTAOS.lib(ResumeAllInterrupts.o)
 .debug_aranges
                0x00458d18       0x20 C:/ETAS/RTA-CAR_12.2.0/RTA-CAR/workspace/Basic_Workflow/build/../src/os\RTAOS.lib(GetResource.o)
 .debug_aranges
                0x00458d38      0x110 C:/ETAS/RTA-CAR_12.2.0/RTA-CAR/workspace/Basic_Workflow/build/../src/os\RTAOS.lib(vrtaSampleDevices.o)
 .debug_aranges
                0x00458e48       0x20 C:/ETAS/RTA-CAR_12.2.0/RTA-CAR/workspace/Basic_Workflow/build/../src/os\RTAOS.lib(StartOS.o)
 .debug_aranges
                0x00458e68       0x20 C:/ETAS/RTA-CAR_12.2.0/RTA-CAR/workspace/Basic_Workflow/build/../src/os\RTAOS.lib(ShutdownOS.o)
 .debug_aranges
                0x00458e88       0x28 C:/ETAS/RTA-CAR_12.2.0/RTA-CAR/workspace/Basic_Workflow/build/../src/os\RTAOS.lib(vrtaPrintf.o)
 .debug_aranges
                0x00458eb0       0x20 C:/ETAS/RTA-CAR_12.2.0/RTA-CAR/workspace/Basic_Workflow/build/../src/os\RTAOS.lib(ActivateTask.o)
 .debug_aranges
                0x00458ed0       0x20 C:/ETAS/RTA-CAR_12.2.0/RTA-CAR/workspace/Basic_Workflow/build/../src/os\RTAOS.lib(ReleaseResource.o)
 .debug_aranges
                0x00458ef0       0x20 C:/ETAS/RTA-CAR_12.2.0/RTA-CAR/workspace/Basic_Workflow/build/../src/os\RTAOS.lib(GetISRID.o)
 .debug_aranges
                0x00458f10       0x20 C:/ETAS/RTA-CAR_12.2.0/RTA-CAR/workspace/Basic_Workflow/build/../src/os\RTAOS.lib(vrtaLoggerDevice.o)
 .debug_aranges
                0x00458f30       0x20 C:/ETAS/RTA-CAR_12.2.0/RTA-CAR/workspace/Basic_Workflow/build/../src/os\RTAOS.lib(vrtaIdleHandling.o)
 .debug_aranges
                0x00458f50       0x20 C:/ETAS/RTA-CAR_12.2.0/RTA-CAR/workspace/Basic_Workflow/build/../src/os\RTAOS.lib(DispatchTask.o)
 .debug_aranges
                0x00458f70       0x40 C:/ETAS/RTA-CAR_12.2.0/RTA-CAR/workspace/Basic_Workflow/build/../src/os\RTAOS.lib(vrtaCore.o)
 .debug_aranges
                0x00458fb0       0x28 C:/ETAS/RTA-CAR_12.2.0/RTA-CAR/workspace/Basic_Workflow/build/../src/os\RTAOS.lib(vrtaAppMain.o)
 .debug_aranges
                0x00458fd8       0x60 C:/ETAS/RTA-CAR_12.2.0/RTA-CAR/workspace/Basic_Workflow/build/../src/os\RTAOS.lib(virtualDevice.o)
 .debug_aranges
                0x00459038       0x18 C:/ETAS/RTA-CAR_12.2.0/RTA-CAR/workspace/Basic_Workflow/build/../src/os\RTAOS.lib(Os_vectors.o)
 .debug_aranges
                0x00459050       0x20 C:/ETAS/RTA-CAR_12.2.0/RTA-CAR/workspace/Basic_Workflow/build/../src/os\RTAOS.lib(Os_Stack.o)
 .debug_aranges
                0x00459070       0x20 C:/ETAS/RTA-CAR_12.2.0/RTA-CAR/workspace/Basic_Workflow/build/../src/os\RTAOS.lib(Os_Cfg_KL.o)
 .debug_aranges
                0x00459090       0x20 C:/ETAS/RTA-CAR_12.2.0/RTA-CAR/workspace/Basic_Workflow/build/../src/os\RTAOS.lib(Os_fsb.o)
 .debug_aranges
                0x004590b0       0x20 C:/ETAS/RTA-CAR_12.2.0/RTA-CAR/workspace/Basic_Workflow/build/../src/os\RTAOS.lib(GetStackValue.o)
 .debug_aranges
                0x004590d0      0x128 C:/ETAS/RTA-CAR_12.2.0/RTA-CAR/workspace/Basic_Workflow/build/../src/os\RTAOS.lib(vrtaSystemClockDevice.o)
 .debug_aranges
                0x004591f8       0x20 C:/ETAS/RTA-CAR_12.2.0/RTA-CAR/workspace/Basic_Workflow/build/../src/os\RTAOS.lib(InShutdown.o)
 .debug_aranges
                0x00459218      0x100 C:/ETAS/RTA-CAR_12.2.0/RTA-CAR/workspace/Basic_Workflow/build/../src/os\RTAOS.lib(vrtaOSMonitorDevice.o)
 .debug_aranges
                0x00459318       0x20 C:/ETAS/RTA-CAR_12.2.0/RTA-CAR/workspace/Basic_Workflow/build/../src/os\RTAOS.lib(Os_wrapper.o)
 .debug_aranges
                0x00459338       0x20 c:/mingw/bin/../lib/gcc/mingw32/6.3.0\libgcc.a(_chkstk_ms.o)
 .debug_aranges
                0x00459358       0x18 c:/mingw/bin/../lib/gcc/mingw32/6.3.0\libgcc.a(_ctors.o)
 .debug_aranges
                0x00459370       0x20 c:/mingw/bin/../lib/gcc/mingw32/6.3.0\libgcc.a(_divdi3.o)
 .debug_aranges
                0x00459390       0x20 c:/mingw/bin/../lib/gcc/mingw32/6.3.0\libgcc.a(gthr-win32.o)
 .debug_aranges
                0x004593b0       0x20 c:/mingw/bin/../lib/gcc/mingw32/6.3.0\libgcc_eh.a(unwind-dw2.o)
 .debug_aranges
                0x004593d0       0x20 c:/mingw/bin/../lib/gcc/mingw32/6.3.0\libgcc_eh.a(unwind-dw2-fde.o)

.zdebug_aranges
 *(.zdebug_aranges)

.debug_pubnames
 *(.debug_pubnames)

.zdebug_pubnames
 *(.zdebug_pubnames)

.debug_pubtypes
 *(.debug_pubtypes)

.zdebug_pubtypes
 *(.zdebug_pubtypes)

.debug_info     0x0045a000    0xe2c00
 *(.debug_info .gnu.linkonce.wi.*)
 .debug_info    0x0045a000     0x5bb0 CMakeFiles\Basic_workflow.dir/objects.a(unity_4_c.c.obj)
 .debug_info    0x0045fbb0     0x647f CMakeFiles\Basic_workflow.dir/objects.a(unity_3_c.c.obj)
 .debug_info    0x0046602f     0x76b4 CMakeFiles\Basic_workflow.dir/objects.a(unity_2_c.c.obj)
 .debug_info    0x0046d6e3     0x6f00 CMakeFiles\Basic_workflow.dir/objects.a(unity_1_c.c.obj)
 .debug_info    0x004745e3     0x74d3 CMakeFiles\Basic_workflow.dir/objects.a(unity_0_c.c.obj)
 .debug_info    0x0047bab6     0x4019 CMakeFiles\Basic_workflow.dir/objects.a(MySWC.c.obj)
 .debug_info    0x0047facf     0x11f7 CMakeFiles\Basic_workflow.dir/objects.a(Det.c.obj)
 .debug_info    0x00480cc6     0x11ff CMakeFiles\Basic_workflow.dir/objects.a(EcuM_Cfg.c.obj)
 .debug_info    0x00481ec5       0xc7 CMakeFiles\Basic_workflow.dir/objects.a(EcuM_Cfg_PbExt.c.obj)
 .debug_info    0x00481f8c       0xbe CMakeFiles\Basic_workflow.dir/objects.a(EcuM_Cfg_RbMo.c.obj)
 .debug_info    0x0048204a       0xe7 CMakeFiles\Basic_workflow.dir/objects.a(EcuM_Cfg_Sleep.c.obj)
 .debug_info    0x00482131     0x47ad CMakeFiles\Basic_workflow.dir/objects.a(EcuM_Cfg_Startup.c.obj)
 .debug_info    0x004868de       0xc2 CMakeFiles\Basic_workflow.dir/objects.a(EcuM_Cfg_SynchPoint.c.obj)
 .debug_info    0x004869a0     0x11d6 CMakeFiles\Basic_workflow.dir/objects.a(EcuM_Lcfg.c.obj)
 .debug_info    0x00487b76     0x435b CMakeFiles\Basic_workflow.dir/objects.a(EcuM_PBcfg.c.obj)
 .debug_info    0x0048bed1     0x49d7 CMakeFiles\Basic_workflow.dir/objects.a(EcuM_Callout_Stubs.c.obj)
 .debug_info    0x004908a8     0x4810 CMakeFiles\Basic_workflow.dir/objects.a(EcuM_BootTarget.c.obj)
 .debug_info    0x004950b8     0x11d5 CMakeFiles\Basic_workflow.dir/objects.a(EcuM_CurrentState.c.obj)
 .debug_info    0x0049628d     0x11d8 CMakeFiles\Basic_workflow.dir/objects.a(EcuM_KillAllRequests.c.obj)
 .debug_info    0x00497465     0x494a CMakeFiles\Basic_workflow.dir/objects.a(EcuM_MainFunction.c.obj)
 .debug_info    0x0049bdaf     0x4742 CMakeFiles\Basic_workflow.dir/objects.a(EcuM_Misc.c.obj)
 .debug_info    0x004a04f1     0x4b4f CMakeFiles\Basic_workflow.dir/objects.a(EcuM_Prv.c.obj)
 .debug_info    0x004a5040     0x1219 CMakeFiles\Basic_workflow.dir/objects.a(EcuM_Prv_RteActions.c.obj)
 .debug_info    0x004a6259     0x11d8 CMakeFiles\Basic_workflow.dir/objects.a(EcuM_ReleasePOST_RUN.c.obj)
 .debug_info    0x004a7431     0x11d3 CMakeFiles\Basic_workflow.dir/objects.a(EcuM_ReleaseRUN.c.obj)
 .debug_info    0x004a8604     0x11d8 CMakeFiles\Basic_workflow.dir/objects.a(EcuM_RequestPOST_RUN.c.obj)
 .debug_info    0x004a97dc     0x11d3 CMakeFiles\Basic_workflow.dir/objects.a(EcuM_RequestRUN.c.obj)
 .debug_info    0x004aa9af     0x11d1 CMakeFiles\Basic_workflow.dir/objects.a(EcuM_SetState.c.obj)
 .debug_info    0x004abb80     0x484b CMakeFiles\Basic_workflow.dir/objects.a(EcuM_Shutdown.c.obj)
 .debug_info    0x004b03cb     0x495d CMakeFiles\Basic_workflow.dir/objects.a(EcuM_ShutdownServices.c.obj)
 .debug_info    0x004b4d28     0x11ce CMakeFiles\Basic_workflow.dir/objects.a(EcuM_Sleep.c.obj)
 .debug_info    0x004b5ef6     0x4781 CMakeFiles\Basic_workflow.dir/objects.a(EcuM_Startup.c.obj)
 .debug_info    0x004ba677     0x4a21 CMakeFiles\Basic_workflow.dir/objects.a(EcuM_WakeupServices.c.obj)
 .debug_info    0x004bf098     0x1829 CMakeFiles\Basic_workflow.dir/objects.a(Rte.c.obj)
 .debug_info    0x004c08c1     0x18b4 CMakeFiles\Basic_workflow.dir/objects.a(Rte_Lib.c.obj)
 .debug_info    0x004c2175     0x70c7 CMakeFiles\Basic_workflow.dir/objects.a(Can_Device.cpp.obj)
 .debug_info    0x004c923c     0x1cc1 CMakeFiles\Basic_workflow.dir/objects.a(Can_HwProvider.cpp.obj)
 .debug_info    0x004caefd     0x5a5e CMakeFiles\Basic_workflow.dir/objects.a(Can_Implementation.cpp.obj)
 .debug_info    0x004d095b     0x13b5 CMakeFiles\Basic_workflow.dir/objects.a(Mcu_Device.cpp.obj)
 .debug_info    0x004d1d10     0x1862 CMakeFiles\Basic_workflow.dir/objects.a(Mcu_Implementation.cpp.obj)
 .debug_info    0x004d3572     0x78df CMakeFiles\Basic_workflow.dir/objects.a(VirtualCan.cpp.obj)
 .debug_info    0x004dae51     0x1a26 CMakeFiles\Basic_workflow.dir/objects.a(VRTA_SystemClock.cpp.obj)
 .debug_info    0x004dc877      0x31a CMakeFiles\Basic_workflow.dir/objects.a(Vrta_Cfg.cpp.obj)
 .debug_info    0x004dcb91     0x2e74 CMakeFiles\Basic_workflow.dir/objects.a(target.cpp.obj)
 .debug_info    0x004dfa05     0x1077 C:/ETAS/RTA-CAR_12.2.0/RTA-CAR/workspace/Basic_Workflow/build/../src/os\RTAOS.lib(TerminateTask.o)
 .debug_info    0x004e0a7c     0x10e0 C:/ETAS/RTA-CAR_12.2.0/RTA-CAR/workspace/Basic_Workflow/build/../src/os\RTAOS.lib(Os_SetJmp.o)
 .debug_info    0x004e1b5c     0x1082 C:/ETAS/RTA-CAR_12.2.0/RTA-CAR/workspace/Basic_Workflow/build/../src/os\RTAOS.lib(GetTaskID.o)
 .debug_info    0x004e2bde     0x10e3 C:/ETAS/RTA-CAR_12.2.0/RTA-CAR/workspace/Basic_Workflow/build/../src/os\RTAOS.lib(SuspendOSInterrupts.o)
 .debug_info    0x004e3cc1     0x12e5 C:/ETAS/RTA-CAR_12.2.0/RTA-CAR/workspace/Basic_Workflow/build/../src/os\RTAOS.lib(Os_Cfg_Counters.o)
 .debug_info    0x004e4fa6     0x10dc C:/ETAS/RTA-CAR_12.2.0/RTA-CAR/workspace/Basic_Workflow/build/../src/os\RTAOS.lib(SuspendAllInterrupts.o)
 .debug_info    0x004e6082     0x133d C:/ETAS/RTA-CAR_12.2.0/RTA-CAR/workspace/Basic_Workflow/build/../src/os\RTAOS.lib(Os_Cfg.o)
 .debug_info    0x004e73bf     0x114b C:/ETAS/RTA-CAR_12.2.0/RTA-CAR/workspace/Basic_Workflow/build/../src/os\RTAOS.lib(StopScheduleTable.o)
 .debug_info    0x004e850a     0x107d C:/ETAS/RTA-CAR_12.2.0/RTA-CAR/workspace/Basic_Workflow/build/../src/os\RTAOS.lib(ResumeOSInterrupts.o)
 .debug_info    0x004e9587     0x5278 C:/ETAS/RTA-CAR_12.2.0/RTA-CAR/workspace/Basic_Workflow/build/../src/os\RTAOS.lib(vrtaSystemClock.o)
 .debug_info    0x004ee7ff     0x1180 C:/ETAS/RTA-CAR_12.2.0/RTA-CAR/workspace/Basic_Workflow/build/../src/os\RTAOS.lib(StartScheduleTableRel.o)
 .debug_info    0x004ef97f     0x107f C:/ETAS/RTA-CAR_12.2.0/RTA-CAR/workspace/Basic_Workflow/build/../src/os\RTAOS.lib(ResumeAllInterrupts.o)
 .debug_info    0x004f09fe     0x10ce C:/ETAS/RTA-CAR_12.2.0/RTA-CAR/workspace/Basic_Workflow/build/../src/os\RTAOS.lib(GetResource.o)
 .debug_info    0x004f1acc     0x7e0e C:/ETAS/RTA-CAR_12.2.0/RTA-CAR/workspace/Basic_Workflow/build/../src/os\RTAOS.lib(vrtaSampleDevices.o)
 .debug_info    0x004f98da     0x1108 C:/ETAS/RTA-CAR_12.2.0/RTA-CAR/workspace/Basic_Workflow/build/../src/os\RTAOS.lib(StartOS.o)
 .debug_info    0x004fa9e2     0x10cf C:/ETAS/RTA-CAR_12.2.0/RTA-CAR/workspace/Basic_Workflow/build/../src/os\RTAOS.lib(ShutdownOS.o)
 .debug_info    0x004fbab1     0x20e8 C:/ETAS/RTA-CAR_12.2.0/RTA-CAR/workspace/Basic_Workflow/build/../src/os\RTAOS.lib(vrtaPrintf.o)
 .debug_info    0x004fdb99     0x1170 C:/ETAS/RTA-CAR_12.2.0/RTA-CAR/workspace/Basic_Workflow/build/../src/os\RTAOS.lib(ActivateTask.o)
 .debug_info    0x004fed09     0x1105 C:/ETAS/RTA-CAR_12.2.0/RTA-CAR/workspace/Basic_Workflow/build/../src/os\RTAOS.lib(ReleaseResource.o)
 .debug_info    0x004ffe0e     0x1062 C:/ETAS/RTA-CAR_12.2.0/RTA-CAR/workspace/Basic_Workflow/build/../src/os\RTAOS.lib(GetISRID.o)
 .debug_info    0x00500e70     0x4172 C:/ETAS/RTA-CAR_12.2.0/RTA-CAR/workspace/Basic_Workflow/build/../src/os\RTAOS.lib(vrtaLoggerDevice.o)
 .debug_info    0x00504fe2     0x11c6 C:/ETAS/RTA-CAR_12.2.0/RTA-CAR/workspace/Basic_Workflow/build/../src/os\RTAOS.lib(vrtaIdleHandling.o)
 .debug_info    0x005061a8     0x10f6 C:/ETAS/RTA-CAR_12.2.0/RTA-CAR/workspace/Basic_Workflow/build/../src/os\RTAOS.lib(DispatchTask.o)
 .debug_info    0x0050729e     0x6204 C:/ETAS/RTA-CAR_12.2.0/RTA-CAR/workspace/Basic_Workflow/build/../src/os\RTAOS.lib(vrtaCore.o)
 .debug_info    0x0050d4a2     0x23d4 C:/ETAS/RTA-CAR_12.2.0/RTA-CAR/workspace/Basic_Workflow/build/../src/os\RTAOS.lib(vrtaAppMain.o)
 .debug_info    0x0050f876     0x6677 C:/ETAS/RTA-CAR_12.2.0/RTA-CAR/workspace/Basic_Workflow/build/../src/os\RTAOS.lib(virtualDevice.o)
 .debug_info    0x00515eed     0x1155 C:/ETAS/RTA-CAR_12.2.0/RTA-CAR/workspace/Basic_Workflow/build/../src/os\RTAOS.lib(Os_vectors.o)
 .debug_info    0x00517042     0x11de C:/ETAS/RTA-CAR_12.2.0/RTA-CAR/workspace/Basic_Workflow/build/../src/os\RTAOS.lib(Os_Stack.o)
 .debug_info    0x00518220     0x10a3 C:/ETAS/RTA-CAR_12.2.0/RTA-CAR/workspace/Basic_Workflow/build/../src/os\RTAOS.lib(Os_Cfg_KL.o)
 .debug_info    0x005192c3     0x107f C:/ETAS/RTA-CAR_12.2.0/RTA-CAR/workspace/Basic_Workflow/build/../src/os\RTAOS.lib(Os_fsb.o)
 .debug_info    0x0051a342     0x109f C:/ETAS/RTA-CAR_12.2.0/RTA-CAR/workspace/Basic_Workflow/build/../src/os\RTAOS.lib(GetStackValue.o)
 .debug_info    0x0051b3e1     0x6da6 C:/ETAS/RTA-CAR_12.2.0/RTA-CAR/workspace/Basic_Workflow/build/../src/os\RTAOS.lib(vrtaSystemClockDevice.o)
 .debug_info    0x00522187     0x1057 C:/ETAS/RTA-CAR_12.2.0/RTA-CAR/workspace/Basic_Workflow/build/../src/os\RTAOS.lib(InShutdown.o)
 .debug_info    0x005231de     0x4db3 C:/ETAS/RTA-CAR_12.2.0/RTA-CAR/workspace/Basic_Workflow/build/../src/os\RTAOS.lib(vrtaOSMonitorDevice.o)
 .debug_info    0x00527f91     0x10eb C:/ETAS/RTA-CAR_12.2.0/RTA-CAR/workspace/Basic_Workflow/build/../src/os\RTAOS.lib(Os_wrapper.o)
 .debug_info    0x0052907c       0xa7 c:/mingw/bin/../lib/gcc/mingw32/6.3.0\libgcc.a(_chkstk_ms.o)
 .debug_info    0x00529123     0x1c58 c:/mingw/bin/../lib/gcc/mingw32/6.3.0\libgcc.a(_ctors.o)
 .debug_info    0x0052ad7b     0x13f3 c:/mingw/bin/../lib/gcc/mingw32/6.3.0\libgcc.a(_divdi3.o)
 .debug_info    0x0052c16e     0x22c4 c:/mingw/bin/../lib/gcc/mingw32/6.3.0\libgcc.a(gthr-win32.o)
 .debug_info    0x0052e432     0x85eb c:/mingw/bin/../lib/gcc/mingw32/6.3.0\libgcc_eh.a(unwind-dw2.o)
 .debug_info    0x00536a1d     0x60eb c:/mingw/bin/../lib/gcc/mingw32/6.3.0\libgcc_eh.a(unwind-dw2-fde.o)

.zdebug_info
 *(.zdebug_info .zdebug.gnu.linkonce.wi.*)

.debug_abbrev   0x0053d000     0xd600
 *(.debug_abbrev)
 .debug_abbrev  0x0053d000      0x355 CMakeFiles\Basic_workflow.dir/objects.a(unity_4_c.c.obj)
 .debug_abbrev  0x0053d355      0x390 CMakeFiles\Basic_workflow.dir/objects.a(unity_3_c.c.obj)
 .debug_abbrev  0x0053d6e5      0x47e CMakeFiles\Basic_workflow.dir/objects.a(unity_2_c.c.obj)
 .debug_abbrev  0x0053db63      0x36c CMakeFiles\Basic_workflow.dir/objects.a(unity_1_c.c.obj)
 .debug_abbrev  0x0053decf      0x3f7 CMakeFiles\Basic_workflow.dir/objects.a(unity_0_c.c.obj)
 .debug_abbrev  0x0053e2c6      0x1c0 CMakeFiles\Basic_workflow.dir/objects.a(MySWC.c.obj)
 .debug_abbrev  0x0053e486      0x210 CMakeFiles\Basic_workflow.dir/objects.a(Det.c.obj)
 .debug_abbrev  0x0053e696      0x146 CMakeFiles\Basic_workflow.dir/objects.a(EcuM_Cfg.c.obj)
 .debug_abbrev  0x0053e7dc       0x2a CMakeFiles\Basic_workflow.dir/objects.a(EcuM_Cfg_PbExt.c.obj)
 .debug_abbrev  0x0053e806       0x2a CMakeFiles\Basic_workflow.dir/objects.a(EcuM_Cfg_RbMo.c.obj)
 .debug_abbrev  0x0053e830       0x2a CMakeFiles\Basic_workflow.dir/objects.a(EcuM_Cfg_Sleep.c.obj)
 .debug_abbrev  0x0053e85a      0x1bc CMakeFiles\Basic_workflow.dir/objects.a(EcuM_Cfg_Startup.c.obj)
 .debug_abbrev  0x0053ea16       0x2a CMakeFiles\Basic_workflow.dir/objects.a(EcuM_Cfg_SynchPoint.c.obj)
 .debug_abbrev  0x0053ea40      0x146 CMakeFiles\Basic_workflow.dir/objects.a(EcuM_Lcfg.c.obj)
 .debug_abbrev  0x0053eb86      0x184 CMakeFiles\Basic_workflow.dir/objects.a(EcuM_PBcfg.c.obj)
 .debug_abbrev  0x0053ed0a      0x233 CMakeFiles\Basic_workflow.dir/objects.a(EcuM_Callout_Stubs.c.obj)
 .debug_abbrev  0x0053ef3d      0x1c4 CMakeFiles\Basic_workflow.dir/objects.a(EcuM_BootTarget.c.obj)
 .debug_abbrev  0x0053f101      0x139 CMakeFiles\Basic_workflow.dir/objects.a(EcuM_CurrentState.c.obj)
 .debug_abbrev  0x0053f23a      0x139 CMakeFiles\Basic_workflow.dir/objects.a(EcuM_KillAllRequests.c.obj)
 .debug_abbrev  0x0053f373      0x1e3 CMakeFiles\Basic_workflow.dir/objects.a(EcuM_MainFunction.c.obj)
 .debug_abbrev  0x0053f556      0x177 CMakeFiles\Basic_workflow.dir/objects.a(EcuM_Misc.c.obj)
 .debug_abbrev  0x0053f6cd      0x246 CMakeFiles\Basic_workflow.dir/objects.a(EcuM_Prv.c.obj)
 .debug_abbrev  0x0053f913      0x148 CMakeFiles\Basic_workflow.dir/objects.a(EcuM_Prv_RteActions.c.obj)
 .debug_abbrev  0x0053fa5b      0x139 CMakeFiles\Basic_workflow.dir/objects.a(EcuM_ReleasePOST_RUN.c.obj)
 .debug_abbrev  0x0053fb94      0x139 CMakeFiles\Basic_workflow.dir/objects.a(EcuM_ReleaseRUN.c.obj)
 .debug_abbrev  0x0053fccd      0x139 CMakeFiles\Basic_workflow.dir/objects.a(EcuM_RequestPOST_RUN.c.obj)
 .debug_abbrev  0x0053fe06      0x139 CMakeFiles\Basic_workflow.dir/objects.a(EcuM_RequestRUN.c.obj)
 .debug_abbrev  0x0053ff3f      0x139 CMakeFiles\Basic_workflow.dir/objects.a(EcuM_SetState.c.obj)
 .debug_abbrev  0x00540078      0x207 CMakeFiles\Basic_workflow.dir/objects.a(EcuM_Shutdown.c.obj)
 .debug_abbrev  0x0054027f      0x20d CMakeFiles\Basic_workflow.dir/objects.a(EcuM_ShutdownServices.c.obj)
 .debug_abbrev  0x0054048c      0x139 CMakeFiles\Basic_workflow.dir/objects.a(EcuM_Sleep.c.obj)
 .debug_abbrev  0x005405c5      0x193 CMakeFiles\Basic_workflow.dir/objects.a(EcuM_Startup.c.obj)
 .debug_abbrev  0x00540758      0x216 CMakeFiles\Basic_workflow.dir/objects.a(EcuM_WakeupServices.c.obj)
 .debug_abbrev  0x0054096e      0x26a CMakeFiles\Basic_workflow.dir/objects.a(Rte.c.obj)
 .debug_abbrev  0x00540bd8      0x2f3 CMakeFiles\Basic_workflow.dir/objects.a(Rte_Lib.c.obj)
 .debug_abbrev  0x00540ecb      0x565 CMakeFiles\Basic_workflow.dir/objects.a(Can_Device.cpp.obj)
 .debug_abbrev  0x00541430      0x273 CMakeFiles\Basic_workflow.dir/objects.a(Can_HwProvider.cpp.obj)
 .debug_abbrev  0x005416a3      0x519 CMakeFiles\Basic_workflow.dir/objects.a(Can_Implementation.cpp.obj)
 .debug_abbrev  0x00541bbc      0x3a9 CMakeFiles\Basic_workflow.dir/objects.a(Mcu_Device.cpp.obj)
 .debug_abbrev  0x00541f65      0x1dd CMakeFiles\Basic_workflow.dir/objects.a(Mcu_Implementation.cpp.obj)
 .debug_abbrev  0x00542142      0x671 CMakeFiles\Basic_workflow.dir/objects.a(VirtualCan.cpp.obj)
 .debug_abbrev  0x005427b3      0x335 CMakeFiles\Basic_workflow.dir/objects.a(VRTA_SystemClock.cpp.obj)
 .debug_abbrev  0x00542ae8       0x77 CMakeFiles\Basic_workflow.dir/objects.a(Vrta_Cfg.cpp.obj)
 .debug_abbrev  0x00542b5f      0x288 CMakeFiles\Basic_workflow.dir/objects.a(target.cpp.obj)
 .debug_abbrev  0x00542de7      0x15b C:/ETAS/RTA-CAR_12.2.0/RTA-CAR/workspace/Basic_Workflow/build/../src/os\RTAOS.lib(TerminateTask.o)
 .debug_abbrev  0x00542f42      0x183 C:/ETAS/RTA-CAR_12.2.0/RTA-CAR/workspace/Basic_Workflow/build/../src/os\RTAOS.lib(Os_SetJmp.o)
 .debug_abbrev  0x005430c5      0x14c C:/ETAS/RTA-CAR_12.2.0/RTA-CAR/workspace/Basic_Workflow/build/../src/os\RTAOS.lib(GetTaskID.o)
 .debug_abbrev  0x00543211      0x193 C:/ETAS/RTA-CAR_12.2.0/RTA-CAR/workspace/Basic_Workflow/build/../src/os\RTAOS.lib(SuspendOSInterrupts.o)
 .debug_abbrev  0x005433a4      0x20e C:/ETAS/RTA-CAR_12.2.0/RTA-CAR/workspace/Basic_Workflow/build/../src/os\RTAOS.lib(Os_Cfg_Counters.o)
 .debug_abbrev  0x005435b2      0x193 C:/ETAS/RTA-CAR_12.2.0/RTA-CAR/workspace/Basic_Workflow/build/../src/os\RTAOS.lib(SuspendAllInterrupts.o)
 .debug_abbrev  0x00543745      0x1d9 C:/ETAS/RTA-CAR_12.2.0/RTA-CAR/workspace/Basic_Workflow/build/../src/os\RTAOS.lib(Os_Cfg.o)
 .debug_abbrev  0x0054391e      0x19f C:/ETAS/RTA-CAR_12.2.0/RTA-CAR/workspace/Basic_Workflow/build/../src/os\RTAOS.lib(StopScheduleTable.o)
 .debug_abbrev  0x00543abd      0x159 C:/ETAS/RTA-CAR_12.2.0/RTA-CAR/workspace/Basic_Workflow/build/../src/os\RTAOS.lib(ResumeOSInterrupts.o)
 .debug_abbrev  0x00543c16      0x844 C:/ETAS/RTA-CAR_12.2.0/RTA-CAR/workspace/Basic_Workflow/build/../src/os\RTAOS.lib(vrtaSystemClock.o)
 .debug_abbrev  0x0054445a      0x19f C:/ETAS/RTA-CAR_12.2.0/RTA-CAR/workspace/Basic_Workflow/build/../src/os\RTAOS.lib(StartScheduleTableRel.o)
 .debug_abbrev  0x005445f9      0x159 C:/ETAS/RTA-CAR_12.2.0/RTA-CAR/workspace/Basic_Workflow/build/../src/os\RTAOS.lib(ResumeAllInterrupts.o)
 .debug_abbrev  0x00544752      0x192 C:/ETAS/RTA-CAR_12.2.0/RTA-CAR/workspace/Basic_Workflow/build/../src/os\RTAOS.lib(GetResource.o)
 .debug_abbrev  0x005448e4      0x86c C:/ETAS/RTA-CAR_12.2.0/RTA-CAR/workspace/Basic_Workflow/build/../src/os\RTAOS.lib(vrtaSampleDevices.o)
 .debug_abbrev  0x00545150      0x192 C:/ETAS/RTA-CAR_12.2.0/RTA-CAR/workspace/Basic_Workflow/build/../src/os\RTAOS.lib(StartOS.o)
 .debug_abbrev  0x005452e2      0x18c C:/ETAS/RTA-CAR_12.2.0/RTA-CAR/workspace/Basic_Workflow/build/../src/os\RTAOS.lib(ShutdownOS.o)
 .debug_abbrev  0x0054546e      0x269 C:/ETAS/RTA-CAR_12.2.0/RTA-CAR/workspace/Basic_Workflow/build/../src/os\RTAOS.lib(vrtaPrintf.o)
 .debug_abbrev  0x005456d7      0x1b3 C:/ETAS/RTA-CAR_12.2.0/RTA-CAR/workspace/Basic_Workflow/build/../src/os\RTAOS.lib(ActivateTask.o)
 .debug_abbrev  0x0054588a      0x192 C:/ETAS/RTA-CAR_12.2.0/RTA-CAR/workspace/Basic_Workflow/build/../src/os\RTAOS.lib(ReleaseResource.o)
 .debug_abbrev  0x00545a1c      0x14c C:/ETAS/RTA-CAR_12.2.0/RTA-CAR/workspace/Basic_Workflow/build/../src/os\RTAOS.lib(GetISRID.o)
 .debug_abbrev  0x00545b68      0x5d1 C:/ETAS/RTA-CAR_12.2.0/RTA-CAR/workspace/Basic_Workflow/build/../src/os\RTAOS.lib(vrtaLoggerDevice.o)
 .debug_abbrev  0x00546139      0x2de C:/ETAS/RTA-CAR_12.2.0/RTA-CAR/workspace/Basic_Workflow/build/../src/os\RTAOS.lib(vrtaIdleHandling.o)
 .debug_abbrev  0x00546417      0x19f C:/ETAS/RTA-CAR_12.2.0/RTA-CAR/workspace/Basic_Workflow/build/../src/os\RTAOS.lib(DispatchTask.o)
 .debug_abbrev  0x005465b6      0x9b8 C:/ETAS/RTA-CAR_12.2.0/RTA-CAR/workspace/Basic_Workflow/build/../src/os\RTAOS.lib(vrtaCore.o)
 .debug_abbrev  0x00546f6e      0x255 C:/ETAS/RTA-CAR_12.2.0/RTA-CAR/workspace/Basic_Workflow/build/../src/os\RTAOS.lib(vrtaAppMain.o)
 .debug_abbrev  0x005471c3      0x85f C:/ETAS/RTA-CAR_12.2.0/RTA-CAR/workspace/Basic_Workflow/build/../src/os\RTAOS.lib(virtualDevice.o)
 .debug_abbrev  0x00547a22      0x168 C:/ETAS/RTA-CAR_12.2.0/RTA-CAR/workspace/Basic_Workflow/build/../src/os\RTAOS.lib(Os_vectors.o)
 .debug_abbrev  0x00547b8a      0x1c4 C:/ETAS/RTA-CAR_12.2.0/RTA-CAR/workspace/Basic_Workflow/build/../src/os\RTAOS.lib(Os_Stack.o)
 .debug_abbrev  0x00547d4e      0x174 C:/ETAS/RTA-CAR_12.2.0/RTA-CAR/workspace/Basic_Workflow/build/../src/os\RTAOS.lib(Os_Cfg_KL.o)
 .debug_abbrev  0x00547ec2      0x166 C:/ETAS/RTA-CAR_12.2.0/RTA-CAR/workspace/Basic_Workflow/build/../src/os\RTAOS.lib(Os_fsb.o)
 .debug_abbrev  0x00548028      0x16a C:/ETAS/RTA-CAR_12.2.0/RTA-CAR/workspace/Basic_Workflow/build/../src/os\RTAOS.lib(GetStackValue.o)
 .debug_abbrev  0x00548192      0x7ff C:/ETAS/RTA-CAR_12.2.0/RTA-CAR/workspace/Basic_Workflow/build/../src/os\RTAOS.lib(vrtaSystemClockDevice.o)
 .debug_abbrev  0x00548991      0x13b C:/ETAS/RTA-CAR_12.2.0/RTA-CAR/workspace/Basic_Workflow/build/../src/os\RTAOS.lib(InShutdown.o)
 .debug_abbrev  0x00548acc      0x6b5 C:/ETAS/RTA-CAR_12.2.0/RTA-CAR/workspace/Basic_Workflow/build/../src/os\RTAOS.lib(vrtaOSMonitorDevice.o)
 .debug_abbrev  0x00549181      0x19f C:/ETAS/RTA-CAR_12.2.0/RTA-CAR/workspace/Basic_Workflow/build/../src/os\RTAOS.lib(Os_wrapper.o)
 .debug_abbrev  0x00549320       0x14 c:/mingw/bin/../lib/gcc/mingw32/6.3.0\libgcc.a(_chkstk_ms.o)
 .debug_abbrev  0x00549334      0x11b c:/mingw/bin/../lib/gcc/mingw32/6.3.0\libgcc.a(_ctors.o)
 .debug_abbrev  0x0054944f      0x1ec c:/mingw/bin/../lib/gcc/mingw32/6.3.0\libgcc.a(_divdi3.o)
 .debug_abbrev  0x0054963b      0x293 c:/mingw/bin/../lib/gcc/mingw32/6.3.0\libgcc.a(gthr-win32.o)
 .debug_abbrev  0x005498ce      0x643 c:/mingw/bin/../lib/gcc/mingw32/6.3.0\libgcc_eh.a(unwind-dw2.o)
 .debug_abbrev  0x00549f11      0x5f8 c:/mingw/bin/../lib/gcc/mingw32/6.3.0\libgcc_eh.a(unwind-dw2-fde.o)

.zdebug_abbrev
 *(.zdebug_abbrev)

.debug_line     0x0054b000    0x17e00
 *(.debug_line)
 .debug_line    0x0054b000      0xbb7 CMakeFiles\Basic_workflow.dir/objects.a(unity_4_c.c.obj)
 .debug_line    0x0054bbb7      0xf24 CMakeFiles\Basic_workflow.dir/objects.a(unity_3_c.c.obj)
 .debug_line    0x0054cadb     0x1609 CMakeFiles\Basic_workflow.dir/objects.a(unity_2_c.c.obj)
 .debug_line    0x0054e0e4     0x1737 CMakeFiles\Basic_workflow.dir/objects.a(unity_1_c.c.obj)
 .debug_line    0x0054f81b     0x1173 CMakeFiles\Basic_workflow.dir/objects.a(unity_0_c.c.obj)
 .debug_line    0x0055098e      0x548 CMakeFiles\Basic_workflow.dir/objects.a(MySWC.c.obj)
 .debug_line    0x00550ed6      0x2b5 CMakeFiles\Basic_workflow.dir/objects.a(Det.c.obj)
 .debug_line    0x0055118b      0x258 CMakeFiles\Basic_workflow.dir/objects.a(EcuM_Cfg.c.obj)
 .debug_line    0x005513e3       0x87 CMakeFiles\Basic_workflow.dir/objects.a(EcuM_Cfg_PbExt.c.obj)
 .debug_line    0x0055146a       0x86 CMakeFiles\Basic_workflow.dir/objects.a(EcuM_Cfg_RbMo.c.obj)
 .debug_line    0x005514f0        0x0 CMakeFiles\Basic_workflow.dir/objects.a(EcuM_Cfg_Shutdown.c.obj)
 .debug_line    0x005514f0       0x8c CMakeFiles\Basic_workflow.dir/objects.a(EcuM_Cfg_Sleep.c.obj)
 .debug_line    0x0055157c      0x6a9 CMakeFiles\Basic_workflow.dir/objects.a(EcuM_Cfg_Startup.c.obj)
 .debug_line    0x00551c25       0x8c CMakeFiles\Basic_workflow.dir/objects.a(EcuM_Cfg_SynchPoint.c.obj)
 .debug_line    0x00551cb1      0x200 CMakeFiles\Basic_workflow.dir/objects.a(EcuM_Lcfg.c.obj)
 .debug_line    0x00551eb1      0x62d CMakeFiles\Basic_workflow.dir/objects.a(EcuM_PBcfg.c.obj)
 .debug_line    0x005524de      0x722 CMakeFiles\Basic_workflow.dir/objects.a(EcuM_Callout_Stubs.c.obj)
 .debug_line    0x00552c00      0x71c CMakeFiles\Basic_workflow.dir/objects.a(EcuM_BootTarget.c.obj)
 .debug_line    0x0055331c      0x1f1 CMakeFiles\Basic_workflow.dir/objects.a(EcuM_CurrentState.c.obj)
 .debug_line    0x0055350d      0x1f1 CMakeFiles\Basic_workflow.dir/objects.a(EcuM_KillAllRequests.c.obj)
 .debug_line    0x005536fe      0x76c CMakeFiles\Basic_workflow.dir/objects.a(EcuM_MainFunction.c.obj)
 .debug_line    0x00553e6a      0x674 CMakeFiles\Basic_workflow.dir/objects.a(EcuM_Misc.c.obj)
 .debug_line    0x005544de      0x810 CMakeFiles\Basic_workflow.dir/objects.a(EcuM_Prv.c.obj)
 .debug_line    0x00554cee      0x1ff CMakeFiles\Basic_workflow.dir/objects.a(EcuM_Prv_RteActions.c.obj)
 .debug_line    0x00554eed      0x1f1 CMakeFiles\Basic_workflow.dir/objects.a(EcuM_ReleasePOST_RUN.c.obj)
 .debug_line    0x005550de      0x1f1 CMakeFiles\Basic_workflow.dir/objects.a(EcuM_ReleaseRUN.c.obj)
 .debug_line    0x005552cf      0x1f1 CMakeFiles\Basic_workflow.dir/objects.a(EcuM_RequestPOST_RUN.c.obj)
 .debug_line    0x005554c0      0x1f1 CMakeFiles\Basic_workflow.dir/objects.a(EcuM_RequestRUN.c.obj)
 .debug_line    0x005556b1      0x1f1 CMakeFiles\Basic_workflow.dir/objects.a(EcuM_SetState.c.obj)
 .debug_line    0x005558a2      0x73e CMakeFiles\Basic_workflow.dir/objects.a(EcuM_Shutdown.c.obj)
 .debug_line    0x00555fe0      0x767 CMakeFiles\Basic_workflow.dir/objects.a(EcuM_ShutdownServices.c.obj)
 .debug_line    0x00556747      0x1f1 CMakeFiles\Basic_workflow.dir/objects.a(EcuM_Sleep.c.obj)
 .debug_line    0x00556938      0x6c4 CMakeFiles\Basic_workflow.dir/objects.a(EcuM_Startup.c.obj)
 .debug_line    0x00556ffc      0x78e CMakeFiles\Basic_workflow.dir/objects.a(EcuM_WakeupServices.c.obj)
 .debug_line    0x0055778a      0x294 CMakeFiles\Basic_workflow.dir/objects.a(Rte.c.obj)
 .debug_line    0x00557a1e      0x294 CMakeFiles\Basic_workflow.dir/objects.a(Rte_Lib.c.obj)
 .debug_line    0x00557cb2      0xc1e CMakeFiles\Basic_workflow.dir/objects.a(Can_Device.cpp.obj)
 .debug_line    0x005588d0      0x219 CMakeFiles\Basic_workflow.dir/objects.a(Can_HwProvider.cpp.obj)
 .debug_line    0x00558ae9      0xbcc CMakeFiles\Basic_workflow.dir/objects.a(Can_Implementation.cpp.obj)
 .debug_line    0x005596b5      0x35d CMakeFiles\Basic_workflow.dir/objects.a(Mcu_Device.cpp.obj)
 .debug_line    0x00559a12      0x287 CMakeFiles\Basic_workflow.dir/objects.a(Mcu_Implementation.cpp.obj)
 .debug_line    0x00559c99     0x1015 CMakeFiles\Basic_workflow.dir/objects.a(VirtualCan.cpp.obj)
 .debug_line    0x0055acae      0x207 CMakeFiles\Basic_workflow.dir/objects.a(VRTA_SystemClock.cpp.obj)
 .debug_line    0x0055aeb5       0xa1 CMakeFiles\Basic_workflow.dir/objects.a(Vrta_Cfg.cpp.obj)
 .debug_line    0x0055af56      0x2be CMakeFiles\Basic_workflow.dir/objects.a(target.cpp.obj)
 .debug_line    0x0055b214      0x160 C:/ETAS/RTA-CAR_12.2.0/RTA-CAR/workspace/Basic_Workflow/build/../src/os\RTAOS.lib(TerminateTask.o)
 .debug_line    0x0055b374      0x16f C:/ETAS/RTA-CAR_12.2.0/RTA-CAR/workspace/Basic_Workflow/build/../src/os\RTAOS.lib(Os_SetJmp.o)
 .debug_line    0x0055b4e3      0x156 C:/ETAS/RTA-CAR_12.2.0/RTA-CAR/workspace/Basic_Workflow/build/../src/os\RTAOS.lib(GetTaskID.o)
 .debug_line    0x0055b639      0x167 C:/ETAS/RTA-CAR_12.2.0/RTA-CAR/workspace/Basic_Workflow/build/../src/os\RTAOS.lib(SuspendOSInterrupts.o)
 .debug_line    0x0055b7a0      0x1ce C:/ETAS/RTA-CAR_12.2.0/RTA-CAR/workspace/Basic_Workflow/build/../src/os\RTAOS.lib(Os_Cfg_Counters.o)
 .debug_line    0x0055b96e      0x167 C:/ETAS/RTA-CAR_12.2.0/RTA-CAR/workspace/Basic_Workflow/build/../src/os\RTAOS.lib(SuspendAllInterrupts.o)
 .debug_line    0x0055bad5      0x184 C:/ETAS/RTA-CAR_12.2.0/RTA-CAR/workspace/Basic_Workflow/build/../src/os\RTAOS.lib(Os_Cfg.o)
 .debug_line    0x0055bc59      0x177 C:/ETAS/RTA-CAR_12.2.0/RTA-CAR/workspace/Basic_Workflow/build/../src/os\RTAOS.lib(StopScheduleTable.o)
 .debug_line    0x0055bdd0      0x165 C:/ETAS/RTA-CAR_12.2.0/RTA-CAR/workspace/Basic_Workflow/build/../src/os\RTAOS.lib(ResumeOSInterrupts.o)
 .debug_line    0x0055bf35      0x657 C:/ETAS/RTA-CAR_12.2.0/RTA-CAR/workspace/Basic_Workflow/build/../src/os\RTAOS.lib(vrtaSystemClock.o)
 .debug_line    0x0055c58c      0x18b C:/ETAS/RTA-CAR_12.2.0/RTA-CAR/workspace/Basic_Workflow/build/../src/os\RTAOS.lib(StartScheduleTableRel.o)
 .debug_line    0x0055c717      0x166 C:/ETAS/RTA-CAR_12.2.0/RTA-CAR/workspace/Basic_Workflow/build/../src/os\RTAOS.lib(ResumeAllInterrupts.o)
 .debug_line    0x0055c87d      0x18e C:/ETAS/RTA-CAR_12.2.0/RTA-CAR/workspace/Basic_Workflow/build/../src/os\RTAOS.lib(GetResource.o)
 .debug_line    0x0055ca0b      0xca5 C:/ETAS/RTA-CAR_12.2.0/RTA-CAR/workspace/Basic_Workflow/build/../src/os\RTAOS.lib(vrtaSampleDevices.o)
 .debug_line    0x0055d6b0      0x16f C:/ETAS/RTA-CAR_12.2.0/RTA-CAR/workspace/Basic_Workflow/build/../src/os\RTAOS.lib(StartOS.o)
 .debug_line    0x0055d81f      0x16a C:/ETAS/RTA-CAR_12.2.0/RTA-CAR/workspace/Basic_Workflow/build/../src/os\RTAOS.lib(ShutdownOS.o)
 .debug_line    0x0055d989      0x216 C:/ETAS/RTA-CAR_12.2.0/RTA-CAR/workspace/Basic_Workflow/build/../src/os\RTAOS.lib(vrtaPrintf.o)
 .debug_line    0x0055db9f      0x17e C:/ETAS/RTA-CAR_12.2.0/RTA-CAR/workspace/Basic_Workflow/build/../src/os\RTAOS.lib(ActivateTask.o)
 .debug_line    0x0055dd1d      0x16c C:/ETAS/RTA-CAR_12.2.0/RTA-CAR/workspace/Basic_Workflow/build/../src/os\RTAOS.lib(ReleaseResource.o)
 .debug_line    0x0055de89      0x155 C:/ETAS/RTA-CAR_12.2.0/RTA-CAR/workspace/Basic_Workflow/build/../src/os\RTAOS.lib(GetISRID.o)
 .debug_line    0x0055dfde      0x498 C:/ETAS/RTA-CAR_12.2.0/RTA-CAR/workspace/Basic_Workflow/build/../src/os\RTAOS.lib(vrtaLoggerDevice.o)
 .debug_line    0x0055e476      0x18d C:/ETAS/RTA-CAR_12.2.0/RTA-CAR/workspace/Basic_Workflow/build/../src/os\RTAOS.lib(vrtaIdleHandling.o)
 .debug_line    0x0055e603      0x172 C:/ETAS/RTA-CAR_12.2.0/RTA-CAR/workspace/Basic_Workflow/build/../src/os\RTAOS.lib(DispatchTask.o)
 .debug_line    0x0055e775      0x57d C:/ETAS/RTA-CAR_12.2.0/RTA-CAR/workspace/Basic_Workflow/build/../src/os\RTAOS.lib(vrtaCore.o)
 .debug_line    0x0055ecf2      0x1cd C:/ETAS/RTA-CAR_12.2.0/RTA-CAR/workspace/Basic_Workflow/build/../src/os\RTAOS.lib(vrtaAppMain.o)
 .debug_line    0x0055eebf      0x8a2 C:/ETAS/RTA-CAR_12.2.0/RTA-CAR/workspace/Basic_Workflow/build/../src/os\RTAOS.lib(virtualDevice.o)
 .debug_line    0x0055f761      0x143 C:/ETAS/RTA-CAR_12.2.0/RTA-CAR/workspace/Basic_Workflow/build/../src/os\RTAOS.lib(Os_vectors.o)
 .debug_line    0x0055f8a4      0x173 C:/ETAS/RTA-CAR_12.2.0/RTA-CAR/workspace/Basic_Workflow/build/../src/os\RTAOS.lib(Os_Stack.o)
 .debug_line    0x0055fa17      0x160 C:/ETAS/RTA-CAR_12.2.0/RTA-CAR/workspace/Basic_Workflow/build/../src/os\RTAOS.lib(Os_Cfg_KL.o)
 .debug_line    0x0055fb77      0x151 C:/ETAS/RTA-CAR_12.2.0/RTA-CAR/workspace/Basic_Workflow/build/../src/os\RTAOS.lib(Os_fsb.o)
 .debug_line    0x0055fcc8      0x15b C:/ETAS/RTA-CAR_12.2.0/RTA-CAR/workspace/Basic_Workflow/build/../src/os\RTAOS.lib(GetStackValue.o)
 .debug_line    0x0055fe23      0x836 C:/ETAS/RTA-CAR_12.2.0/RTA-CAR/workspace/Basic_Workflow/build/../src/os\RTAOS.lib(vrtaSystemClockDevice.o)
 .debug_line    0x00560659      0x153 C:/ETAS/RTA-CAR_12.2.0/RTA-CAR/workspace/Basic_Workflow/build/../src/os\RTAOS.lib(InShutdown.o)
 .debug_line    0x005607ac      0x5f5 C:/ETAS/RTA-CAR_12.2.0/RTA-CAR/workspace/Basic_Workflow/build/../src/os\RTAOS.lib(vrtaOSMonitorDevice.o)
 .debug_line    0x00560da1      0x161 C:/ETAS/RTA-CAR_12.2.0/RTA-CAR/workspace/Basic_Workflow/build/../src/os\RTAOS.lib(Os_wrapper.o)
 .debug_line    0x00560f02       0x71 c:/mingw/bin/../lib/gcc/mingw32/6.3.0\libgcc.a(_chkstk_ms.o)
 .debug_line    0x00560f73      0x157 c:/mingw/bin/../lib/gcc/mingw32/6.3.0\libgcc.a(_ctors.o)
 .debug_line    0x005610ca      0x1ac c:/mingw/bin/../lib/gcc/mingw32/6.3.0\libgcc.a(_divdi3.o)
 .debug_line    0x00561276      0x1f9 c:/mingw/bin/../lib/gcc/mingw32/6.3.0\libgcc.a(gthr-win32.o)
 .debug_line    0x0056146f      0xf20 c:/mingw/bin/../lib/gcc/mingw32/6.3.0\libgcc_eh.a(unwind-dw2.o)
 .debug_line    0x0056238f      0x8d7 c:/mingw/bin/../lib/gcc/mingw32/6.3.0\libgcc_eh.a(unwind-dw2-fde.o)

.zdebug_line
 *(.zdebug_line)

.debug_frame    0x00563000      0x200
 *(.debug_frame*)
 .debug_frame   0x00563000       0x38 c:/mingw/bin/../lib/gcc/mingw32/6.3.0\libgcc.a(_chkstk_ms.o)

.zdebug_frame
 *(.zdebug_frame*)

.debug_str      0x00564000     0x4a00
 *(.debug_str)
 .debug_str     0x00564000      0x1f3 CMakeFiles\Basic_workflow.dir/objects.a(unity_4_c.c.obj)
 .debug_str     0x005641f3      0x278 CMakeFiles\Basic_workflow.dir/objects.a(unity_3_c.c.obj)
 .debug_str     0x0056446b      0x3cd CMakeFiles\Basic_workflow.dir/objects.a(unity_2_c.c.obj)
 .debug_str     0x00564838      0x35f CMakeFiles\Basic_workflow.dir/objects.a(unity_1_c.c.obj)
 .debug_str     0x00564b97      0x357 CMakeFiles\Basic_workflow.dir/objects.a(unity_0_c.c.obj)
 .debug_str     0x00564eee       0xd6 CMakeFiles\Basic_workflow.dir/objects.a(MySWC.c.obj)
 .debug_str     0x00564fc4       0x32 CMakeFiles\Basic_workflow.dir/objects.a(Det.c.obj)
 .debug_str     0x00564ff6       0x1e CMakeFiles\Basic_workflow.dir/objects.a(EcuM_Cfg.c.obj)
 .debug_str     0x00565014        0x0 CMakeFiles\Basic_workflow.dir/objects.a(EcuM_Cfg_PbExt.c.obj)
 .debug_str     0x00565014        0x0 CMakeFiles\Basic_workflow.dir/objects.a(EcuM_Cfg_RbMo.c.obj)
 .debug_str     0x00565014        0x0 CMakeFiles\Basic_workflow.dir/objects.a(EcuM_Cfg_Shutdown.c.obj)
 .debug_str     0x00565014        0x0 CMakeFiles\Basic_workflow.dir/objects.a(EcuM_Cfg_Sleep.c.obj)
 .debug_str     0x00565014       0xd6 CMakeFiles\Basic_workflow.dir/objects.a(EcuM_Cfg_Startup.c.obj)
 .debug_str     0x005650ea        0x0 CMakeFiles\Basic_workflow.dir/objects.a(EcuM_Cfg_SynchPoint.c.obj)
 .debug_str     0x005650ea       0x1e CMakeFiles\Basic_workflow.dir/objects.a(EcuM_Lcfg.c.obj)
 .debug_str     0x00565108       0xd6 CMakeFiles\Basic_workflow.dir/objects.a(EcuM_PBcfg.c.obj)
 .debug_str     0x005651de       0xe3 CMakeFiles\Basic_workflow.dir/objects.a(EcuM_Callout_Stubs.c.obj)
 .debug_str     0x005652c1       0xe6 CMakeFiles\Basic_workflow.dir/objects.a(EcuM_BootTarget.c.obj)
 .debug_str     0x005653a7       0x1e CMakeFiles\Basic_workflow.dir/objects.a(EcuM_CurrentState.c.obj)
 .debug_str     0x005653c5       0x1e CMakeFiles\Basic_workflow.dir/objects.a(EcuM_KillAllRequests.c.obj)
 .debug_str     0x005653e3       0xd6 CMakeFiles\Basic_workflow.dir/objects.a(EcuM_MainFunction.c.obj)
 .debug_str     0x005654b9       0xd6 CMakeFiles\Basic_workflow.dir/objects.a(EcuM_Misc.c.obj)
 .debug_str     0x0056558f      0x10d CMakeFiles\Basic_workflow.dir/objects.a(EcuM_Prv.c.obj)
 .debug_str     0x0056569c       0x1e CMakeFiles\Basic_workflow.dir/objects.a(EcuM_Prv_RteActions.c.obj)
 .debug_str     0x005656ba       0x1e CMakeFiles\Basic_workflow.dir/objects.a(EcuM_ReleasePOST_RUN.c.obj)
 .debug_str     0x005656d8       0x1e CMakeFiles\Basic_workflow.dir/objects.a(EcuM_ReleaseRUN.c.obj)
 .debug_str     0x005656f6       0x1e CMakeFiles\Basic_workflow.dir/objects.a(EcuM_RequestPOST_RUN.c.obj)
 .debug_str     0x00565714       0x1e CMakeFiles\Basic_workflow.dir/objects.a(EcuM_RequestRUN.c.obj)
 .debug_str     0x00565732       0x1e CMakeFiles\Basic_workflow.dir/objects.a(EcuM_SetState.c.obj)
 .debug_str     0x00565750       0xe3 CMakeFiles\Basic_workflow.dir/objects.a(EcuM_Shutdown.c.obj)
 .debug_str     0x00565833      0x12c CMakeFiles\Basic_workflow.dir/objects.a(EcuM_ShutdownServices.c.obj)
 .debug_str     0x0056595f       0x1e CMakeFiles\Basic_workflow.dir/objects.a(EcuM_Sleep.c.obj)
 .debug_str     0x0056597d       0xd6 CMakeFiles\Basic_workflow.dir/objects.a(EcuM_Startup.c.obj)
 .debug_str     0x00565a53       0xde CMakeFiles\Basic_workflow.dir/objects.a(EcuM_WakeupServices.c.obj)
 .debug_str     0x00565b31       0x28 CMakeFiles\Basic_workflow.dir/objects.a(Rte.c.obj)
 .debug_str     0x00565b59       0x38 CMakeFiles\Basic_workflow.dir/objects.a(Rte_Lib.c.obj)
 .debug_str     0x00565b91      0x1b4 CMakeFiles\Basic_workflow.dir/objects.a(Can_Device.cpp.obj)
 .debug_str     0x00565d45       0x7d CMakeFiles\Basic_workflow.dir/objects.a(Can_HwProvider.cpp.obj)
 .debug_str     0x00565dc2      0x265 CMakeFiles\Basic_workflow.dir/objects.a(Can_Implementation.cpp.obj)
 .debug_str     0x00566027       0x44 CMakeFiles\Basic_workflow.dir/objects.a(Mcu_Device.cpp.obj)
 .debug_str     0x0056606b       0x29 CMakeFiles\Basic_workflow.dir/objects.a(Mcu_Implementation.cpp.obj)
 .debug_str     0x00566094      0x386 CMakeFiles\Basic_workflow.dir/objects.a(VirtualCan.cpp.obj)
 .debug_str     0x0056641a       0x54 CMakeFiles\Basic_workflow.dir/objects.a(VRTA_SystemClock.cpp.obj)
 .debug_str     0x0056646e        0x0 CMakeFiles\Basic_workflow.dir/objects.a(Vrta_Cfg.cpp.obj)
 .debug_str     0x0056646e       0x1e CMakeFiles\Basic_workflow.dir/objects.a(target.cpp.obj)
 .debug_str     0x0056648c       0x29 C:/ETAS/RTA-CAR_12.2.0/RTA-CAR/workspace/Basic_Workflow/build/../src/os\RTAOS.lib(TerminateTask.o)
 .debug_str     0x005664b5       0x1e C:/ETAS/RTA-CAR_12.2.0/RTA-CAR/workspace/Basic_Workflow/build/../src/os\RTAOS.lib(Os_SetJmp.o)
 .debug_str     0x005664d3       0x1e C:/ETAS/RTA-CAR_12.2.0/RTA-CAR/workspace/Basic_Workflow/build/../src/os\RTAOS.lib(GetTaskID.o)
 .debug_str     0x005664f1       0x38 C:/ETAS/RTA-CAR_12.2.0/RTA-CAR/workspace/Basic_Workflow/build/../src/os\RTAOS.lib(SuspendOSInterrupts.o)
 .debug_str     0x00566529       0x61 C:/ETAS/RTA-CAR_12.2.0/RTA-CAR/workspace/Basic_Workflow/build/../src/os\RTAOS.lib(Os_Cfg_Counters.o)
 .debug_str     0x0056658a       0x38 C:/ETAS/RTA-CAR_12.2.0/RTA-CAR/workspace/Basic_Workflow/build/../src/os\RTAOS.lib(SuspendAllInterrupts.o)
 .debug_str     0x005665c2       0x61 C:/ETAS/RTA-CAR_12.2.0/RTA-CAR/workspace/Basic_Workflow/build/../src/os\RTAOS.lib(Os_Cfg.o)
 .debug_str     0x00566623       0x37 C:/ETAS/RTA-CAR_12.2.0/RTA-CAR/workspace/Basic_Workflow/build/../src/os\RTAOS.lib(StopScheduleTable.o)
 .debug_str     0x0056665a       0x2b C:/ETAS/RTA-CAR_12.2.0/RTA-CAR/workspace/Basic_Workflow/build/../src/os\RTAOS.lib(ResumeOSInterrupts.o)
 .debug_str     0x00566685      0x4af C:/ETAS/RTA-CAR_12.2.0/RTA-CAR/workspace/Basic_Workflow/build/../src/os\RTAOS.lib(vrtaSystemClock.o)
 .debug_str     0x00566b34       0x4f C:/ETAS/RTA-CAR_12.2.0/RTA-CAR/workspace/Basic_Workflow/build/../src/os\RTAOS.lib(StartScheduleTableRel.o)
 .debug_str     0x00566b83       0x2b C:/ETAS/RTA-CAR_12.2.0/RTA-CAR/workspace/Basic_Workflow/build/../src/os\RTAOS.lib(ResumeAllInterrupts.o)
 .debug_str     0x00566bae       0x2b C:/ETAS/RTA-CAR_12.2.0/RTA-CAR/workspace/Basic_Workflow/build/../src/os\RTAOS.lib(GetResource.o)
 .debug_str     0x00566bd9      0x627 C:/ETAS/RTA-CAR_12.2.0/RTA-CAR/workspace/Basic_Workflow/build/../src/os\RTAOS.lib(vrtaSampleDevices.o)
 .debug_str     0x00567200       0x6c C:/ETAS/RTA-CAR_12.2.0/RTA-CAR/workspace/Basic_Workflow/build/../src/os\RTAOS.lib(StartOS.o)
 .debug_str     0x0056726c       0x4a C:/ETAS/RTA-CAR_12.2.0/RTA-CAR/workspace/Basic_Workflow/build/../src/os\RTAOS.lib(ShutdownOS.o)
 .debug_str     0x005672b6       0x18 C:/ETAS/RTA-CAR_12.2.0/RTA-CAR/workspace/Basic_Workflow/build/../src/os\RTAOS.lib(vrtaPrintf.o)
 .debug_str     0x005672ce       0x43 C:/ETAS/RTA-CAR_12.2.0/RTA-CAR/workspace/Basic_Workflow/build/../src/os\RTAOS.lib(ActivateTask.o)
 .debug_str     0x00567311       0x37 C:/ETAS/RTA-CAR_12.2.0/RTA-CAR/workspace/Basic_Workflow/build/../src/os\RTAOS.lib(ReleaseResource.o)
 .debug_str     0x00567348       0x1e C:/ETAS/RTA-CAR_12.2.0/RTA-CAR/workspace/Basic_Workflow/build/../src/os\RTAOS.lib(GetISRID.o)
 .debug_str     0x00567366      0x13a C:/ETAS/RTA-CAR_12.2.0/RTA-CAR/workspace/Basic_Workflow/build/../src/os\RTAOS.lib(vrtaLoggerDevice.o)
 .debug_str     0x005674a0       0x53 C:/ETAS/RTA-CAR_12.2.0/RTA-CAR/workspace/Basic_Workflow/build/../src/os\RTAOS.lib(vrtaIdleHandling.o)
 .debug_str     0x005674f3       0x3f C:/ETAS/RTA-CAR_12.2.0/RTA-CAR/workspace/Basic_Workflow/build/../src/os\RTAOS.lib(DispatchTask.o)
 .debug_str     0x00567532      0x2a3 C:/ETAS/RTA-CAR_12.2.0/RTA-CAR/workspace/Basic_Workflow/build/../src/os\RTAOS.lib(vrtaCore.o)
 .debug_str     0x005677d5       0xd7 C:/ETAS/RTA-CAR_12.2.0/RTA-CAR/workspace/Basic_Workflow/build/../src/os\RTAOS.lib(vrtaAppMain.o)
 .debug_str     0x005678ac      0x55b C:/ETAS/RTA-CAR_12.2.0/RTA-CAR/workspace/Basic_Workflow/build/../src/os\RTAOS.lib(virtualDevice.o)
 .debug_str     0x00567e07       0x1e C:/ETAS/RTA-CAR_12.2.0/RTA-CAR/workspace/Basic_Workflow/build/../src/os\RTAOS.lib(Os_vectors.o)
 .debug_str     0x00567e25       0x1e C:/ETAS/RTA-CAR_12.2.0/RTA-CAR/workspace/Basic_Workflow/build/../src/os\RTAOS.lib(Os_Stack.o)
 .debug_str     0x00567e43       0x2a C:/ETAS/RTA-CAR_12.2.0/RTA-CAR/workspace/Basic_Workflow/build/../src/os\RTAOS.lib(Os_Cfg_KL.o)
 .debug_str     0x00567e6d       0x1e C:/ETAS/RTA-CAR_12.2.0/RTA-CAR/workspace/Basic_Workflow/build/../src/os\RTAOS.lib(Os_fsb.o)
 .debug_str     0x00567e8b       0x27 C:/ETAS/RTA-CAR_12.2.0/RTA-CAR/workspace/Basic_Workflow/build/../src/os\RTAOS.lib(GetStackValue.o)
 .debug_str     0x00567eb2      0x3ff C:/ETAS/RTA-CAR_12.2.0/RTA-CAR/workspace/Basic_Workflow/build/../src/os\RTAOS.lib(vrtaSystemClockDevice.o)
 .debug_str     0x005682b1       0x1e C:/ETAS/RTA-CAR_12.2.0/RTA-CAR/workspace/Basic_Workflow/build/../src/os\RTAOS.lib(InShutdown.o)
 .debug_str     0x005682cf      0x25f C:/ETAS/RTA-CAR_12.2.0/RTA-CAR/workspace/Basic_Workflow/build/../src/os\RTAOS.lib(vrtaOSMonitorDevice.o)
 .debug_str     0x0056852e       0x37 C:/ETAS/RTA-CAR_12.2.0/RTA-CAR/workspace/Basic_Workflow/build/../src/os\RTAOS.lib(Os_wrapper.o)
 .debug_str     0x00568565        0x0 c:/mingw/bin/../lib/gcc/mingw32/6.3.0\libgcc.a(_ctors.o)
 .debug_str     0x00568565        0x0 c:/mingw/bin/../lib/gcc/mingw32/6.3.0\libgcc.a(_divdi3.o)
 .debug_str     0x00568565       0xf8 c:/mingw/bin/../lib/gcc/mingw32/6.3.0\libgcc.a(gthr-win32.o)
 .debug_str     0x0056865d       0xd4 c:/mingw/bin/../lib/gcc/mingw32/6.3.0\libgcc_eh.a(unwind-dw2.o)
 .debug_str     0x00568731       0xe2 c:/mingw/bin/../lib/gcc/mingw32/6.3.0\libgcc_eh.a(unwind-dw2-fde.o)

.zdebug_str
 *(.zdebug_str)

.debug_loc      0x00569000    0x10000
 *(.debug_loc)
 .debug_loc     0x00569000       0x1e C:/ETAS/RTA-CAR_12.2.0/RTA-CAR/workspace/Basic_Workflow/build/../src/os\RTAOS.lib(SuspendOSInterrupts.o)
 .debug_loc     0x0056901e      0x21a C:/ETAS/RTA-CAR_12.2.0/RTA-CAR/workspace/Basic_Workflow/build/../src/os\RTAOS.lib(Os_Cfg_Counters.o)
 .debug_loc     0x00569238       0x1e C:/ETAS/RTA-CAR_12.2.0/RTA-CAR/workspace/Basic_Workflow/build/../src/os\RTAOS.lib(SuspendAllInterrupts.o)
 .debug_loc     0x00569256       0x64 C:/ETAS/RTA-CAR_12.2.0/RTA-CAR/workspace/Basic_Workflow/build/../src/os\RTAOS.lib(Os_Cfg.o)
 .debug_loc     0x005692ba       0x5f C:/ETAS/RTA-CAR_12.2.0/RTA-CAR/workspace/Basic_Workflow/build/../src/os\RTAOS.lib(StopScheduleTable.o)
 .debug_loc     0x00569319      0x924 C:/ETAS/RTA-CAR_12.2.0/RTA-CAR/workspace/Basic_Workflow/build/../src/os\RTAOS.lib(vrtaSystemClock.o)
 .debug_loc     0x00569c3d       0x6b C:/ETAS/RTA-CAR_12.2.0/RTA-CAR/workspace/Basic_Workflow/build/../src/os\RTAOS.lib(StartScheduleTableRel.o)
 .debug_loc     0x00569ca8       0x2a C:/ETAS/RTA-CAR_12.2.0/RTA-CAR/workspace/Basic_Workflow/build/../src/os\RTAOS.lib(GetResource.o)
 .debug_loc     0x00569cd2     0x2f79 C:/ETAS/RTA-CAR_12.2.0/RTA-CAR/workspace/Basic_Workflow/build/../src/os\RTAOS.lib(vrtaSampleDevices.o)
 .debug_loc     0x0056cc4b       0x38 C:/ETAS/RTA-CAR_12.2.0/RTA-CAR/workspace/Basic_Workflow/build/../src/os\RTAOS.lib(StartOS.o)
 .debug_loc     0x0056cc83       0x82 C:/ETAS/RTA-CAR_12.2.0/RTA-CAR/workspace/Basic_Workflow/build/../src/os\RTAOS.lib(vrtaPrintf.o)
 .debug_loc     0x0056cd05       0xa3 C:/ETAS/RTA-CAR_12.2.0/RTA-CAR/workspace/Basic_Workflow/build/../src/os\RTAOS.lib(ActivateTask.o)
 .debug_loc     0x0056cda8       0x7a C:/ETAS/RTA-CAR_12.2.0/RTA-CAR/workspace/Basic_Workflow/build/../src/os\RTAOS.lib(ReleaseResource.o)
 .debug_loc     0x0056ce22      0x788 C:/ETAS/RTA-CAR_12.2.0/RTA-CAR/workspace/Basic_Workflow/build/../src/os\RTAOS.lib(vrtaLoggerDevice.o)
 .debug_loc     0x0056d5aa       0x48 C:/ETAS/RTA-CAR_12.2.0/RTA-CAR/workspace/Basic_Workflow/build/../src/os\RTAOS.lib(vrtaIdleHandling.o)
 .debug_loc     0x0056d5f2       0x4e C:/ETAS/RTA-CAR_12.2.0/RTA-CAR/workspace/Basic_Workflow/build/../src/os\RTAOS.lib(DispatchTask.o)
 .debug_loc     0x0056d640      0x56f C:/ETAS/RTA-CAR_12.2.0/RTA-CAR/workspace/Basic_Workflow/build/../src/os\RTAOS.lib(vrtaCore.o)
 .debug_loc     0x0056dbaf     0x1f09 C:/ETAS/RTA-CAR_12.2.0/RTA-CAR/workspace/Basic_Workflow/build/../src/os\RTAOS.lib(virtualDevice.o)
 .debug_loc     0x0056fab8       0x1f C:/ETAS/RTA-CAR_12.2.0/RTA-CAR/workspace/Basic_Workflow/build/../src/os\RTAOS.lib(Os_Stack.o)
 .debug_loc     0x0056fad7      0xd23 C:/ETAS/RTA-CAR_12.2.0/RTA-CAR/workspace/Basic_Workflow/build/../src/os\RTAOS.lib(vrtaSystemClockDevice.o)
 .debug_loc     0x005707fa      0xc6d C:/ETAS/RTA-CAR_12.2.0/RTA-CAR/workspace/Basic_Workflow/build/../src/os\RTAOS.lib(vrtaOSMonitorDevice.o)
 .debug_loc     0x00571467       0x56 C:/ETAS/RTA-CAR_12.2.0/RTA-CAR/workspace/Basic_Workflow/build/../src/os\RTAOS.lib(Os_wrapper.o)
 .debug_loc     0x005714bd      0x29c c:/mingw/bin/../lib/gcc/mingw32/6.3.0\libgcc.a(_divdi3.o)
 .debug_loc     0x00571759      0x17f c:/mingw/bin/../lib/gcc/mingw32/6.3.0\libgcc.a(gthr-win32.o)
 .debug_loc     0x005718d8     0x50e9 c:/mingw/bin/../lib/gcc/mingw32/6.3.0\libgcc_eh.a(unwind-dw2.o)
 .debug_loc     0x005769c1     0x24f5 c:/mingw/bin/../lib/gcc/mingw32/6.3.0\libgcc_eh.a(unwind-dw2-fde.o)

.zdebug_loc
 *(.zdebug_loc)

.debug_macinfo
 *(.debug_macinfo)

.zdebug_macinfo
 *(.zdebug_macinfo)

.debug_weaknames
 *(.debug_weaknames)

.zdebug_weaknames
 *(.zdebug_weaknames)

.debug_funcnames
 *(.debug_funcnames)

.zdebug_funcnames
 *(.zdebug_funcnames)

.debug_typenames
 *(.debug_typenames)

.zdebug_typenames
 *(.zdebug_typenames)

.debug_varnames
 *(.debug_varnames)

.zdebug_varnames
 *(.zdebug_varnames)

.debug_macro
 *(.debug_macro)

.zdebug_macro
 *(.zdebug_macro)

.debug_ranges   0x00579000     0x2a00
 *(.debug_ranges)
 .debug_ranges  0x00579000       0x30 CMakeFiles\Basic_workflow.dir/objects.a(unity_2_c.c.obj)
 .debug_ranges  0x00579030       0x18 CMakeFiles\Basic_workflow.dir/objects.a(Rte_Lib.c.obj)
 .debug_ranges  0x00579048      0x2d0 CMakeFiles\Basic_workflow.dir/objects.a(Can_Device.cpp.obj)
 .debug_ranges  0x00579318       0x18 CMakeFiles\Basic_workflow.dir/objects.a(Can_HwProvider.cpp.obj)
 .debug_ranges  0x00579330       0x58 CMakeFiles\Basic_workflow.dir/objects.a(Can_Implementation.cpp.obj)
 .debug_ranges  0x00579388       0xb0 CMakeFiles\Basic_workflow.dir/objects.a(Mcu_Device.cpp.obj)
 .debug_ranges  0x00579438      0x2d0 CMakeFiles\Basic_workflow.dir/objects.a(VirtualCan.cpp.obj)
 .debug_ranges  0x00579708       0x30 CMakeFiles\Basic_workflow.dir/objects.a(VRTA_SystemClock.cpp.obj)
 .debug_ranges  0x00579738       0x20 C:/ETAS/RTA-CAR_12.2.0/RTA-CAR/workspace/Basic_Workflow/build/../src/os\RTAOS.lib(Os_Cfg_Counters.o)
 .debug_ranges  0x00579758       0x28 C:/ETAS/RTA-CAR_12.2.0/RTA-CAR/workspace/Basic_Workflow/build/../src/os\RTAOS.lib(Os_Cfg.o)
 .debug_ranges  0x00579780      0x318 C:/ETAS/RTA-CAR_12.2.0/RTA-CAR/workspace/Basic_Workflow/build/../src/os\RTAOS.lib(vrtaSystemClock.o)
 .debug_ranges  0x00579a98      0x5a8 C:/ETAS/RTA-CAR_12.2.0/RTA-CAR/workspace/Basic_Workflow/build/../src/os\RTAOS.lib(vrtaSampleDevices.o)
 .debug_ranges  0x0057a040       0x18 C:/ETAS/RTA-CAR_12.2.0/RTA-CAR/workspace/Basic_Workflow/build/../src/os\RTAOS.lib(vrtaPrintf.o)
 .debug_ranges  0x0057a058       0x18 C:/ETAS/RTA-CAR_12.2.0/RTA-CAR/workspace/Basic_Workflow/build/../src/os\RTAOS.lib(ActivateTask.o)
 .debug_ranges  0x0057a070       0xb8 C:/ETAS/RTA-CAR_12.2.0/RTA-CAR/workspace/Basic_Workflow/build/../src/os\RTAOS.lib(vrtaLoggerDevice.o)
 .debug_ranges  0x0057a128       0x30 C:/ETAS/RTA-CAR_12.2.0/RTA-CAR/workspace/Basic_Workflow/build/../src/os\RTAOS.lib(vrtaIdleHandling.o)
 .debug_ranges  0x0057a158      0x190 C:/ETAS/RTA-CAR_12.2.0/RTA-CAR/workspace/Basic_Workflow/build/../src/os\RTAOS.lib(vrtaCore.o)
 .debug_ranges  0x0057a2e8       0x18 C:/ETAS/RTA-CAR_12.2.0/RTA-CAR/workspace/Basic_Workflow/build/../src/os\RTAOS.lib(vrtaAppMain.o)
 .debug_ranges  0x0057a300      0x488 C:/ETAS/RTA-CAR_12.2.0/RTA-CAR/workspace/Basic_Workflow/build/../src/os\RTAOS.lib(virtualDevice.o)
 .debug_ranges  0x0057a788      0x2a8 C:/ETAS/RTA-CAR_12.2.0/RTA-CAR/workspace/Basic_Workflow/build/../src/os\RTAOS.lib(vrtaSystemClockDevice.o)
 .debug_ranges  0x0057aa30      0x228 C:/ETAS/RTA-CAR_12.2.0/RTA-CAR/workspace/Basic_Workflow/build/../src/os\RTAOS.lib(vrtaOSMonitorDevice.o)
 .debug_ranges  0x0057ac58       0x18 C:/ETAS/RTA-CAR_12.2.0/RTA-CAR/workspace/Basic_Workflow/build/../src/os\RTAOS.lib(Os_wrapper.o)
 .debug_ranges  0x0057ac70       0x28 c:/mingw/bin/../lib/gcc/mingw32/6.3.0\libgcc.a(_divdi3.o)
 .debug_ranges  0x0057ac98       0x30 c:/mingw/bin/../lib/gcc/mingw32/6.3.0\libgcc.a(gthr-win32.o)
 .debug_ranges  0x0057acc8      0x7a0 c:/mingw/bin/../lib/gcc/mingw32/6.3.0\libgcc_eh.a(unwind-dw2.o)
 .debug_ranges  0x0057b468      0x498 c:/mingw/bin/../lib/gcc/mingw32/6.3.0\libgcc_eh.a(unwind-dw2-fde.o)

.zdebug_ranges
 *(.zdebug_ranges)

.debug_types
 *(.debug_types .gnu.linkonce.wt.*)

.zdebug_types
 *(.zdebug_types .gnu.linkonce.wt.*)
OUTPUT(C:\ETAS\RTA-CAR_12.2.0\RTA-CAR\workspace\Basic_Workflow\build\output\Basic_workflow.exe pei-i386)
