Archive member included to satisfy reference by file (symbol)

/usr/lib/w32api/libws2_32.a(libws2_32s00191.o)
                              CMakeFiles/Basic_workflow.dir/cygdrive/c/ETAS/RTA-CAR_12.2.0/RTA-CAR/workspace/Basic_Workflow/src/mcal/VirtualCan.cpp.o (select)
/usr/lib/w32api/libws2_32.a(libws2_32h.o)
                              /usr/lib/w32api/libws2_32.a(libws2_32s00191.o) (_head_lib64_libws2_32_a)
/usr/lib/w32api/libws2_32.a(libws2_32t.o)
                              /usr/lib/w32api/libws2_32.a(libws2_32h.o) (__lib64_libws2_32_a_iname)
/usr/lib/gcc/x86_64-pc-cygwin/11/libstdc++.a(class_type_info.o)
                              CMakeFiles/Basic_workflow.dir/cygdrive/c/ETAS/RTA-CAR_12.2.0/RTA-CAR/workspace/Basic_Workflow/src/mcal/Can_Device.cpp.o (vtable for __cxxabiv1::__class_type_info)
/usr/lib/gcc/x86_64-pc-cygwin/11/libstdc++.a(del_ops.o)
                              CMakeFiles/Basic_workflow.dir/cygdrive/c/ETAS/RTA-CAR_12.2.0/RTA-CAR/workspace/Basic_Workflow/src/mcal/Can_Device.cpp.o (operator delete(void*, unsigned long))
/usr/lib/gcc/x86_64-pc-cygwin/11/libstdc++.a(del_opv.o)
                              CMakeFiles/Basic_workflow.dir/cygdrive/c/ETAS/RTA-CAR_12.2.0/RTA-CAR/workspace/Basic_Workflow/src/mcal/Can_Implementation.cpp.o (operator delete[](void*))
/usr/lib/gcc/x86_64-pc-cygwin/11/libstdc++.a(del_opvs.o)
                              CMakeFiles/Basic_workflow.dir/cygdrive/c/ETAS/RTA-CAR_12.2.0/RTA-CAR/workspace/Basic_Workflow/src/mcal/VirtualCan.cpp.o (operator delete[](void*, unsigned long))
/usr/lib/gcc/x86_64-pc-cygwin/11/libstdc++.a(eh_aux_runtime.o)
                              CMakeFiles/Basic_workflow.dir/cygdrive/c/ETAS/RTA-CAR_12.2.0/RTA-CAR/workspace/Basic_Workflow/src/mcal/Can_HwProvider.cpp.o (__cxa_throw_bad_array_new_length)
/usr/lib/gcc/x86_64-pc-cygwin/11/libstdc++.a(eh_personality.o)
                              CMakeFiles/Basic_workflow.dir/cygdrive/c/ETAS/RTA-CAR_12.2.0/RTA-CAR/workspace/Basic_Workflow/src/mcal/Can_Device.cpp.o (__gxx_personality_seh0)
/usr/lib/gcc/x86_64-pc-cygwin/11/libstdc++.a(eh_terminate.o)
                              /usr/lib/gcc/x86_64-pc-cygwin/11/libstdc++.a(eh_personality.o) (__cxxabiv1::__terminate(void (*)()))
/usr/lib/gcc/x86_64-pc-cygwin/11/libstdc++.a(eh_throw.o)
                              /usr/lib/gcc/x86_64-pc-cygwin/11/libstdc++.a(eh_aux_runtime.o) (__cxa_throw)
/usr/lib/gcc/x86_64-pc-cygwin/11/libstdc++.a(eh_unex_handler.o)
                              /usr/lib/gcc/x86_64-pc-cygwin/11/libstdc++.a(eh_terminate.o) (__cxxabiv1::__unexpected_handler)
/usr/lib/gcc/x86_64-pc-cygwin/11/libstdc++.a(new_op.o)
                              CMakeFiles/Basic_workflow.dir/cygdrive/c/ETAS/RTA-CAR_12.2.0/RTA-CAR/workspace/Basic_Workflow/src/mcal/Can_Device.cpp.o (operator new(unsigned long))
/usr/lib/gcc/x86_64-pc-cygwin/11/libstdc++.a(new_opv.o)
                              CMakeFiles/Basic_workflow.dir/cygdrive/c/ETAS/RTA-CAR_12.2.0/RTA-CAR/workspace/Basic_Workflow/src/mcal/Can_HwProvider.cpp.o (operator new[](unsigned long))
/usr/lib/gcc/x86_64-pc-cygwin/11/libstdc++.a(si_class_type_info.o)
                              CMakeFiles/Basic_workflow.dir/cygdrive/c/ETAS/RTA-CAR_12.2.0/RTA-CAR/workspace/Basic_Workflow/src/mcal/Can_Device.cpp.o (vtable for __cxxabiv1::__si_class_type_info)
/usr/lib/gcc/x86_64-pc-cygwin/11/libstdc++.a(tinfo.o)
                              /usr/lib/gcc/x86_64-pc-cygwin/11/libstdc++.a(class_type_info.o) (std::type_info::~type_info())
/usr/lib/gcc/x86_64-pc-cygwin/11/libstdc++.a(vterminate.o)
                              /usr/lib/gcc/x86_64-pc-cygwin/11/libstdc++.a(eh_terminate.o) (__gnu_cxx::__verbose_terminate_handler())
/usr/lib/gcc/x86_64-pc-cygwin/11/libstdc++.a(bad_alloc.o)
                              /usr/lib/gcc/x86_64-pc-cygwin/11/libstdc++.a(new_op.o) (std::bad_alloc::~bad_alloc())
/usr/lib/gcc/x86_64-pc-cygwin/11/libstdc++.a(bad_array_new.o)
                              /usr/lib/gcc/x86_64-pc-cygwin/11/libstdc++.a(eh_aux_runtime.o) (std::bad_array_new_length::~bad_array_new_length())
/usr/lib/gcc/x86_64-pc-cygwin/11/libstdc++.a(bad_cast.o)
                              /usr/lib/gcc/x86_64-pc-cygwin/11/libstdc++.a(eh_aux_runtime.o) (std::bad_cast::~bad_cast())
/usr/lib/gcc/x86_64-pc-cygwin/11/libstdc++.a(bad_typeid.o)
                              /usr/lib/gcc/x86_64-pc-cygwin/11/libstdc++.a(eh_aux_runtime.o) (std::bad_typeid::~bad_typeid())
/usr/lib/gcc/x86_64-pc-cygwin/11/libstdc++.a(cp-demangle.o)
                              /usr/lib/gcc/x86_64-pc-cygwin/11/libstdc++.a(vterminate.o) (__cxa_demangle)
/usr/lib/gcc/x86_64-pc-cygwin/11/libstdc++.a(del_op.o)
                              /usr/lib/gcc/x86_64-pc-cygwin/11/libstdc++.a(del_ops.o) (operator delete(void*))
/usr/lib/gcc/x86_64-pc-cygwin/11/libstdc++.a(eh_alloc.o)
                              /usr/lib/gcc/x86_64-pc-cygwin/11/libstdc++.a(eh_throw.o) (__cxa_free_exception)
/usr/lib/gcc/x86_64-pc-cygwin/11/libstdc++.a(eh_call.o)
                              /usr/lib/gcc/x86_64-pc-cygwin/11/libstdc++.a(eh_personality.o) (__cxa_call_terminate)
/usr/lib/gcc/x86_64-pc-cygwin/11/libstdc++.a(eh_catch.o)
                              /usr/lib/gcc/x86_64-pc-cygwin/11/libstdc++.a(eh_personality.o) (__cxa_begin_catch)
/usr/lib/gcc/x86_64-pc-cygwin/11/libstdc++.a(eh_exception.o)
                              /usr/lib/gcc/x86_64-pc-cygwin/11/libstdc++.a(bad_alloc.o) (std::exception::~exception())
/usr/lib/gcc/x86_64-pc-cygwin/11/libstdc++.a(eh_globals.o)
                              /usr/lib/gcc/x86_64-pc-cygwin/11/libstdc++.a(eh_personality.o) (__cxa_get_globals_fast)
/usr/lib/gcc/x86_64-pc-cygwin/11/libstdc++.a(eh_term_handler.o)
                              /usr/lib/gcc/x86_64-pc-cygwin/11/libstdc++.a(eh_terminate.o) (__cxxabiv1::__terminate_handler)
/usr/lib/gcc/x86_64-pc-cygwin/11/libstdc++.a(eh_type.o)
                              /usr/lib/gcc/x86_64-pc-cygwin/11/libstdc++.a(vterminate.o) (__cxa_current_exception_type)
/usr/lib/gcc/x86_64-pc-cygwin/11/libstdc++.a(new_handler.o)
                              /usr/lib/gcc/x86_64-pc-cygwin/11/libstdc++.a(new_op.o) (std::get_new_handler())
/usr/lib/gcc/x86_64-pc-cygwin/11/libgcc.a(_chkstk_ms.o)
                              /usr/lib/gcc/x86_64-pc-cygwin/11/libstdc++.a(cp-demangle.o) (___chkstk_ms)
/usr/lib/gcc/x86_64-pc-cygwin/11/libgcc_eh.a(unwind-seh.o)
                              /usr/lib/gcc/x86_64-pc-cygwin/11/libstdc++.a(eh_personality.o) (_Unwind_SetGR)
/usr/lib/gcc/x86_64-pc-cygwin/11/libgcc_eh.a(emutls.o)
                              /usr/lib/gcc/x86_64-pc-cygwin/11/libstdc++.a(eh_globals.o) (__emutls_get_address)
/usr/lib/gcc/x86_64-pc-cygwin/11/../../../../lib/libcygwin.a(cygwin1_dll_d000017.o)
                              /usr/lib/gcc/x86_64-pc-cygwin/11/crtbegin.o (__cxa_atexit)
/usr/lib/gcc/x86_64-pc-cygwin/11/../../../../lib/libcygwin.a(cygwin1_dll_d000037.o)
                              /usr/lib/gcc/x86_64-pc-cygwin/11/libstdc++.a(vterminate.o) (__getreent)
/usr/lib/gcc/x86_64-pc-cygwin/11/../../../../lib/libcygwin.a(cygwin1_dll_d000094.o)
                              CMakeFiles/Basic_workflow.dir/cygdrive/c/ETAS/RTA-CAR_12.2.0/RTA-CAR/workspace/Basic_Workflow/src/mcal/Can_Implementation.cpp.o (__wrap__ZdaPv)
/usr/lib/gcc/x86_64-pc-cygwin/11/../../../../lib/libcygwin.a(cygwin1_dll_d000096.o)
                              /usr/lib/gcc/x86_64-pc-cygwin/11/libstdc++.a(del_ops.o) (__wrap__ZdlPv)
/usr/lib/gcc/x86_64-pc-cygwin/11/../../../../lib/libcygwin.a(cygwin1_dll_d000098.o)
                              CMakeFiles/Basic_workflow.dir/cygdrive/c/ETAS/RTA-CAR_12.2.0/RTA-CAR/workspace/Basic_Workflow/src/mcal/Can_HwProvider.cpp.o (__wrap__Znam)
/usr/lib/gcc/x86_64-pc-cygwin/11/../../../../lib/libcygwin.a(cygwin1_dll_d000100.o)
                              CMakeFiles/Basic_workflow.dir/cygdrive/c/ETAS/RTA-CAR_12.2.0/RTA-CAR/workspace/Basic_Workflow/src/mcal/Can_Device.cpp.o (__wrap__Znwm)
/usr/lib/gcc/x86_64-pc-cygwin/11/../../../../lib/libcygwin.a(cygwin1_dll_d000129.o)
                              /usr/lib/gcc/x86_64-pc-cygwin/11/libstdc++.a(eh_personality.o) (abort)
/usr/lib/gcc/x86_64-pc-cygwin/11/../../../../lib/libcygwin.a(cygwin1_dll_d000260.o)
                              /usr/lib/gcc/x86_64-pc-cygwin/11/libgcc_eh.a(emutls.o) (calloc)
/usr/lib/gcc/x86_64-pc-cygwin/11/../../../../lib/libcygwin.a(cygwin1_dll_d000577.o)
                              /usr/lib/gcc/x86_64-pc-cygwin/11/libstdc++.a(vterminate.o) (fputc)
/usr/lib/gcc/x86_64-pc-cygwin/11/../../../../lib/libcygwin.a(cygwin1_dll_d000579.o)
                              /usr/lib/gcc/x86_64-pc-cygwin/11/libstdc++.a(vterminate.o) (fputs)
/usr/lib/gcc/x86_64-pc-cygwin/11/../../../../lib/libcygwin.a(cygwin1_dll_d000587.o)
                              /usr/lib/gcc/x86_64-pc-cygwin/11/libstdc++.a(vterminate.o) (free)
/usr/lib/gcc/x86_64-pc-cygwin/11/../../../../lib/libcygwin.a(cygwin1_dll_d000628.o)
                              /usr/lib/gcc/x86_64-pc-cygwin/11/libstdc++.a(vterminate.o) (fwrite)
/usr/lib/gcc/x86_64-pc-cygwin/11/../../../../lib/libcygwin.a(cygwin1_dll_d000917.o)
                              /usr/lib/gcc/x86_64-pc-cygwin/11/libstdc++.a(new_op.o) (malloc)
/usr/lib/gcc/x86_64-pc-cygwin/11/../../../../lib/libcygwin.a(cygwin1_dll_d000934.o)
                              CMakeFiles/Basic_workflow.dir/cygdrive/c/ETAS/RTA-CAR_12.2.0/RTA-CAR/workspace/Basic_Workflow/src/mcal/Can_Device.cpp.o (memcpy)
/usr/lib/gcc/x86_64-pc-cygwin/11/../../../../lib/libcygwin.a(cygwin1_dll_d000939.o)
                              CMakeFiles/Basic_workflow.dir/cygdrive/c/ETAS/RTA-CAR_12.2.0/RTA-CAR/workspace/Basic_Workflow/src/mcal/Can_Device.cpp.o (memset)
/usr/lib/gcc/x86_64-pc-cygwin/11/../../../../lib/libcygwin.a(cygwin1_dll_d001022.o)
                              CMakeFiles/Basic_workflow.dir/cygdrive/c/ETAS/RTA-CAR_12.2.0/RTA-CAR/workspace/Basic_Workflow/src/mcal/VirtualCan.cpp.o (pipe)
/usr/lib/gcc/x86_64-pc-cygwin/11/../../../../lib/libcygwin.a(cygwin1_dll_d001120.o)
                              /usr/lib/gcc/x86_64-pc-cygwin/11/libgcc_eh.a(emutls.o) (pthread_getspecific)
/usr/lib/gcc/x86_64-pc-cygwin/11/../../../../lib/libcygwin.a(cygwin1_dll_d001122.o)
                              /usr/lib/gcc/x86_64-pc-cygwin/11/libgcc_eh.a(emutls.o) (pthread_key_create)
/usr/lib/gcc/x86_64-pc-cygwin/11/../../../../lib/libcygwin.a(cygwin1_dll_d001129.o)
                              /usr/lib/gcc/x86_64-pc-cygwin/11/libstdc++.a(eh_alloc.o) (pthread_mutex_lock)
/usr/lib/gcc/x86_64-pc-cygwin/11/../../../../lib/libcygwin.a(cygwin1_dll_d001133.o)
                              /usr/lib/gcc/x86_64-pc-cygwin/11/libstdc++.a(eh_alloc.o) (pthread_mutex_unlock)
/usr/lib/gcc/x86_64-pc-cygwin/11/../../../../lib/libcygwin.a(cygwin1_dll_d001144.o)
                              /usr/lib/gcc/x86_64-pc-cygwin/11/libgcc_eh.a(emutls.o) (pthread_once)
/usr/lib/gcc/x86_64-pc-cygwin/11/../../../../lib/libcygwin.a(cygwin1_dll_d001168.o)
                              /usr/lib/gcc/x86_64-pc-cygwin/11/libgcc_eh.a(emutls.o) (pthread_setspecific)
/usr/lib/gcc/x86_64-pc-cygwin/11/../../../../lib/libcygwin.a(cygwin1_dll_d001208.o)
                              CMakeFiles/Basic_workflow.dir/cygdrive/c/ETAS/RTA-CAR_12.2.0/RTA-CAR/workspace/Basic_Workflow/src/mcal/VirtualCan.cpp.o (read)
/usr/lib/gcc/x86_64-pc-cygwin/11/../../../../lib/libcygwin.a(cygwin1_dll_d001214.o)
                              /usr/lib/gcc/x86_64-pc-cygwin/11/libstdc++.a(cp-demangle.o) (realloc)
/usr/lib/gcc/x86_64-pc-cygwin/11/../../../../lib/libcygwin.a(cygwin1_dll_d001409.o)
                              /usr/lib/gcc/x86_64-pc-cygwin/11/libstdc++.a(cp-demangle.o) (sprintf)
/usr/lib/gcc/x86_64-pc-cygwin/11/../../../../lib/libcygwin.a(cygwin1_dll_d001430.o)
                              /usr/lib/gcc/x86_64-pc-cygwin/11/libstdc++.a(tinfo.o) (strcmp)
/usr/lib/gcc/x86_64-pc-cygwin/11/../../../../lib/libcygwin.a(cygwin1_dll_d001433.o)
                              CMakeFiles/Basic_workflow.dir/cygdrive/c/ETAS/RTA-CAR_12.2.0/RTA-CAR/workspace/Basic_Workflow/src/mcal/Can_Device.cpp.o (strcpy)
/usr/lib/gcc/x86_64-pc-cygwin/11/../../../../lib/libcygwin.a(cygwin1_dll_d001445.o)
                              CMakeFiles/Basic_workflow.dir/cygdrive/c/ETAS/RTA-CAR_12.2.0/RTA-CAR/workspace/Basic_Workflow/src/mcal/Can_Device.cpp.o (strlen)
/usr/lib/gcc/x86_64-pc-cygwin/11/../../../../lib/libcygwin.a(cygwin1_dll_d001450.o)
                              /usr/lib/gcc/x86_64-pc-cygwin/11/libstdc++.a(cp-demangle.o) (strncmp)
/usr/lib/gcc/x86_64-pc-cygwin/11/../../../../lib/libcygwin.a(cygwin1_dll_d001612.o)
                              CMakeFiles/Basic_workflow.dir/Unity/unity_4_c.c.o (vsprintf)
/usr/lib/gcc/x86_64-pc-cygwin/11/../../../../lib/libcygwin.a(cygwin1_dll_d001694.o)
                              CMakeFiles/Basic_workflow.dir/cygdrive/c/ETAS/RTA-CAR_12.2.0/RTA-CAR/workspace/Basic_Workflow/src/mcal/VirtualCan.cpp.o (write)
/usr/lib/gcc/x86_64-pc-cygwin/11/../../../../lib/libcygwin.a(t-cygwin1_dll_d000017.o)
                              /usr/lib/gcc/x86_64-pc-cygwin/11/crtbegin.o (__cxa_atexit)
/usr/lib/gcc/x86_64-pc-cygwin/11/../../../../lib/libcygwin.a(t-cygwin1_dll_d000037.o)
                              /usr/lib/gcc/x86_64-pc-cygwin/11/libstdc++.a(vterminate.o) (__getreent)
/usr/lib/gcc/x86_64-pc-cygwin/11/../../../../lib/libcygwin.a(t-cygwin1_dll_d000094.o)
                              CMakeFiles/Basic_workflow.dir/cygdrive/c/ETAS/RTA-CAR_12.2.0/RTA-CAR/workspace/Basic_Workflow/src/mcal/Can_Implementation.cpp.o (__wrap__ZdaPv)
/usr/lib/gcc/x86_64-pc-cygwin/11/../../../../lib/libcygwin.a(t-cygwin1_dll_d000096.o)
                              /usr/lib/gcc/x86_64-pc-cygwin/11/libstdc++.a(del_ops.o) (__wrap__ZdlPv)
/usr/lib/gcc/x86_64-pc-cygwin/11/../../../../lib/libcygwin.a(t-cygwin1_dll_d000098.o)
                              CMakeFiles/Basic_workflow.dir/cygdrive/c/ETAS/RTA-CAR_12.2.0/RTA-CAR/workspace/Basic_Workflow/src/mcal/Can_HwProvider.cpp.o (__wrap__Znam)
/usr/lib/gcc/x86_64-pc-cygwin/11/../../../../lib/libcygwin.a(t-cygwin1_dll_d000100.o)
                              CMakeFiles/Basic_workflow.dir/cygdrive/c/ETAS/RTA-CAR_12.2.0/RTA-CAR/workspace/Basic_Workflow/src/mcal/Can_Device.cpp.o (__wrap__Znwm)
/usr/lib/gcc/x86_64-pc-cygwin/11/../../../../lib/libcygwin.a(t-cygwin1_dll_d000129.o)
                              /usr/lib/gcc/x86_64-pc-cygwin/11/libstdc++.a(eh_personality.o) (abort)
/usr/lib/gcc/x86_64-pc-cygwin/11/../../../../lib/libcygwin.a(t-cygwin1_dll_d000260.o)
                              /usr/lib/gcc/x86_64-pc-cygwin/11/libgcc_eh.a(emutls.o) (calloc)
/usr/lib/gcc/x86_64-pc-cygwin/11/../../../../lib/libcygwin.a(t-cygwin1_dll_d000577.o)
                              /usr/lib/gcc/x86_64-pc-cygwin/11/libstdc++.a(vterminate.o) (fputc)
/usr/lib/gcc/x86_64-pc-cygwin/11/../../../../lib/libcygwin.a(t-cygwin1_dll_d000579.o)
                              /usr/lib/gcc/x86_64-pc-cygwin/11/libstdc++.a(vterminate.o) (fputs)
/usr/lib/gcc/x86_64-pc-cygwin/11/../../../../lib/libcygwin.a(t-cygwin1_dll_d000587.o)
                              /usr/lib/gcc/x86_64-pc-cygwin/11/libstdc++.a(vterminate.o) (free)
/usr/lib/gcc/x86_64-pc-cygwin/11/../../../../lib/libcygwin.a(t-cygwin1_dll_d000628.o)
                              /usr/lib/gcc/x86_64-pc-cygwin/11/libstdc++.a(vterminate.o) (fwrite)
/usr/lib/gcc/x86_64-pc-cygwin/11/../../../../lib/libcygwin.a(t-cygwin1_dll_d000917.o)
                              /usr/lib/gcc/x86_64-pc-cygwin/11/libstdc++.a(new_op.o) (malloc)
/usr/lib/gcc/x86_64-pc-cygwin/11/../../../../lib/libcygwin.a(t-cygwin1_dll_d000934.o)
                              CMakeFiles/Basic_workflow.dir/cygdrive/c/ETAS/RTA-CAR_12.2.0/RTA-CAR/workspace/Basic_Workflow/src/mcal/Can_Device.cpp.o (memcpy)
/usr/lib/gcc/x86_64-pc-cygwin/11/../../../../lib/libcygwin.a(t-cygwin1_dll_d000939.o)
                              CMakeFiles/Basic_workflow.dir/cygdrive/c/ETAS/RTA-CAR_12.2.0/RTA-CAR/workspace/Basic_Workflow/src/mcal/Can_Device.cpp.o (memset)
/usr/lib/gcc/x86_64-pc-cygwin/11/../../../../lib/libcygwin.a(t-cygwin1_dll_d001022.o)
                              CMakeFiles/Basic_workflow.dir/cygdrive/c/ETAS/RTA-CAR_12.2.0/RTA-CAR/workspace/Basic_Workflow/src/mcal/VirtualCan.cpp.o (pipe)
/usr/lib/gcc/x86_64-pc-cygwin/11/../../../../lib/libcygwin.a(t-cygwin1_dll_d001120.o)
                              /usr/lib/gcc/x86_64-pc-cygwin/11/libgcc_eh.a(emutls.o) (pthread_getspecific)
/usr/lib/gcc/x86_64-pc-cygwin/11/../../../../lib/libcygwin.a(t-cygwin1_dll_d001122.o)
                              /usr/lib/gcc/x86_64-pc-cygwin/11/libgcc_eh.a(emutls.o) (pthread_key_create)
/usr/lib/gcc/x86_64-pc-cygwin/11/../../../../lib/libcygwin.a(t-cygwin1_dll_d001129.o)
                              /usr/lib/gcc/x86_64-pc-cygwin/11/libstdc++.a(eh_alloc.o) (pthread_mutex_lock)
/usr/lib/gcc/x86_64-pc-cygwin/11/../../../../lib/libcygwin.a(t-cygwin1_dll_d001133.o)
                              /usr/lib/gcc/x86_64-pc-cygwin/11/libstdc++.a(eh_alloc.o) (pthread_mutex_unlock)
/usr/lib/gcc/x86_64-pc-cygwin/11/../../../../lib/libcygwin.a(t-cygwin1_dll_d001144.o)
                              /usr/lib/gcc/x86_64-pc-cygwin/11/libgcc_eh.a(emutls.o) (pthread_once)
/usr/lib/gcc/x86_64-pc-cygwin/11/../../../../lib/libcygwin.a(t-cygwin1_dll_d001168.o)
                              /usr/lib/gcc/x86_64-pc-cygwin/11/libgcc_eh.a(emutls.o) (pthread_setspecific)
/usr/lib/gcc/x86_64-pc-cygwin/11/../../../../lib/libcygwin.a(t-cygwin1_dll_d001208.o)
                              CMakeFiles/Basic_workflow.dir/cygdrive/c/ETAS/RTA-CAR_12.2.0/RTA-CAR/workspace/Basic_Workflow/src/mcal/VirtualCan.cpp.o (read)
/usr/lib/gcc/x86_64-pc-cygwin/11/../../../../lib/libcygwin.a(t-cygwin1_dll_d001214.o)
                              /usr/lib/gcc/x86_64-pc-cygwin/11/libstdc++.a(cp-demangle.o) (realloc)
/usr/lib/gcc/x86_64-pc-cygwin/11/../../../../lib/libcygwin.a(t-cygwin1_dll_d001409.o)
                              /usr/lib/gcc/x86_64-pc-cygwin/11/libstdc++.a(cp-demangle.o) (sprintf)
/usr/lib/gcc/x86_64-pc-cygwin/11/../../../../lib/libcygwin.a(t-cygwin1_dll_d001430.o)
                              /usr/lib/gcc/x86_64-pc-cygwin/11/libstdc++.a(tinfo.o) (strcmp)
/usr/lib/gcc/x86_64-pc-cygwin/11/../../../../lib/libcygwin.a(t-cygwin1_dll_d001433.o)
                              CMakeFiles/Basic_workflow.dir/cygdrive/c/ETAS/RTA-CAR_12.2.0/RTA-CAR/workspace/Basic_Workflow/src/mcal/Can_Device.cpp.o (strcpy)
/usr/lib/gcc/x86_64-pc-cygwin/11/../../../../lib/libcygwin.a(t-cygwin1_dll_d001445.o)
                              CMakeFiles/Basic_workflow.dir/cygdrive/c/ETAS/RTA-CAR_12.2.0/RTA-CAR/workspace/Basic_Workflow/src/mcal/Can_Device.cpp.o (strlen)
/usr/lib/gcc/x86_64-pc-cygwin/11/../../../../lib/libcygwin.a(t-cygwin1_dll_d001450.o)
                              /usr/lib/gcc/x86_64-pc-cygwin/11/libstdc++.a(cp-demangle.o) (strncmp)
/usr/lib/gcc/x86_64-pc-cygwin/11/../../../../lib/libcygwin.a(t-cygwin1_dll_d001612.o)
                              CMakeFiles/Basic_workflow.dir/Unity/unity_4_c.c.o (vsprintf)
/usr/lib/gcc/x86_64-pc-cygwin/11/../../../../lib/libcygwin.a(t-cygwin1_dll_d001694.o)
                              CMakeFiles/Basic_workflow.dir/cygdrive/c/ETAS/RTA-CAR_12.2.0/RTA-CAR/workspace/Basic_Workflow/src/mcal/VirtualCan.cpp.o (write)
/usr/lib/gcc/x86_64-pc-cygwin/11/../../../../lib/libcygwin.a(atexit.o)
                              CMakeFiles/Basic_workflow.dir/cygdrive/c/ETAS/RTA-CAR_12.2.0/RTA-CAR/workspace/Basic_Workflow/src/mcal/VirtualCan.cpp.o (atexit)
/usr/lib/gcc/x86_64-pc-cygwin/11/../../../../lib/libcygwin.a(cygwin_crt0.o)
                              /usr/lib/gcc/x86_64-pc-cygwin/11/../../../../lib/crt0.o (cygwin_crt0)
/usr/lib/gcc/x86_64-pc-cygwin/11/../../../../lib/libcygwin.a(libcmain.o)
                              /usr/lib/gcc/x86_64-pc-cygwin/11/../../../../lib/crt0.o (main)
/usr/lib/gcc/x86_64-pc-cygwin/11/../../../../lib/libcygwin.a(premain0.o)
                              /usr/lib/gcc/x86_64-pc-cygwin/11/../../../../lib/crt0.o (cygwin_premain0)
/usr/lib/gcc/x86_64-pc-cygwin/11/../../../../lib/libcygwin.a(premain1.o)
                              /usr/lib/gcc/x86_64-pc-cygwin/11/../../../../lib/crt0.o (cygwin_premain1)
/usr/lib/gcc/x86_64-pc-cygwin/11/../../../../lib/libcygwin.a(premain2.o)
                              /usr/lib/gcc/x86_64-pc-cygwin/11/../../../../lib/crt0.o (cygwin_premain2)
/usr/lib/gcc/x86_64-pc-cygwin/11/../../../../lib/libcygwin.a(premain3.o)
                              /usr/lib/gcc/x86_64-pc-cygwin/11/../../../../lib/crt0.o (cygwin_premain3)
/usr/lib/gcc/x86_64-pc-cygwin/11/../../../../lib/libcygwin.a(cygwin1_dll_d000000.o)
                              /usr/lib/gcc/x86_64-pc-cygwin/11/../../../../lib/libcygwin.a(cygwin1_dll_d000017.o) (_head_cygwin1_dll)
/usr/lib/gcc/x86_64-pc-cygwin/11/../../../../lib/libcygwin.a(cygwin1_dll_d000048.o)
                              /usr/lib/gcc/x86_64-pc-cygwin/11/../../../../lib/libcygwin.a(libcmain.o) (__main)
/usr/lib/gcc/x86_64-pc-cygwin/11/../../../../lib/libcygwin.a(cygwin1_dll_d000110.o)
                              /usr/lib/gcc/x86_64-pc-cygwin/11/../../../../lib/libcygwin.a(cygwin_crt0.o) (__imp__dll_crt0)
/usr/lib/gcc/x86_64-pc-cygwin/11/../../../../lib/libcygwin.a(cygwin1_dll_d000383.o)
                              /usr/lib/gcc/x86_64-pc-cygwin/11/../../../../lib/libcygwin.a(atexit.o) (cygwin_internal)
/usr/lib/gcc/x86_64-pc-cygwin/11/../../../../lib/libcygwin.a(cygwin1_dll_d001428.o)
                              /usr/lib/gcc/x86_64-pc-cygwin/11/../../../../lib/libcygwin.a(libcmain.o) (strchr)
/usr/lib/gcc/x86_64-pc-cygwin/11/../../../../lib/libcygwin.a(cygwin1_dll_d001455.o)
                              /usr/lib/gcc/x86_64-pc-cygwin/11/../../../../lib/libcygwin.a(libcmain.o) (strpbrk)
/usr/lib/gcc/x86_64-pc-cygwin/11/../../../../lib/libcygwin.a(cygwin1_dll_d001461.o)
                              /usr/lib/gcc/x86_64-pc-cygwin/11/../../../../lib/libcygwin.a(libcmain.o) (strspn)
/usr/lib/gcc/x86_64-pc-cygwin/11/../../../../lib/libcygwin.a(cygwin1_dll_d001750.o)
                              /usr/lib/gcc/x86_64-pc-cygwin/11/../../../../lib/libcygwin.a(cygwin1_dll_d000000.o) (cygwin1_dll_iname)
/usr/lib/gcc/x86_64-pc-cygwin/11/../../../../lib/libcygwin.a(t-cygwin1_dll_d000048.o)
                              /usr/lib/gcc/x86_64-pc-cygwin/11/../../../../lib/libcygwin.a(libcmain.o) (__main)
/usr/lib/gcc/x86_64-pc-cygwin/11/../../../../lib/libcygwin.a(t-cygwin1_dll_d000383.o)
                              /usr/lib/gcc/x86_64-pc-cygwin/11/../../../../lib/libcygwin.a(atexit.o) (cygwin_internal)
/usr/lib/gcc/x86_64-pc-cygwin/11/../../../../lib/libcygwin.a(t-cygwin1_dll_d001428.o)
                              /usr/lib/gcc/x86_64-pc-cygwin/11/../../../../lib/libcygwin.a(libcmain.o) (strchr)
/usr/lib/gcc/x86_64-pc-cygwin/11/../../../../lib/libcygwin.a(t-cygwin1_dll_d001455.o)
                              /usr/lib/gcc/x86_64-pc-cygwin/11/../../../../lib/libcygwin.a(libcmain.o) (strpbrk)
/usr/lib/gcc/x86_64-pc-cygwin/11/../../../../lib/libcygwin.a(t-cygwin1_dll_d001461.o)
                              /usr/lib/gcc/x86_64-pc-cygwin/11/../../../../lib/libcygwin.a(libcmain.o) (strspn)
/usr/lib/gcc/x86_64-pc-cygwin/11/../../../../lib/libcygwin.a(_cygwin_crt0_common.o)
                              /usr/lib/gcc/x86_64-pc-cygwin/11/../../../../lib/libcygwin.a(cygwin_crt0.o) (_cygwin_crt0_common)
/usr/lib/gcc/x86_64-pc-cygwin/11/../../../../lib/libcygwin.a(dll_entry.o)
                              /usr/lib/gcc/x86_64-pc-cygwin/11/../../../../lib/libcygwin.a(_cygwin_crt0_common.o) (__dynamically_loaded)
/usr/lib/gcc/x86_64-pc-cygwin/11/../../../../lib/libcygwin.a(dll_main.o)
                              /usr/lib/gcc/x86_64-pc-cygwin/11/../../../../lib/libcygwin.a(dll_entry.o) (DllMain)
/usr/lib/gcc/x86_64-pc-cygwin/11/../../../../lib/libcygwin.a(pseudo-reloc-dummy.o)
                              /usr/lib/gcc/x86_64-pc-cygwin/11/../../../../lib/libcygwin.a(_cygwin_crt0_common.o) (_pei386_runtime_relocator)
/usr/lib/gcc/x86_64-pc-cygwin/11/../../../../lib/libcygwin.a(cygwin1_dll_d000117.o)
                              /usr/lib/gcc/x86_64-pc-cygwin/11/../../../../lib/libcygwin.a(_cygwin_crt0_common.o) (__imp__impure_ptr)
/usr/lib/gcc/x86_64-pc-cygwin/11/../../../../lib/libcygwin.a(cygwin1_dll_d000381.o)
                              /usr/lib/gcc/x86_64-pc-cygwin/11/../../../../lib/libcygwin.a(dll_entry.o) (cygwin_detach_dll)
/usr/lib/gcc/x86_64-pc-cygwin/11/../../../../lib/libcygwin.a(cygwin1_dll_d001029.o)
                              /usr/lib/gcc/x86_64-pc-cygwin/11/../../../../lib/libcygwin.a(_cygwin_crt0_common.o) (posix_memalign)
/usr/lib/gcc/x86_64-pc-cygwin/11/../../../../lib/libcygwin.a(t-cygwin1_dll_d000381.o)
                              /usr/lib/gcc/x86_64-pc-cygwin/11/../../../../lib/libcygwin.a(dll_entry.o) (cygwin_detach_dll)
/usr/lib/gcc/x86_64-pc-cygwin/11/../../../../lib/libcygwin.a(t-cygwin1_dll_d001029.o)
                              /usr/lib/gcc/x86_64-pc-cygwin/11/../../../../lib/libcygwin.a(_cygwin_crt0_common.o) (posix_memalign)
/usr/lib/gcc/x86_64-pc-cygwin/11/../../../../lib/libcygwin.a(cygwin_attach_dll.o)
                              /usr/lib/gcc/x86_64-pc-cygwin/11/../../../../lib/libcygwin.a(dll_entry.o) (cygwin_attach_dll)
/usr/lib/gcc/x86_64-pc-cygwin/11/../../../../lib/libcygwin.a(cygwin1_dll_d000411.o)
                              /usr/lib/gcc/x86_64-pc-cygwin/11/../../../../lib/libcygwin.a(cygwin_attach_dll.o) (dll_dllcrt0)
/usr/lib/gcc/x86_64-pc-cygwin/11/../../../../lib/libcygwin.a(t-cygwin1_dll_d000411.o)
                              /usr/lib/gcc/x86_64-pc-cygwin/11/../../../../lib/libcygwin.a(cygwin_attach_dll.o) (dll_dllcrt0)
/usr/lib/w32api/libkernel32.a(libkernel32s01234.o)
                              /usr/lib/gcc/x86_64-pc-cygwin/11/libgcc_eh.a(unwind-seh.o) (__imp_RtlVirtualUnwind)
/usr/lib/w32api/libkernel32.a(libkernel32s01233.o)
                              /usr/lib/gcc/x86_64-pc-cygwin/11/libgcc_eh.a(unwind-seh.o) (__imp_RtlUnwindEx)
/usr/lib/w32api/libkernel32.a(libkernel32s01227.o)
                              /usr/lib/gcc/x86_64-pc-cygwin/11/libgcc_eh.a(unwind-seh.o) (__imp_RtlLookupFunctionEntry)
/usr/lib/w32api/libkernel32.a(libkernel32s01220.o)
                              /usr/lib/gcc/x86_64-pc-cygwin/11/libgcc_eh.a(unwind-seh.o) (__imp_RtlCaptureContext)
/usr/lib/w32api/libkernel32.a(libkernel32s01150.o)
                              /usr/lib/gcc/x86_64-pc-cygwin/11/libgcc_eh.a(unwind-seh.o) (__imp_RaiseException)
/usr/lib/w32api/libkernel32.a(libkernel32s00740.o)
                              /usr/lib/gcc/x86_64-pc-cygwin/11/../../../../lib/libcygwin.a(libcmain.o) (__imp_GetStartupInfoA)
/usr/lib/w32api/libkernel32.a(libkernel32s00651.o)
                              /usr/lib/gcc/x86_64-pc-cygwin/11/../../../../lib/libcygwin.a(atexit.o) (__imp_GetModuleHandleW)
/usr/lib/w32api/libkernel32.a(libkernel32s00648.o)
                              /usr/lib/gcc/x86_64-pc-cygwin/11/../../../../lib/libcygwin.a(_cygwin_crt0_common.o) (GetModuleHandleA)
/usr/lib/w32api/libkernel32.a(libkernel32s00484.o)
                              /usr/lib/gcc/x86_64-pc-cygwin/11/../../../../lib/libcygwin.a(libcmain.o) (__imp_GetCommandLineA)
/usr/lib/w32api/libkernel32.a(libkernel32h.o)
                              /usr/lib/w32api/libkernel32.a(libkernel32s01234.o) (_head_lib64_libkernel32_a)
/usr/lib/w32api/libkernel32.a(libkernel32t.o)
                              /usr/lib/w32api/libkernel32.a(libkernel32h.o) (__lib64_libkernel32_a_iname)
/usr/lib/gcc/x86_64-pc-cygwin/11/libgcc.a(_ctors.o)
                              /usr/lib/gcc/x86_64-pc-cygwin/11/../../../../lib/libcygwin.a(_cygwin_crt0_common.o) (__DTOR_LIST__)

Discarded input sections

 .rdata$.refptr.EcuM_EcuMConfigurations_cpcast
                0x0000000000000000       0x10 CMakeFiles/Basic_workflow.dir/cygdrive/c/ETAS/RTA-CAR_12.2.0/RTA-CAR/workspace/Basic_Workflow/src/bsw/EcuM/src/EcuM_Prv.c.o
 .rdata$.refptr.EcuM_Cfg_idxWakeupSourcesPC_au32
                0x0000000000000000       0x10 CMakeFiles/Basic_workflow.dir/cygdrive/c/ETAS/RTA-CAR_12.2.0/RTA-CAR/workspace/Basic_Workflow/src/bsw/EcuM/src/EcuM_Prv.c.o
 .rdata$.refptr.EcuM_Prv_dataPresentPhase_u8
                0x0000000000000000       0x10 CMakeFiles/Basic_workflow.dir/cygdrive/c/ETAS/RTA-CAR_12.2.0/RTA-CAR/workspace/Basic_Workflow/src/bsw/EcuM/src/EcuM_Shutdown.c.o
 .rdata$.refptr.EcuM_Prv_flgGoDown_b
                0x0000000000000000       0x10 CMakeFiles/Basic_workflow.dir/cygdrive/c/ETAS/RTA-CAR_12.2.0/RTA-CAR/workspace/Basic_Workflow/src/bsw/EcuM/src/EcuM_Shutdown.c.o
 .rdata$.refptr.EcuM_Prv_dataSelectedShutdownTarget_st
                0x0000000000000000       0x10 CMakeFiles/Basic_workflow.dir/cygdrive/c/ETAS/RTA-CAR_12.2.0/RTA-CAR/workspace/Basic_Workflow/src/bsw/EcuM/src/EcuM_Shutdown.c.o
 .rdata$.refptr.EcuM_Prv_flgIsModuleInitialised_b
                0x0000000000000000       0x10 CMakeFiles/Basic_workflow.dir/cygdrive/c/ETAS/RTA-CAR_12.2.0/RTA-CAR/workspace/Basic_Workflow/src/bsw/EcuM/src/EcuM_Shutdown.c.o
 .rdata$.refptr.EcuM_Prv_dataSelectedShutdownTarget_st
                0x0000000000000000       0x10 CMakeFiles/Basic_workflow.dir/cygdrive/c/ETAS/RTA-CAR_12.2.0/RTA-CAR/workspace/Basic_Workflow/src/bsw/EcuM/src/EcuM_ShutdownServices.c.o
 .rdata$.refptr.EcuM_Prv_flgShutdownInfoDoNotUpdate_b
                0x0000000000000000       0x10 CMakeFiles/Basic_workflow.dir/cygdrive/c/ETAS/RTA-CAR_12.2.0/RTA-CAR/workspace/Basic_Workflow/src/bsw/EcuM/src/EcuM_ShutdownServices.c.o
 .rdata$.refptr.EcuM_Prv_flgIsModuleInitialised_b
                0x0000000000000000       0x10 CMakeFiles/Basic_workflow.dir/cygdrive/c/ETAS/RTA-CAR_12.2.0/RTA-CAR/workspace/Basic_Workflow/src/bsw/EcuM/src/EcuM_ShutdownServices.c.o
 .rdata$.refptr.EcuM_Prv_flgIsModuleInitialised_b
                0x0000000000000000       0x10 CMakeFiles/Basic_workflow.dir/cygdrive/c/ETAS/RTA-CAR_12.2.0/RTA-CAR/workspace/Basic_Workflow/src/bsw/EcuM/src/EcuM_Startup.c.o
 .rdata$.refptr.EcuM_Prv_dataValidatedWakeupEvents_u32
                0x0000000000000000       0x10 CMakeFiles/Basic_workflow.dir/cygdrive/c/ETAS/RTA-CAR_12.2.0/RTA-CAR/workspace/Basic_Workflow/src/bsw/EcuM/src/EcuM_Startup.c.o
 .rdata$.refptr.EcuM_Prv_dataPendingWakeupEvents_u32
                0x0000000000000000       0x10 CMakeFiles/Basic_workflow.dir/cygdrive/c/ETAS/RTA-CAR_12.2.0/RTA-CAR/workspace/Basic_Workflow/src/bsw/EcuM/src/EcuM_Startup.c.o
 .rdata$.refptr.EcuM_Prv_dataSelectedShutdownTarget_st
                0x0000000000000000       0x10 CMakeFiles/Basic_workflow.dir/cygdrive/c/ETAS/RTA-CAR_12.2.0/RTA-CAR/workspace/Basic_Workflow/src/bsw/EcuM/src/EcuM_Startup.c.o
 .rdata$.refptr.EcuM_Prv_dataPresentPhase_u8
                0x0000000000000000       0x10 CMakeFiles/Basic_workflow.dir/cygdrive/c/ETAS/RTA-CAR_12.2.0/RTA-CAR/workspace/Basic_Workflow/src/bsw/EcuM/src/EcuM_Startup.c.o
 .rdata$.refptr.EcuM_Prv_dataPresentPhase_u8
                0x0000000000000000       0x10 CMakeFiles/Basic_workflow.dir/cygdrive/c/ETAS/RTA-CAR_12.2.0/RTA-CAR/workspace/Basic_Workflow/src/bsw/EcuM/src/EcuM_WakeupServices.c.o
 .rdata$.refptr.EcuM_Prv_flgIsModuleInitialised_b
                0x0000000000000000       0x10 CMakeFiles/Basic_workflow.dir/cygdrive/c/ETAS/RTA-CAR_12.2.0/RTA-CAR/workspace/Basic_Workflow/src/bsw/EcuM/src/EcuM_WakeupServices.c.o
 .rdata$.refptr.EcuM_Prv_WkpSrcValidationTimeoutCtr_u16
                0x0000000000000000       0x10 CMakeFiles/Basic_workflow.dir/cygdrive/c/ETAS/RTA-CAR_12.2.0/RTA-CAR/workspace/Basic_Workflow/src/bsw/EcuM/src/EcuM_WakeupServices.c.o
 .rdata$.refptr.EcuM_Prv_dataValWkpEventsInd_u32
                0x0000000000000000       0x10 CMakeFiles/Basic_workflow.dir/cygdrive/c/ETAS/RTA-CAR_12.2.0/RTA-CAR/workspace/Basic_Workflow/src/bsw/EcuM/src/EcuM_WakeupServices.c.o
 .rdata$.refptr.EcuM_Cfg_idxWakeupSourcesPC_au32
                0x0000000000000000       0x10 CMakeFiles/Basic_workflow.dir/cygdrive/c/ETAS/RTA-CAR_12.2.0/RTA-CAR/workspace/Basic_Workflow/src/bsw/EcuM/src/EcuM_WakeupServices.c.o
 .rdata$.refptr.EcuM_Prv_dataExpiredWakeupEvents_u32
                0x0000000000000000       0x10 CMakeFiles/Basic_workflow.dir/cygdrive/c/ETAS/RTA-CAR_12.2.0/RTA-CAR/workspace/Basic_Workflow/src/bsw/EcuM/src/EcuM_WakeupServices.c.o
 .rdata$.refptr.EcuM_Prv_dataValidatedWakeupEvents_u32
                0x0000000000000000       0x10 CMakeFiles/Basic_workflow.dir/cygdrive/c/ETAS/RTA-CAR_12.2.0/RTA-CAR/workspace/Basic_Workflow/src/bsw/EcuM/src/EcuM_WakeupServices.c.o
 .rdata$.refptr.EcuM_Prv_dataPendingWakeupEvents_u32
                0x0000000000000000       0x10 CMakeFiles/Basic_workflow.dir/cygdrive/c/ETAS/RTA-CAR_12.2.0/RTA-CAR/workspace/Basic_Workflow/src/bsw/EcuM/src/EcuM_WakeupServices.c.o
 .text$_ZN13VirtualDevice8StartingEv
                0x0000000000000000       0x10 CMakeFiles/Basic_workflow.dir/cygdrive/c/ETAS/RTA-CAR_12.2.0/RTA-CAR/workspace/Basic_Workflow/src/mcal/Mcu_Device.cpp.o
 .text$_ZN13VirtualDevice8StoppingEv
                0x0000000000000000       0x10 CMakeFiles/Basic_workflow.dir/cygdrive/c/ETAS/RTA-CAR_12.2.0/RTA-CAR/workspace/Basic_Workflow/src/mcal/Mcu_Device.cpp.o
 .text$_ZN13VirtualDevice8SetValueIhEEvR9vrtaEventT_
                0x0000000000000000       0x70 CMakeFiles/Basic_workflow.dir/cygdrive/c/ETAS/RTA-CAR_12.2.0/RTA-CAR/workspace/Basic_Workflow/src/mcal/Mcu_Device.cpp.o
 .rdata$_ZTI13VirtualDevice
                0x0000000000000000       0x10 CMakeFiles/Basic_workflow.dir/cygdrive/c/ETAS/RTA-CAR_12.2.0/RTA-CAR/workspace/Basic_Workflow/src/mcal/Mcu_Device.cpp.o
 .rdata$_ZTS13VirtualDevice
                0x0000000000000000       0x10 CMakeFiles/Basic_workflow.dir/cygdrive/c/ETAS/RTA-CAR_12.2.0/RTA-CAR/workspace/Basic_Workflow/src/mcal/Mcu_Device.cpp.o
 .rdata$.refptr.__dso_handle
                0x0000000000000000       0x10 CMakeFiles/Basic_workflow.dir/cygdrive/c/ETAS/RTA-CAR_12.2.0/RTA-CAR/workspace/Basic_Workflow/src/mcal/Mcu_Device.cpp.o
 .rdata$.refptr.__dso_handle
                0x0000000000000000       0x10 CMakeFiles/Basic_workflow.dir/cygdrive/c/ETAS/RTA-CAR_12.2.0/RTA-CAR/workspace/Basic_Workflow/src/mcal/VirtualCan.cpp.o
 .rdata$.refptr.__dso_handle
                0x0000000000000000       0x10 CMakeFiles/Basic_workflow.dir/cygdrive/c/ETAS/RTA-CAR_12.2.0/RTA-CAR/workspace/Basic_Workflow/src/vrta/VRTA_SystemClock.cpp.o
 .rdata$_ZTSSt9exception
                0x0000000000000000       0x10 /usr/lib/gcc/x86_64-pc-cygwin/11/libstdc++.a(eh_personality.o)
 .rdata$_ZTISt9exception
                0x0000000000000000       0x10 /usr/lib/gcc/x86_64-pc-cygwin/11/libstdc++.a(eh_personality.o)
 .rdata$_ZTSSt9exception
                0x0000000000000000       0x10 /usr/lib/gcc/x86_64-pc-cygwin/11/libstdc++.a(new_op.o)
 .rdata$_ZTISt9exception
                0x0000000000000000       0x10 /usr/lib/gcc/x86_64-pc-cygwin/11/libstdc++.a(new_op.o)
 .rdata$_ZTSSt9bad_alloc
                0x0000000000000000       0x10 /usr/lib/gcc/x86_64-pc-cygwin/11/libstdc++.a(new_op.o)
 .rdata$_ZTISt9bad_alloc
                0x0000000000000000       0x20 /usr/lib/gcc/x86_64-pc-cygwin/11/libstdc++.a(new_op.o)
 .rdata$_ZTSSt9type_info
                0x0000000000000000       0x10 /usr/lib/gcc/x86_64-pc-cygwin/11/libstdc++.a(si_class_type_info.o)
 .rdata$_ZTISt9type_info
                0x0000000000000000       0x10 /usr/lib/gcc/x86_64-pc-cygwin/11/libstdc++.a(si_class_type_info.o)
 .rdata$_ZTSN10__cxxabiv117__class_type_infoE
                0x0000000000000000       0x40 /usr/lib/gcc/x86_64-pc-cygwin/11/libstdc++.a(si_class_type_info.o)
 .rdata$_ZTIN10__cxxabiv117__class_type_infoE
                0x0000000000000000       0x20 /usr/lib/gcc/x86_64-pc-cygwin/11/libstdc++.a(si_class_type_info.o)
 .rdata$_ZTSSt9type_info
                0x0000000000000000       0x10 /usr/lib/gcc/x86_64-pc-cygwin/11/libstdc++.a(tinfo.o)
 .rdata$_ZTISt9type_info
                0x0000000000000000       0x10 /usr/lib/gcc/x86_64-pc-cygwin/11/libstdc++.a(tinfo.o)
 .rdata$_ZTSSt9exception
                0x0000000000000000       0x10 /usr/lib/gcc/x86_64-pc-cygwin/11/libstdc++.a(vterminate.o)
 .rdata$_ZTISt9exception
                0x0000000000000000       0x10 /usr/lib/gcc/x86_64-pc-cygwin/11/libstdc++.a(vterminate.o)
 .rdata$_ZTSSt9exception
                0x0000000000000000       0x10 /usr/lib/gcc/x86_64-pc-cygwin/11/libstdc++.a(bad_alloc.o)
 .rdata$_ZTISt9exception
                0x0000000000000000       0x10 /usr/lib/gcc/x86_64-pc-cygwin/11/libstdc++.a(bad_alloc.o)
 .rdata$_ZTSSt9bad_alloc
                0x0000000000000000       0x10 /usr/lib/gcc/x86_64-pc-cygwin/11/libstdc++.a(bad_alloc.o)
 .rdata$_ZTISt9bad_alloc
                0x0000000000000000       0x20 /usr/lib/gcc/x86_64-pc-cygwin/11/libstdc++.a(bad_alloc.o)
 .rdata$_ZTSSt9exception
                0x0000000000000000       0x10 /usr/lib/gcc/x86_64-pc-cygwin/11/libstdc++.a(bad_array_new.o)
 .rdata$_ZTISt9exception
                0x0000000000000000       0x10 /usr/lib/gcc/x86_64-pc-cygwin/11/libstdc++.a(bad_array_new.o)
 .rdata$_ZTSSt9bad_alloc
                0x0000000000000000       0x10 /usr/lib/gcc/x86_64-pc-cygwin/11/libstdc++.a(bad_array_new.o)
 .rdata$_ZTISt9bad_alloc
                0x0000000000000000       0x20 /usr/lib/gcc/x86_64-pc-cygwin/11/libstdc++.a(bad_array_new.o)
 .rdata$_ZTSSt20bad_array_new_length
                0x0000000000000000       0x20 /usr/lib/gcc/x86_64-pc-cygwin/11/libstdc++.a(bad_array_new.o)
 .rdata$_ZTISt20bad_array_new_length
                0x0000000000000000       0x20 /usr/lib/gcc/x86_64-pc-cygwin/11/libstdc++.a(bad_array_new.o)
 .rdata$_ZTSSt9exception
                0x0000000000000000       0x10 /usr/lib/gcc/x86_64-pc-cygwin/11/libstdc++.a(bad_cast.o)
 .rdata$_ZTISt9exception
                0x0000000000000000       0x10 /usr/lib/gcc/x86_64-pc-cygwin/11/libstdc++.a(bad_cast.o)
 .rdata$_ZTSSt8bad_cast
                0x0000000000000000       0x10 /usr/lib/gcc/x86_64-pc-cygwin/11/libstdc++.a(bad_cast.o)
 .rdata$_ZTISt8bad_cast
                0x0000000000000000       0x20 /usr/lib/gcc/x86_64-pc-cygwin/11/libstdc++.a(bad_cast.o)
 .rdata$_ZTSSt9exception
                0x0000000000000000       0x10 /usr/lib/gcc/x86_64-pc-cygwin/11/libstdc++.a(bad_typeid.o)
 .rdata$_ZTISt9exception
                0x0000000000000000       0x10 /usr/lib/gcc/x86_64-pc-cygwin/11/libstdc++.a(bad_typeid.o)
 .rdata$_ZTSSt10bad_typeid
                0x0000000000000000       0x10 /usr/lib/gcc/x86_64-pc-cygwin/11/libstdc++.a(bad_typeid.o)
 .rdata$_ZTISt10bad_typeid
                0x0000000000000000       0x20 /usr/lib/gcc/x86_64-pc-cygwin/11/libstdc++.a(bad_typeid.o)
 .rdata$_ZTSSt9exception
                0x0000000000000000       0x10 /usr/lib/gcc/x86_64-pc-cygwin/11/libstdc++.a(eh_alloc.o)
 .rdata$_ZTISt9exception
                0x0000000000000000       0x10 /usr/lib/gcc/x86_64-pc-cygwin/11/libstdc++.a(eh_alloc.o)
 .rdata$_ZTSSt9exception
                0x0000000000000000       0x10 /usr/lib/gcc/x86_64-pc-cygwin/11/libstdc++.a(eh_exception.o)
 .rdata$_ZTISt9exception
                0x0000000000000000       0x10 /usr/lib/gcc/x86_64-pc-cygwin/11/libstdc++.a(eh_exception.o)
 .rdata$_ZTSSt13bad_exception
                0x0000000000000000       0x20 /usr/lib/gcc/x86_64-pc-cygwin/11/libstdc++.a(eh_exception.o)
 .rdata$_ZTISt13bad_exception
                0x0000000000000000       0x20 /usr/lib/gcc/x86_64-pc-cygwin/11/libstdc++.a(eh_exception.o)
 .rdata$_ZTSN10__cxxabiv115__forced_unwindE
                0x0000000000000000       0x20 /usr/lib/gcc/x86_64-pc-cygwin/11/libstdc++.a(eh_exception.o)
 .rdata$_ZTIN10__cxxabiv115__forced_unwindE
                0x0000000000000000       0x10 /usr/lib/gcc/x86_64-pc-cygwin/11/libstdc++.a(eh_exception.o)
 .rdata$_ZTSN10__cxxabiv119__foreign_exceptionE
                0x0000000000000000       0x40 /usr/lib/gcc/x86_64-pc-cygwin/11/libstdc++.a(eh_exception.o)
 .rdata$_ZTIN10__cxxabiv119__foreign_exceptionE
                0x0000000000000000       0x10 /usr/lib/gcc/x86_64-pc-cygwin/11/libstdc++.a(eh_exception.o)

Memory Configuration

Name             Origin             Length             Attributes
*default*        0x0000000000000000 0xffffffffffffffff

Linker script and memory map

                0x0000000100400000                __image_base__ = 0x100400000
                0x0000000000000000                __dll__ = 0x0
                0x0000000100400000                __ImageBase = 0x100400000
                0x0000000000001000                __section_alignment__ = 0x1000
                0x0000000000000200                __file_alignment__ = 0x200
                0x0000000000000004                __major_os_version__ = 0x4
                0x0000000000000000                __minor_os_version__ = 0x0
                0x0000000000000000                __major_image_version__ = 0x0
                0x0000000000000000                __minor_image_version__ = 0x0
                0x0000000000000005                __major_subsystem_version__ = 0x5
                0x0000000000000002                __minor_subsystem_version__ = 0x2
                0x0000000000000003                __subsystem__ = 0x3
                0x0000000000200000                __size_of_stack_reserve__ = 0x200000
                0x0000000000001000                __size_of_stack_commit__ = 0x1000
                0x0000000000100000                __size_of_heap_reserve__ = 0x100000
                0x0000000000001000                __size_of_heap_commit__ = 0x1000
                0x0000000000000000                __loader_flags__ = 0x0
                0x0000000000008000                __dll_characteristics__ = 0x8000
LOAD /usr/lib/gcc/x86_64-pc-cygwin/11/../../../../lib/crt0.o
LOAD /usr/lib/gcc/x86_64-pc-cygwin/11/crtbegin.o
LOAD CMakeFiles/Basic_workflow.dir/Unity/unity_4_c.c.o
LOAD CMakeFiles/Basic_workflow.dir/Unity/unity_3_c.c.o
LOAD CMakeFiles/Basic_workflow.dir/Unity/unity_2_c.c.o
LOAD CMakeFiles/Basic_workflow.dir/Unity/unity_1_c.c.o
LOAD CMakeFiles/Basic_workflow.dir/Unity/unity_0_c.c.o
LOAD CMakeFiles/Basic_workflow.dir/cygdrive/c/ETAS/RTA-CAR_12.2.0/RTA-CAR/workspace/Basic_Workflow/src/asw/MySWC.c.o
LOAD CMakeFiles/Basic_workflow.dir/cygdrive/c/ETAS/RTA-CAR_12.2.0/RTA-CAR/workspace/Basic_Workflow/src/bsw/Det/src/Det.c.o
LOAD CMakeFiles/Basic_workflow.dir/cygdrive/c/ETAS/RTA-CAR_12.2.0/RTA-CAR/workspace/Basic_Workflow/src/bsw/EcuM/EcuM_Cfg.c.o
LOAD CMakeFiles/Basic_workflow.dir/cygdrive/c/ETAS/RTA-CAR_12.2.0/RTA-CAR/workspace/Basic_Workflow/src/bsw/EcuM/EcuM_Cfg_PbExt.c.o
LOAD CMakeFiles/Basic_workflow.dir/cygdrive/c/ETAS/RTA-CAR_12.2.0/RTA-CAR/workspace/Basic_Workflow/src/bsw/EcuM/EcuM_Cfg_RbMo.c.o
LOAD CMakeFiles/Basic_workflow.dir/cygdrive/c/ETAS/RTA-CAR_12.2.0/RTA-CAR/workspace/Basic_Workflow/src/bsw/EcuM/EcuM_Cfg_Shutdown.c.o
LOAD CMakeFiles/Basic_workflow.dir/cygdrive/c/ETAS/RTA-CAR_12.2.0/RTA-CAR/workspace/Basic_Workflow/src/bsw/EcuM/EcuM_Cfg_Sleep.c.o
LOAD CMakeFiles/Basic_workflow.dir/cygdrive/c/ETAS/RTA-CAR_12.2.0/RTA-CAR/workspace/Basic_Workflow/src/bsw/EcuM/EcuM_Cfg_Startup.c.o
LOAD CMakeFiles/Basic_workflow.dir/cygdrive/c/ETAS/RTA-CAR_12.2.0/RTA-CAR/workspace/Basic_Workflow/src/bsw/EcuM/EcuM_Cfg_SynchPoint.c.o
LOAD CMakeFiles/Basic_workflow.dir/cygdrive/c/ETAS/RTA-CAR_12.2.0/RTA-CAR/workspace/Basic_Workflow/src/bsw/EcuM/EcuM_Lcfg.c.o
LOAD CMakeFiles/Basic_workflow.dir/cygdrive/c/ETAS/RTA-CAR_12.2.0/RTA-CAR/workspace/Basic_Workflow/src/bsw/EcuM/EcuM_PBcfg.c.o
LOAD CMakeFiles/Basic_workflow.dir/cygdrive/c/ETAS/RTA-CAR_12.2.0/RTA-CAR/workspace/Basic_Workflow/src/bsw/EcuM/integration/EcuM_Callout_Stubs.c.o
LOAD CMakeFiles/Basic_workflow.dir/cygdrive/c/ETAS/RTA-CAR_12.2.0/RTA-CAR/workspace/Basic_Workflow/src/bsw/EcuM/src/EcuM_BootTarget.c.o
LOAD CMakeFiles/Basic_workflow.dir/cygdrive/c/ETAS/RTA-CAR_12.2.0/RTA-CAR/workspace/Basic_Workflow/src/bsw/EcuM/src/EcuM_CurrentState.c.o
LOAD CMakeFiles/Basic_workflow.dir/cygdrive/c/ETAS/RTA-CAR_12.2.0/RTA-CAR/workspace/Basic_Workflow/src/bsw/EcuM/src/EcuM_KillAllRequests.c.o
LOAD CMakeFiles/Basic_workflow.dir/cygdrive/c/ETAS/RTA-CAR_12.2.0/RTA-CAR/workspace/Basic_Workflow/src/bsw/EcuM/src/EcuM_MainFunction.c.o
LOAD CMakeFiles/Basic_workflow.dir/cygdrive/c/ETAS/RTA-CAR_12.2.0/RTA-CAR/workspace/Basic_Workflow/src/bsw/EcuM/src/EcuM_Misc.c.o
LOAD CMakeFiles/Basic_workflow.dir/cygdrive/c/ETAS/RTA-CAR_12.2.0/RTA-CAR/workspace/Basic_Workflow/src/bsw/EcuM/src/EcuM_Prv.c.o
LOAD CMakeFiles/Basic_workflow.dir/cygdrive/c/ETAS/RTA-CAR_12.2.0/RTA-CAR/workspace/Basic_Workflow/src/bsw/EcuM/src/EcuM_Prv_RteActions.c.o
LOAD CMakeFiles/Basic_workflow.dir/cygdrive/c/ETAS/RTA-CAR_12.2.0/RTA-CAR/workspace/Basic_Workflow/src/bsw/EcuM/src/EcuM_ReleasePOST_RUN.c.o
LOAD CMakeFiles/Basic_workflow.dir/cygdrive/c/ETAS/RTA-CAR_12.2.0/RTA-CAR/workspace/Basic_Workflow/src/bsw/EcuM/src/EcuM_ReleaseRUN.c.o
LOAD CMakeFiles/Basic_workflow.dir/cygdrive/c/ETAS/RTA-CAR_12.2.0/RTA-CAR/workspace/Basic_Workflow/src/bsw/EcuM/src/EcuM_RequestPOST_RUN.c.o
LOAD CMakeFiles/Basic_workflow.dir/cygdrive/c/ETAS/RTA-CAR_12.2.0/RTA-CAR/workspace/Basic_Workflow/src/bsw/EcuM/src/EcuM_RequestRUN.c.o
LOAD CMakeFiles/Basic_workflow.dir/cygdrive/c/ETAS/RTA-CAR_12.2.0/RTA-CAR/workspace/Basic_Workflow/src/bsw/EcuM/src/EcuM_SetState.c.o
LOAD CMakeFiles/Basic_workflow.dir/cygdrive/c/ETAS/RTA-CAR_12.2.0/RTA-CAR/workspace/Basic_Workflow/src/bsw/EcuM/src/EcuM_Shutdown.c.o
LOAD CMakeFiles/Basic_workflow.dir/cygdrive/c/ETAS/RTA-CAR_12.2.0/RTA-CAR/workspace/Basic_Workflow/src/bsw/EcuM/src/EcuM_ShutdownServices.c.o
LOAD CMakeFiles/Basic_workflow.dir/cygdrive/c/ETAS/RTA-CAR_12.2.0/RTA-CAR/workspace/Basic_Workflow/src/bsw/EcuM/src/EcuM_Sleep.c.o
LOAD CMakeFiles/Basic_workflow.dir/cygdrive/c/ETAS/RTA-CAR_12.2.0/RTA-CAR/workspace/Basic_Workflow/src/bsw/EcuM/src/EcuM_Startup.c.o
LOAD CMakeFiles/Basic_workflow.dir/cygdrive/c/ETAS/RTA-CAR_12.2.0/RTA-CAR/workspace/Basic_Workflow/src/bsw/EcuM/src/EcuM_WakeupServices.c.o
LOAD CMakeFiles/Basic_workflow.dir/cygdrive/c/ETAS/RTA-CAR_12.2.0/RTA-CAR/workspace/Basic_Workflow/src/rte/Rte.c.o
LOAD CMakeFiles/Basic_workflow.dir/cygdrive/c/ETAS/RTA-CAR_12.2.0/RTA-CAR/workspace/Basic_Workflow/src/rte/Rte_Lib.c.o
LOAD CMakeFiles/Basic_workflow.dir/cygdrive/c/ETAS/RTA-CAR_12.2.0/RTA-CAR/workspace/Basic_Workflow/src/mcal/Can_Device.cpp.o
LOAD CMakeFiles/Basic_workflow.dir/cygdrive/c/ETAS/RTA-CAR_12.2.0/RTA-CAR/workspace/Basic_Workflow/src/mcal/Can_HwProvider.cpp.o
LOAD CMakeFiles/Basic_workflow.dir/cygdrive/c/ETAS/RTA-CAR_12.2.0/RTA-CAR/workspace/Basic_Workflow/src/mcal/Can_Implementation.cpp.o
LOAD CMakeFiles/Basic_workflow.dir/cygdrive/c/ETAS/RTA-CAR_12.2.0/RTA-CAR/workspace/Basic_Workflow/src/mcal/Mcu_Device.cpp.o
LOAD CMakeFiles/Basic_workflow.dir/cygdrive/c/ETAS/RTA-CAR_12.2.0/RTA-CAR/workspace/Basic_Workflow/src/mcal/Mcu_Implementation.cpp.o
LOAD CMakeFiles/Basic_workflow.dir/cygdrive/c/ETAS/RTA-CAR_12.2.0/RTA-CAR/workspace/Basic_Workflow/src/mcal/VirtualCan.cpp.o
LOAD CMakeFiles/Basic_workflow.dir/cygdrive/c/ETAS/RTA-CAR_12.2.0/RTA-CAR/workspace/Basic_Workflow/src/vrta/VRTA_SystemClock.cpp.o
LOAD CMakeFiles/Basic_workflow.dir/cygdrive/c/ETAS/RTA-CAR_12.2.0/RTA-CAR/workspace/Basic_Workflow/src/vrta/Vrta_Cfg.cpp.o
LOAD CMakeFiles/Basic_workflow.dir/cygdrive/c/ETAS/RTA-CAR_12.2.0/RTA-CAR/workspace/Basic_Workflow/src/vrta/target.cpp.o
LOAD /usr/lib/w32api/libwinmm.a
LOAD /usr/lib/w32api/libws2_32.a
LOAD /usr/lib/gcc/x86_64-pc-cygwin/11/libstdc++.a
LOAD /usr/lib/gcc/x86_64-pc-cygwin/11/libstdc++.a
LOAD /usr/lib/gcc/x86_64-pc-cygwin/11/libgcc.a
LOAD /usr/lib/gcc/x86_64-pc-cygwin/11/libgcc_eh.a
LOAD /usr/lib/gcc/x86_64-pc-cygwin/11/../../../../lib/libcygwin.a
LOAD /usr/lib/w32api/libadvapi32.a
LOAD /usr/lib/w32api/libshell32.a
LOAD /usr/lib/w32api/libuser32.a
LOAD /usr/lib/w32api/libkernel32.a
LOAD /usr/lib/gcc/x86_64-pc-cygwin/11/libgcc.a
LOAD /usr/lib/gcc/x86_64-pc-cygwin/11/libgcc_eh.a
LOAD /usr/lib/gcc/x86_64-pc-cygwin/11/../../../../lib/default-manifest.o
LOAD /usr/lib/gcc/x86_64-pc-cygwin/11/crtend.o
                0x0000000000000480                . = SIZEOF_HEADERS
                0x0000000000001000                . = ALIGN (__section_alignment__)

.text           0x0000000100401000    0x29e00
 *(SORT_NONE(.init))
 *(.text)
 .text          0x0000000100401000       0x50 /usr/lib/gcc/x86_64-pc-cygwin/11/../../../../lib/crt0.o
                0x0000000100401000                WinMainCRTStartup
                0x0000000100401000                mainCRTStartup
 .text          0x0000000100401050       0x30 /usr/lib/gcc/x86_64-pc-cygwin/11/crtbegin.o
                0x0000000100401050                __gcc_register_frame
                0x0000000100401070                __gcc_deregister_frame
 .text          0x0000000100401080      0xe40 CMakeFiles/Basic_workflow.dir/Unity/unity_4_c.c.o
                0x0000000100401080                PduR_GetConfigurationId
                0x000000010040109b                PduR_dGetConfigurationId
                0x00000001004010bf                PduR_iGetConfigurationId
                0x00000001004010d7                PduR_Init
                0x00000001004010f3                PduR_dInit
                0x0000000100401119                PduR_iInit
                0x0000000100401150                PduR_iInit_multicast
                0x0000000100401181                PduR_invId_IfTriggerTransmit
                0x0000000100401196                PduR_invId_UpCancelReceive
                0x00000001004011a7                PduR_invId_UpCancelTransmit
                0x00000001004011b8                PduR_MF_UpToLo
                0x000000010040135e                PduR_MF_CancelTransmit_UpToLo
                0x00000001004013ff                PduR_MF_Com_Transmit_Func
                0x0000000100401438                PduR_GwMcTx_Transmit_Func
                0x000000010040146e                PduR_NF_TriggerTransmit_Func
                0x0000000100401483                rba_BswSrv_FifoPeek
                0x00000001004014a2                rba_BswSrv_FifoPop
                0x00000001004014c9                rba_BswSrv_FifoPush
                0x00000001004014ec                rba_BswSrv_FifoInitPush
                0x0000000100401507                rba_BswSrv_FifoInitPop
                0x0000000100401522                rba_BswSrv_MemCompare
                0x00000001004016ac                rba_BswSrv_MemCopy
                0x00000001004017b3                rba_BswSrv_MemSet
                0x00000001004018b5                rba_DiagLib_ByteOrderUtils_Dummy
                0x00000001004018c0                Dem_ReportErrorStatus
                0x00000001004018d2                Dem_SetEventStatus
                0x00000001004018e4                Can_Init
                0x0000000100401900                Can_InitController
                0x0000000100401927                Can_SetControllerMode
                0x0000000100401951                Can_DisableControllerInterrupts
                0x0000000100401970                Can_EnableControllerInterrupts
                0x000000010040198f                Can_CheckWakeup
                0x00000001004019ad                Can_Write
                0x00000001004019e0                Can_MainFunction_Write
                0x00000001004019f9                Can_MainFunction_Read
                0x0000000100401a12                Can_MainFunction_BusOff
                0x0000000100401a2b                Can_MainFunction_Wakeup
                0x0000000100401a44                Can_MainFunction_Mode
                0x0000000100401a58                Can_DeInit
                0x0000000100401a6c                Can_GetControllerErrorState
                0x0000000100401a92                Can_GetControllerMode
                0x0000000100401ab8                Can_GetControllerRxErrorCounter
                0x0000000100401ade                Can_GetControllerTxErrorCounter
                0x0000000100401b04                Os_Entry_Can_IrqHandler
                0x0000000100401b18                mcal_warn
                0x0000000100401b3f                mcal_error
                0x0000000100401bd1                mcal_printf
                0x0000000100401c54                Mcu_Init
                0x0000000100401c75                Mcu_InitRamSection
                0x0000000100401c93                Mcu_InitClock
                0x0000000100401cb1                Mcu_GetPllStatus
                0x0000000100401cc9                Mcu_GetResetReason
                0x0000000100401ce1                Mcu_GetResetRawValue
                0x0000000100401cf9                Mcu_PerformReset
                0x0000000100401d12                Mcu_SetMode
                0x0000000100401d31                Os_Entry_InitTask
                0x0000000100401d4f                ErrorHook
                0x0000000100401ddf                StartupHook
                0x0000000100401df3                ShutdownHook
                0x0000000100401dff                Os_Cbk_Idle
                0x0000000100401e2c                Os_Cbk_GetStopwatch
                0x0000000100401e45                Os_Cbk_CheckMemoryAccess
                0x0000000100401e61                Os_Entry_VECU_SystemClock_ISR
                0x0000000100401e99                vrta_app_main
 .text          0x0000000100401ec0     0x1950 CMakeFiles/Basic_workflow.dir/Unity/unity_3_c.c.o
                0x0000000100401ec0                ComM_MainFunction_Can_Network_Channel_Can_Network
                0x0000000100401ed9                ComM_Prv_ValidateUserId
                0x0000000100401efb                ComM_Prv_getLeastBusSmMode
                0x0000000100401f60                ComM_Prv_UpdateChannelModes
                0x00000001004020b5                ComM_Nm_TransmissionFailure
                0x00000001004020c1                ComM_Nm_NetworkTimeoutException
                0x00000001004020cd                ComM_BusSM_BusSleepMode
                0x0000000100402165                ComM_BusSM_ModeIndication
                0x0000000100402187                ComM_CommunicationAllowed
                0x00000001004021e4                ComM_DCM_ActiveDiagnostic
                0x000000010040226f                ComM_DCM_InactiveDiagnostic
                0x00000001004022bb                ComM_DeInit
                0x0000000100402335                ComM_EcuM_PNCWakeUpIndication
                0x0000000100402341                ComM_EcuM_WakeUpIndication
                0x00000001004023d0                ComM_GetCurrentComMode
                0x0000000100402433                ComM_GetCurrentPNCComMode
                0x0000000100402485                ComM_GetMaxComMode
                0x00000001004024e2                ComM_GetRequestedComMode
                0x0000000100402568                ComM_GetStatus
                0x0000000100402591                ComM_Init
                0x0000000100402754                ComM_Prv_ChannelMainFunction
                0x0000000100402ff2                ComM_Nm_BusSleepMode
                0x0000000100403095                ComM_Nm_ForwardSynchronizedPncShutdown
                0x00000001004030a1                ComM_Nm_NetworkMode
                0x0000000100403138                ComM_Nm_NetworkStartIndication
                0x00000001004031f9                ComM_Nm_PrepareBusSleepMode
                0x000000010040328f                ComM_Nm_RestartIndication
                0x0000000100403350                ComM_RequestComMode
                0x0000000100403505                PduR_ComTransmit
                0x000000010040352c                PduR_CanIfTxConfirmation
                0x0000000100403555                PduR_CanIfRxIndication
                0x000000010040357d                PduR_dCanIfRxIndication
                0x0000000100403651                PduR_dCanIfTxConfirmation
                0x00000001004036f6                PduR_dComTransmit
                0x00000001004037d7                PduR_DisableRouting
                0x00000001004037e9                PduR_EnableRouting
                0x00000001004037f6                PduR_GF_DDIf_NoBuf_TxConfirmation_Func
 .text          0x0000000100403810     0x4fa0 CMakeFiles/Basic_workflow.dir/Unity/unity_2_c.c.o
                0x0000000100403810                Com_GetStatus
                0x000000010040381c                Com_Init
                0x0000000100403ce9                Com_InvalidateSignal
                0x0000000100403cfa                Com_Prv_RxIPduStart
                0x0000000100403d0b                Com_Prv_TxIPduStart
                0x0000000100404070                Com_Prv_TxIPduStop
                0x00000001004041fb                Com_IpduGroupStart
                0x00000001004045a9                Com_IpduGroupStop
                0x00000001004049c4                Com_Prv_InternalMainFunctionTx
                0x00000001004056a2                Com_IsTxScheduled
                0x000000010040576f                Com_Prv_PackSignal
                0x000000010040592f                Com_Prv_ProcessSignal
                0x0000000100405e77                Com_ReceiveSignal
                0x0000000100405fbe                Com_Prv_CopyData_Sig_UnsignedType
                0x00000001004061d0                Com_Prv_CopyData_Sig_SignedType
                0x0000000100406355                Com_RxIndication
                0x000000010040651e                Com_Prv_ProcessRxIPdu
                0x0000000100406580                Com_Prv_InvokeRxNotifications
                0x00000001004066fb                Com_Prv_RxReplaceSignal
                0x000000010040693d                Com_Prv_SendIpdu
                0x0000000100406fe8                Com_SendSignal
                0x000000010040703f                Com_Prv_InternalSendSignal
                0x00000001004074b8                Com_SwitchIpduTxMode
                0x0000000100407799                Com_TriggerIPDUSend
                0x00000001004078b2                Com_TriggerTransmit
                0x00000001004079e2                Com_Prv_TxChangeMode
                0x0000000100407ee8                Com_Prv_SigTxChangeMode
                0x00000001004082e6                Com_TxConfirmation
                0x0000000100408390                Com_Prv_InternalTxConfirmation
                0x0000000100408595                Com_Prv_UnpackSignal
 .text          0x00000001004087b0     0x5c20 CMakeFiles/Basic_workflow.dir/Unity/unity_1_c.c.o
                0x00000001004087b0                CanIf_Integn_ControllerErrorPassive
                0x00000001004087bc                CanIf_ResetDynamicTxId
                0x00000001004087c9                CanIf_Rb_ReadTxPduCanId
                0x0000000100408888                CanIf_Rb_ReadRxPduCanId
                0x00000001004088fe                CanIf_ReturnTxPduId
                0x00000001004089f3                CanIf_ReturnRxPduId
                0x0000000100408abf                CanIf_ReadTxNotifStatus
                0x0000000100408b73                CanIf_ReadRxNotifStatus
                0x0000000100408c36                CanIf_Integn_RxIndication
                0x0000000100408ea3                CanIf_XCore_LocalCore_RxIndication
                0x0000000100408efd                CanIf_Transmit
                0x0000000100408fd6                CanIf_XCore_LocalCore_Transmit
                0x000000010040927c                CanIf_Integn_TxConfirmation
                0x00000001004093ca                CanIf_XCore_LocalCore_TxConfirmation
                0x000000010040940c                CanSM_ControllerBusOff
                0x000000010040987e                CanSM_BusOffTransitions
                0x000000010040a030                CanSM_BOR_MultipleCtrlsStop
                0x000000010040a1ae                CanSM_BOR_CtrlsStart
                0x000000010040a34b                CanSM_Rb_DisableBusOffRecovery
                0x000000010040a37e                CanSM_GetMutex
                0x000000010040a3c7                CanSM_GetBusoff_Substate
                0x000000010040a456                CanSM_BOR_CtrlsStart_SilentCom
                0x000000010040a6a0                CanSM_ControllerModeIndication
                0x000000010040a85d                CanSM_GetCurrentComMode
                0x000000010040a901                CanSM_Init
                0x000000010040aca8                CanSM_DeInitPnNotSupported
                0x000000010040b323                CanSM_GetHandle
                0x000000010040b38e                CanSM_StopCtrl
                0x000000010040b714                CanSM_StartCtrl
                0x000000010040ba12                CanSM_SleepCtrl
                0x000000010040bb8d                CanSM_NO2FULL_COM
                0x000000010040c328                CanSM_FULL2SILENT_COM
                0x000000010040c466                CanSM_SILENT2FULL_COM
                0x000000010040c5fb                CanSM_TxTimeoutException_StateMachine
                0x000000010040ca57                CanSM_WakeUpValidation_StateMachine
                0x000000010040cf52                CanSM_PreNoCom_Exit
                0x000000010040d094                CanSM_BOR_SilentCom_Exit
                0x000000010040d243                CanSM_MainFunction
                0x000000010040d5d0                CanSM_NetworkModeTrans
                0x000000010040d9d5                CanSM_GetNetworkMode_Substate
                0x000000010040da4d                CanSM_RequestComMode
                0x000000010040def1                CanSM_StartWakeupSource
                0x000000010040dff9                CanSM_StopWakeupSource
                0x000000010040e120                CanSM_TxTimeoutException
                0x000000010040e1bc                Com_MainFunctionRx_ComMainFunctionRx
                0x000000010040e1c3                Com_MainFunctionTx_ComMainFunctionTx
                0x000000010040e1dc                Com_ByteCopy
                0x000000010040e23a                Com_DeInit
                0x000000010040e34b                Com_Prv_Filter
 .text          0x000000010040e3d0     0x25b0 CMakeFiles/Basic_workflow.dir/Unity/unity_0_c.c.o
                0x000000010040e3d0                BswM_Appl_IncompatibleGenerator
                0x000000010040e3d7                BswM_Init
                0x000000010040e490                BswM_Deinit
                0x000000010040e49e                BswM_GetVersionInfo
                0x000000010040e4dc                BswM_MainFunction
                0x000000010040e584                BswM_CanSM_CurrentState
                0x000000010040e593                BswM_ComM_CurrentMode
                0x000000010040e6ec                BswM_ComM_CurrentPNCMode
                0x000000010040e6fb                BswM_ComM_InitiateReset
                0x000000010040e702                BswM_EcuM_CurrentState
                0x000000010040e70e                BswM_EcuM_CurrentWakeup
                0x000000010040e71d                BswM_EcuM_RequestedState
                0x000000010040e72e                BswM_RequestMode
                0x000000010040e8b3                BswM_Prv_CopyModeInitValues
                0x000000010040e9f4                BswM_Prv_CopyRuleInitSates
                0x000000010040ef28                BswM_Prv_Evaluate_Action
                0x000000010040ef8a                BswM_Prv_Evaluate_ActionList
                0x000000010040f0ef                BswM_Prv_IntrptQueueIn
                0x000000010040f206                BswM_Prv_IntrptQueueOut
                0x000000010040f3ce                BswM_Prv_GetComMMRPIndex_b
                0x000000010040f448                BswM_Prv_GetGenReqMRPIndex_b
                0x000000010040f4c4                BswM_Prv_ReqProcessOrQueue_b
                0x000000010040f55d                BswM_Prv_RuleEval
                0x000000010040f5c8                BswM_Prv_ClearAllDeferredRequests
                0x000000010040f6b6                BswM_Prv_StoreDeferredRequest
                0x000000010040f8af                BswM_Prv_ProcessDeferredReqst
                0x000000010040f9ca                BswM_Prv_GetComMIndicationInfo_en
                0x000000010040fa9d                BswM_Prv_GetGenReqInfo_en
                0x000000010040fb77                BswM_Prv_ProcessDelayedReqst
                0x000000010040fd03                BswM_Prv_Evaluate_Rule
                0x000000010040fe7d                BswM_Prv_Arbitrate_Rule
                0x000000010040ff39                BswM_WdgM_RequestPartitionReset
                0x00000001004100b2                BswM_Cfg_ProcessSchMSwitchFunction
                0x0000000100410148                BswM_Cfg_ProcessUserCalloutFunction
                0x000000010041017f                BswM_Cfg_LE_BswM_LE_GoDown
                0x00000001004101c3                BswM_Cfg_LE_BswM_LE_InitBlockReadAllComplete
                0x0000000100410207                BswM_Cfg_LE_BswM_LE_Run
                0x0000000100410283                BswM_Cfg_LE_BswM_LE_Shutdown
                0x00000001004102fc                BswM_Cfg_LE_BswM_LE_StartCom
                0x0000000100410340                BswM_Cfg_DfrdBswNotification_BswM_MRP_BswM_MDG_ECUM_STATE_APP_RUN
                0x000000010041035e                BswM_Cfg_DfrdBswNotification_BswM_MRP_BswM_MDG_ECUM_STATE_APP_POST_RUN
                0x000000010041037c                BswM_Cfg_DfrdBswNotification_BswM_MRP_BswM_MDG_ECUM_STATE_PREP_SHUTDOWN
                0x000000010041039a                BswM_Cfg_DfrdBswNotification_BswM_MRP_BswM_MDG_ECUM_STATE_RUN
                0x00000001004103b8                CanIf_RxIndication
                0x00000001004103df                CanIf_TxConfirmation
                0x00000001004103ff                CanIf_ControllerBusOff
                0x000000010041041e                CanIf_ControllerModeIndication
                0x0000000100410443                CanIf_ControllerErrorPassive
                0x0000000100410462                Can_Integn_SetControllerMode
                0x0000000100410486                Can_Integn_GetControllerMode
                0x00000001004104ac                Can_Integn_Write
                0x00000001004104d3                CanIf_SetControllerMode
                0x00000001004105db                CanIf_GetControllerMode
                0x00000001004106bb                CanIf_Integn_ControllerBusOff
                0x000000010041072c                CanIf_Integn_ControllerModeIndication
                0x00000001004107a9                CanIf_Init
                0x0000000100410878                CanIf_DeInit
                0x0000000100410883                CanIf_SetPduMode
                0x000000010041091b                CanIf_GetPduMode
 .text          0x0000000100410980       0xb0 CMakeFiles/Basic_workflow.dir/cygdrive/c/ETAS/RTA-CAR_12.2.0/RTA-CAR/workspace/Basic_Workflow/src/asw/MySWC.c.o
                0x0000000100410980                RE_MySWC_func
 .text          0x0000000100410a30       0xd0 CMakeFiles/Basic_workflow.dir/cygdrive/c/ETAS/RTA-CAR_12.2.0/RTA-CAR/workspace/Basic_Workflow/src/bsw/Det/src/Det.c.o
                0x0000000100410a30                Det_Init
                0x0000000100410a78                Det_Start
                0x0000000100410a7f                Det_ReportError
                0x0000000100410aa3                Det_ReportRuntimeError
                0x0000000100410ac7                Det_ReportTransientFault
 .text          0x0000000100410b00        0x0 CMakeFiles/Basic_workflow.dir/cygdrive/c/ETAS/RTA-CAR_12.2.0/RTA-CAR/workspace/Basic_Workflow/src/bsw/EcuM/EcuM_Cfg.c.o
 .text          0x0000000100410b00       0x10 CMakeFiles/Basic_workflow.dir/cygdrive/c/ETAS/RTA-CAR_12.2.0/RTA-CAR/workspace/Basic_Workflow/src/bsw/EcuM/EcuM_Cfg_PbExt.c.o
                0x0000000100410b00                EcuM_Prv_GetPbVariantIndex
 .text          0x0000000100410b10       0x10 CMakeFiles/Basic_workflow.dir/cygdrive/c/ETAS/RTA-CAR_12.2.0/RTA-CAR/workspace/Basic_Workflow/src/bsw/EcuM/EcuM_Cfg_RbMo.c.o
                0x0000000100410b10                EcuM_RbMoInitCheck
 .text          0x0000000100410b20        0x0 CMakeFiles/Basic_workflow.dir/cygdrive/c/ETAS/RTA-CAR_12.2.0/RTA-CAR/workspace/Basic_Workflow/src/bsw/EcuM/EcuM_Cfg_Shutdown.c.o
 .text          0x0000000100410b20       0x10 CMakeFiles/Basic_workflow.dir/cygdrive/c/ETAS/RTA-CAR_12.2.0/RTA-CAR/workspace/Basic_Workflow/src/bsw/EcuM/EcuM_Cfg_Sleep.c.o
                0x0000000100410b20                EcuM_Prv_GetResource
                0x0000000100410b27                EcuM_Prv_ReleaseResource
 .text          0x0000000100410b30       0x80 CMakeFiles/Basic_workflow.dir/cygdrive/c/ETAS/RTA-CAR_12.2.0/RTA-CAR/workspace/Basic_Workflow/src/bsw/EcuM/EcuM_Cfg_Startup.c.o
                0x0000000100410b30                EcuM_AL_DriverInitZero
                0x0000000100410b37                EcuM_AL_DriverInitOne
 .text          0x0000000100410bb0       0x10 CMakeFiles/Basic_workflow.dir/cygdrive/c/ETAS/RTA-CAR_12.2.0/RTA-CAR/workspace/Basic_Workflow/src/bsw/EcuM/EcuM_Cfg_SynchPoint.c.o
                0x0000000100410bb0                EcuM_Synch_Point
 .text          0x0000000100410bc0        0x0 CMakeFiles/Basic_workflow.dir/cygdrive/c/ETAS/RTA-CAR_12.2.0/RTA-CAR/workspace/Basic_Workflow/src/bsw/EcuM/EcuM_Lcfg.c.o
 .text          0x0000000100410bc0        0x0 CMakeFiles/Basic_workflow.dir/cygdrive/c/ETAS/RTA-CAR_12.2.0/RTA-CAR/workspace/Basic_Workflow/src/bsw/EcuM/EcuM_PBcfg.c.o
 .text          0x0000000100410bc0       0x90 CMakeFiles/Basic_workflow.dir/cygdrive/c/ETAS/RTA-CAR_12.2.0/RTA-CAR/workspace/Basic_Workflow/src/bsw/EcuM/integration/EcuM_Callout_Stubs.c.o
                0x0000000100410bc0                EcuM_ErrorHook
                0x0000000100410bcc                EcuM_DeterminePbConfiguration
                0x0000000100410bdc                EcuM_OnGoOffOne
                0x0000000100410bea                EcuM_OnGoOffTwo
                0x0000000100410bf8                EcuM_AL_SwitchOff
                0x0000000100410c06                EcuM_AL_Reset
                0x0000000100410c12                EcuM_CheckWakeup
                0x0000000100410c1c                EcuM_StartWakeupSources
                0x0000000100410c26                EcuM_StopWakeupSources
                0x0000000100410c30                EcuM_CheckValidation
                0x0000000100410c3a                EcuM_SwitchOsAppMode
 .text          0x0000000100410c50       0xa0 CMakeFiles/Basic_workflow.dir/cygdrive/c/ETAS/RTA-CAR_12.2.0/RTA-CAR/workspace/Basic_Workflow/src/bsw/EcuM/src/EcuM_BootTarget.c.o
                0x0000000100410c50                EcuM_GetBootTarget
                0x0000000100410ca0                EcuM_SelectBootTarget
 .text          0x0000000100410cf0        0x0 CMakeFiles/Basic_workflow.dir/cygdrive/c/ETAS/RTA-CAR_12.2.0/RTA-CAR/workspace/Basic_Workflow/src/bsw/EcuM/src/EcuM_CurrentState.c.o
 .text          0x0000000100410cf0        0x0 CMakeFiles/Basic_workflow.dir/cygdrive/c/ETAS/RTA-CAR_12.2.0/RTA-CAR/workspace/Basic_Workflow/src/bsw/EcuM/src/EcuM_KillAllRequests.c.o
 .text          0x0000000100410cf0      0x250 CMakeFiles/Basic_workflow.dir/cygdrive/c/ETAS/RTA-CAR_12.2.0/RTA-CAR/workspace/Basic_Workflow/src/bsw/EcuM/src/EcuM_MainFunction.c.o
                0x0000000100410cf0                EcuM_MainFunction
 .text          0x0000000100410f40        0x0 CMakeFiles/Basic_workflow.dir/cygdrive/c/ETAS/RTA-CAR_12.2.0/RTA-CAR/workspace/Basic_Workflow/src/bsw/EcuM/src/EcuM_Misc.c.o
 .text          0x0000000100410f40      0x580 CMakeFiles/Basic_workflow.dir/cygdrive/c/ETAS/RTA-CAR_12.2.0/RTA-CAR/workspace/Basic_Workflow/src/bsw/EcuM/src/EcuM_Prv.c.o
                0x0000000100410f40                EcuM_Prv_WakeupIndication
                0x0000000100411153                EcuM_Prv_DecValidationCtr
                0x0000000100411179                EcuM_Prv_PBPointerConsistencyCheck
                0x000000010041123f                EcuM_Prv_SetDefinedMcuWakeupSource
                0x00000001004112b9                EcuM_Prv_StartOS
                0x00000001004112f5                EcuM_Prv_hasCheckWakeupSourceGetHandle_b
                0x0000000100411323                EcuM_Prv_ComMWakeupHandling
 .text          0x00000001004114c0        0x0 CMakeFiles/Basic_workflow.dir/cygdrive/c/ETAS/RTA-CAR_12.2.0/RTA-CAR/workspace/Basic_Workflow/src/bsw/EcuM/src/EcuM_Prv_RteActions.c.o
 .text          0x00000001004114c0        0x0 CMakeFiles/Basic_workflow.dir/cygdrive/c/ETAS/RTA-CAR_12.2.0/RTA-CAR/workspace/Basic_Workflow/src/bsw/EcuM/src/EcuM_ReleasePOST_RUN.c.o
 .text          0x00000001004114c0        0x0 CMakeFiles/Basic_workflow.dir/cygdrive/c/ETAS/RTA-CAR_12.2.0/RTA-CAR/workspace/Basic_Workflow/src/bsw/EcuM/src/EcuM_ReleaseRUN.c.o
 .text          0x00000001004114c0        0x0 CMakeFiles/Basic_workflow.dir/cygdrive/c/ETAS/RTA-CAR_12.2.0/RTA-CAR/workspace/Basic_Workflow/src/bsw/EcuM/src/EcuM_RequestPOST_RUN.c.o
 .text          0x00000001004114c0        0x0 CMakeFiles/Basic_workflow.dir/cygdrive/c/ETAS/RTA-CAR_12.2.0/RTA-CAR/workspace/Basic_Workflow/src/bsw/EcuM/src/EcuM_RequestRUN.c.o
 .text          0x00000001004114c0        0x0 CMakeFiles/Basic_workflow.dir/cygdrive/c/ETAS/RTA-CAR_12.2.0/RTA-CAR/workspace/Basic_Workflow/src/bsw/EcuM/src/EcuM_SetState.c.o
 .text          0x00000001004114c0      0x150 CMakeFiles/Basic_workflow.dir/cygdrive/c/ETAS/RTA-CAR_12.2.0/RTA-CAR/workspace/Basic_Workflow/src/bsw/EcuM/src/EcuM_Shutdown.c.o
                0x00000001004114c0                EcuM_GoDownHaltPoll
                0x000000010041151c                EcuM_GoDown
                0x00000001004115b2                EcuM_Shutdown
 .text          0x0000000100411610      0x1c0 CMakeFiles/Basic_workflow.dir/cygdrive/c/ETAS/RTA-CAR_12.2.0/RTA-CAR/workspace/Basic_Workflow/src/bsw/EcuM/src/EcuM_ShutdownServices.c.o
                0x0000000100411610                EcuM_SelectShutdownCause
                0x0000000100411660                EcuM_GetShutdownCause
                0x00000001004116a5                EcuM_SelectShutdownTarget
                0x0000000100411729                EcuM_GetShutdownTarget
                0x00000001004117a6                EcuM_GetLastShutdownTarget
 .text          0x00000001004117d0        0x0 CMakeFiles/Basic_workflow.dir/cygdrive/c/ETAS/RTA-CAR_12.2.0/RTA-CAR/workspace/Basic_Workflow/src/bsw/EcuM/src/EcuM_Sleep.c.o
 .text          0x00000001004117d0      0x150 CMakeFiles/Basic_workflow.dir/cygdrive/c/ETAS/RTA-CAR_12.2.0/RTA-CAR/workspace/Basic_Workflow/src/bsw/EcuM/src/EcuM_Startup.c.o
                0x00000001004117d0                EcuM_Init
                0x00000001004118bb                EcuM_StartupTwo
 .text          0x0000000100411920      0x4a0 CMakeFiles/Basic_workflow.dir/cygdrive/c/ETAS/RTA-CAR_12.2.0/RTA-CAR/workspace/Basic_Workflow/src/bsw/EcuM/src/EcuM_WakeupServices.c.o
                0x0000000100411920                EcuM_SetWakeupEvent
                0x0000000100411ac6                EcuM_ValidateWakeupEvent
                0x0000000100411ba0                EcuM_ClearWakeupEvent
                0x0000000100411d0a                EcuM_GetPendingWakeupEvents
                0x0000000100411d45                EcuM_GetValidatedWakeupEvents
                0x0000000100411d80                EcuM_GetExpiredWakeupEvents
 .text          0x0000000100411dc0      0x200 CMakeFiles/Basic_workflow.dir/cygdrive/c/ETAS/RTA-CAR_12.2.0/RTA-CAR/workspace/Basic_Workflow/src/rte/Rte.c.o
                0x0000000100411dc0                SchM_Mode_BswM_MDGR_BswM_MRP_BswM_MDG
                0x0000000100411de6                SchM_Switch_BswM_MDGP_ModeDeclarationGroups_MDG_ECUM_STATE
                0x0000000100411e52                Rte_Write_CPT_MySWC_ApplicationECU_PPortPrototype_0_DE_MyDataElement
                0x0000000100411e83                Rte_COMCbk_S_TestECU_To_ApplicationECU_Data_Can_Network_Channel_CAN_Rx
                0x0000000100411ed4                Os_Entry_OsTask_ASW
                0x0000000100411f0e                Os_Entry_OsTask_BSW
 .text          0x0000000100411fc0      0x650 CMakeFiles/Basic_workflow.dir/cygdrive/c/ETAS/RTA-CAR_12.2.0/RTA-CAR/workspace/Basic_Workflow/src/rte/Rte_Lib.c.o
                0x0000000100411fc0                Rte_ActivateRE
                0x0000000100412020                Rte_DecrementWaitingCount
                0x0000000100412032                Rte_GetCurrentTaskIndex
                0x0000000100412041                Rte_MainFunction
                0x0000000100412048                Rte_ReadQueue
                0x0000000100412125                Rte_SetEvent
                0x0000000100412142                SchM_Init
                0x000000010041215b                SchM_Deinit
                0x0000000100412174                Rte_WaitWithTimeout
                0x000000010041218a                Rte_WriteQueue
                0x000000010041232f                Rte_WriteQueue_GetProtection
                0x0000000100412432                Rte_WriteQueue_ReleaseProtection
                0x0000000100412541                Rte_memcpy
                0x000000010041259f                Rte_Start
                0x00000001004125d8                Rte_Stop
 .text          0x0000000100412610      0x3a0 CMakeFiles/Basic_workflow.dir/cygdrive/c/ETAS/RTA-CAR_12.2.0/RTA-CAR/workspace/Basic_Workflow/src/mcal/Can_Device.cpp.o
                0x0000000100412610                Can_ReportDETError(unsigned int, unsigned int, unsigned int)
                0x0000000100412621                Can_ReportRuntimeError(unsigned int, unsigned int, unsigned int)
                0x0000000100412632                Can_RaiseInterrupt()
                0x0000000100412650                Can_RaiseWriteEvent(int, unsigned char, unsigned char, unsigned short, Can_Hwp_Frame*)
                0x00000001004126a6                Can_RaiseRxEvent(int, unsigned short, Can_Hwp_Frame*)
                0x00000001004126e2                Can_RaiseTxEvent(int, unsigned short, Can_Hwp_Frame*)
                0x000000010041271e                Can_RaiseStateEvent(int, Can_EventState, char const*)
                0x0000000100412756                Can_RaiseCanState(Can_DriverStatus)
                0x000000010041277a                Can_RaiseErrorState(int, unsigned int)
                0x00000001004127a7                Can_RaiseControllerRxErrorCounterEvent(int, unsigned char)
                0x00000001004127d7                Can_RaiseControllerTxErrorCounterEvent(int, unsigned char)
                0x0000000100412807                Can_RaiseError(int, unsigned int)
                0x0000000100412834                Can_RaiseCurrentTimeEvent(int, Can_TimeStampType)
                0x0000000100412863                Can_RaiseEnableEgressTimeStampEvent(int, unsigned short, unsigned char)
                0x00000001004128a3                Can_RaiseEgressTimeStampEvent(int, unsigned short, unsigned short, Can_TimeStampType)
                0x00000001004128f1                Can_RaiseIngressTimeStampEvent(int, unsigned short, Can_TimeStampType)
 .text          0x00000001004129b0      0x290 CMakeFiles/Basic_workflow.dir/cygdrive/c/ETAS/RTA-CAR_12.2.0/RTA-CAR/workspace/Basic_Workflow/src/mcal/Can_HwProvider.cpp.o
                0x00000001004129b0                Can_GetHwProvider(unsigned int)
                0x00000001004129df                Can_GetHw(void (*)(unsigned int, Can_Hwp_Event, unsigned short, Can_Hwp_Frame*), unsigned int, unsigned int, unsigned int, unsigned int, unsigned int)
                0x0000000100412ac1                Can_FramePassesFiltering(unsigned int, Can_Hwp_RxHwObject const*)
                0x0000000100412b4b                Can_LoadRxObjFromConfig(Can_Hwp_RxHwObject*, Can_Hwp_RxHwObject const*)
 .text          0x0000000100412c40     0x3780 CMakeFiles/Basic_workflow.dir/cygdrive/c/ETAS/RTA-CAR_12.2.0/RTA-CAR/workspace/Basic_Workflow/src/mcal/Can_Implementation.cpp.o
                0x0000000100412c40                Can_DETError
                0x0000000100412c5b                Can_DETRuntimeError
                0x0000000100412c91                Can_Get_Controller_Index
                0x0000000100412cf2                Can_Check_Valid_Baudrate
                0x0000000100412d9a                Can_Get_Driver_State
                0x0000000100412da6                Can_Get_Controller_Index_From_Hth
                0x0000000100412de5                Can_Get_Controller_Index_From_Hrh
                0x0000000100412e24                Can_Rxupcall
                0x0000000100412f56                Can_TxConfirm
                0x000000010041303a                Can_TxCancel
                0x0000000100413109                Can_Wakeupcall
                0x000000010041317b                Can_Busoffcall
                0x00000001004131fd                Can_Isr_handler
                0x0000000100413234                Can_Callback
                0x000000010041341f                Can_DiscardPendingInterrupts
                0x0000000100413533                SetBaudrateParameters
                0x00000001004136db                Can_Init_helper
                0x0000000100413ac3                Can_InitController_helper
                0x0000000100413b1a                Can_DeInit_helper
                0x0000000100413c88                Can_GetControllerErrorState_helper
                0x0000000100413d3d                Can_GetControllerMode_helper
                0x0000000100413e3a                Can_GetControllerRxErrorCounter_helper
                0x0000000100413f10                Can_InjectControllerRxErrorCount
                0x0000000100413fd8                Can_GetControllerTxErrorCounter_helper
                0x00000001004140ae                Can_InjectControllerTxErrorCount
                0x0000000100414178                Can_GetCurrentTime_helper
                0x000000010041427e                Can_InjectCurrentTime
                0x000000010041435d                Can_EnableEgressTimeStamp_helper
                0x0000000100414436                Can_InjectEnableEgressTimeStamp
                0x00000001004144cc                Can_GetEgressTimeStamp_helper
                0x0000000100414611                Can_InjectEgressTimeStamp
                0x0000000100414729                Can_GetIngressTimeStamp_helper
                0x0000000100414835                Can_InjectIngressTimeStamp
                0x000000010041491c                Can_GetVersionInfo_helper
                0x000000010041497d                Can_ChangeBaudrate_helper
                0x0000000100414a90                Can_SetControllerMode_helper
                0x0000000100414edd                Can_DisableControllerInterrupts_helper
                0x0000000100414f93                Can_EnableControllerInterrupts_helper
                0x0000000100415093                Can_CheckWakeup_helper
                0x0000000100415134                Can_Write_helper
                0x000000010041548a                Can_MainFunction_Write_helper
                0x000000010041576a                Can_MainFunction_Read_helper
                0x000000010041599e                Can_MainFunction_BusOff_helper
                0x0000000100415af1                Can_MainFunction_Wakeup_helper
                0x0000000100415c51                Can_MainFunction_Mode_helper
                0x0000000100415e3d                Can_Force_Wakeup
                0x0000000100415ebf                Can_injectErrorState
                0x000000010041602d                Can_injectError
                0x00000001004160a3                Can_Force_Buson
                0x0000000100416124                Can_Force_Busoff
                0x00000001004161e3                Can_Drop_Write_Action_helper
                0x0000000100416224                Can_Drop_Receive_Action_helper
                0x0000000100416265                Can_Inject_Write_helper
                0x00000001004162b0                Can_Inject_Rxaction_helper
                0x0000000100416325                Can_Enable_Transmit_Processing_helper
 .text          0x00000001004163c0       0xd0 CMakeFiles/Basic_workflow.dir/cygdrive/c/ETAS/RTA-CAR_12.2.0/RTA-CAR/workspace/Basic_Workflow/src/mcal/Mcu_Device.cpp.o
                0x00000001004163c0                Mcu_ReportDETError(unsigned int, unsigned int, unsigned int)
                0x00000001004163d1                Mcu_Raise_ResetReason_event
                0x00000001004163f5                Mcu_ResetCounter_helper
 .text          0x0000000100416490      0x3d0 CMakeFiles/Basic_workflow.dir/cygdrive/c/ETAS/RTA-CAR_12.2.0/RTA-CAR/workspace/Basic_Workflow/src/mcal/Mcu_Implementation.cpp.o
                0x0000000100416490                Mcu_DETError
                0x00000001004164ab                Mcu_Init_helper
                0x000000010041652b                Mcu_InitRamSection_helper
                0x0000000100416570                Mcu_InitClock_helper
                0x00000001004165b5                Mcu_DistributePllClock_helper
                0x00000001004165f1                Mcu_GetPllStatus_helper
                0x0000000100416631                Mcu_GetResetReason_helper
                0x0000000100416679                Mcu_GetResetRawValue_helper
                0x00000001004166c1                Mcu_PerformReset_helper
                0x0000000100416729                Mcu_SetMode_helper
                0x0000000100416768                Mcu_GetVersionInfo_helper
                0x00000001004167cf                Mcu_GetRamState_helper
                0x000000010041680f                Mcu_InjectReset_helper
                0x0000000100416845                Mcu_GetInternalConfig
 .text          0x0000000100416860       0xd0 CMakeFiles/Basic_workflow.dir/cygdrive/c/ETAS/RTA-CAR_12.2.0/RTA-CAR/workspace/Basic_Workflow/src/mcal/VirtualCan.cpp.o
 .text          0x0000000100416930      0x200 CMakeFiles/Basic_workflow.dir/cygdrive/c/ETAS/RTA-CAR_12.2.0/RTA-CAR/workspace/Basic_Workflow/src/vrta/VRTA_SystemClock.cpp.o
                0x0000000100416930                VECU_SystemClock_Init
                0x00000001004169a8                VECU_SystemClock_Start
                0x0000000100416a07                VECU_SystemClock_GetValue
 .text          0x0000000100416b30      0x140 CMakeFiles/Basic_workflow.dir/cygdrive/c/ETAS/RTA-CAR_12.2.0/RTA-CAR/workspace/Basic_Workflow/src/vrta/Vrta_Cfg.cpp.o
                0x0000000100416b30                vrtaActionHandler
                0x0000000100416bd2                EnableVrtaFlash
                0x0000000100416be8                EnableVrtaPort
                0x0000000100416bfe                EnableVrtaAdc
                0x0000000100416c14                EnableVrtaPwm
                0x0000000100416c2a                EnableVrtaIcu
                0x0000000100416c40                EnableVrtaCan
                0x0000000100416c56                EnableVrtaCanTrcv
 .text          0x0000000100416c70       0xb0 CMakeFiles/Basic_workflow.dir/cygdrive/c/ETAS/RTA-CAR_12.2.0/RTA-CAR/workspace/Basic_Workflow/src/vrta/target.cpp.o
                0x0000000100416c70                InitializeDevices()
                0x0000000100416c84                TargetInit
                0x0000000100416cb1                TargetEnableInterrupts
                0x0000000100416d05                TargetReadClock
 .text          0x0000000100416d20        0x8 /usr/lib/w32api/libws2_32.a(libws2_32s00191.o)
                0x0000000100416d20                select
 *fill*         0x0000000100416d28        0x8 
 .text          0x0000000100416d30        0x0 /usr/lib/w32api/libws2_32.a(libws2_32h.o)
 .text          0x0000000100416d30        0x0 /usr/lib/w32api/libws2_32.a(libws2_32t.o)
 .text          0x0000000100416d30        0x0 /usr/lib/gcc/x86_64-pc-cygwin/11/libstdc++.a(class_type_info.o)
 .text          0x0000000100416d30        0x0 /usr/lib/gcc/x86_64-pc-cygwin/11/libstdc++.a(del_ops.o)
 .text          0x0000000100416d30        0x0 /usr/lib/gcc/x86_64-pc-cygwin/11/libstdc++.a(del_opv.o)
 .text          0x0000000100416d30        0x0 /usr/lib/gcc/x86_64-pc-cygwin/11/libstdc++.a(del_opvs.o)
 .text          0x0000000100416d30        0x0 /usr/lib/gcc/x86_64-pc-cygwin/11/libstdc++.a(eh_aux_runtime.o)
 .text          0x0000000100416d30        0x0 /usr/lib/gcc/x86_64-pc-cygwin/11/libstdc++.a(eh_personality.o)
 .text          0x0000000100416d30        0x0 /usr/lib/gcc/x86_64-pc-cygwin/11/libstdc++.a(eh_terminate.o)
 .text          0x0000000100416d30        0x0 /usr/lib/gcc/x86_64-pc-cygwin/11/libstdc++.a(eh_throw.o)
 .text          0x0000000100416d30        0x0 /usr/lib/gcc/x86_64-pc-cygwin/11/libstdc++.a(eh_unex_handler.o)
 .text          0x0000000100416d30        0x0 /usr/lib/gcc/x86_64-pc-cygwin/11/libstdc++.a(new_op.o)
 .text          0x0000000100416d30        0x0 /usr/lib/gcc/x86_64-pc-cygwin/11/libstdc++.a(new_opv.o)
 .text          0x0000000100416d30        0x0 /usr/lib/gcc/x86_64-pc-cygwin/11/libstdc++.a(si_class_type_info.o)
 .text          0x0000000100416d30        0x0 /usr/lib/gcc/x86_64-pc-cygwin/11/libstdc++.a(tinfo.o)
 .text          0x0000000100416d30        0x0 /usr/lib/gcc/x86_64-pc-cygwin/11/libstdc++.a(vterminate.o)
 .text          0x0000000100416d30        0x0 /usr/lib/gcc/x86_64-pc-cygwin/11/libstdc++.a(bad_alloc.o)
 .text          0x0000000100416d30        0x0 /usr/lib/gcc/x86_64-pc-cygwin/11/libstdc++.a(bad_array_new.o)
 .text          0x0000000100416d30        0x0 /usr/lib/gcc/x86_64-pc-cygwin/11/libstdc++.a(bad_cast.o)
 .text          0x0000000100416d30        0x0 /usr/lib/gcc/x86_64-pc-cygwin/11/libstdc++.a(bad_typeid.o)
 .text          0x0000000100416d30     0x96e0 /usr/lib/gcc/x86_64-pc-cygwin/11/libstdc++.a(cp-demangle.o)
                0x0000000100420280                __cxa_demangle
                0x00000001004203e0                __gcclibcxx_demangle_callback
 .text          0x0000000100420410        0x0 /usr/lib/gcc/x86_64-pc-cygwin/11/libstdc++.a(del_op.o)
 .text          0x0000000100420410        0x0 /usr/lib/gcc/x86_64-pc-cygwin/11/libstdc++.a(eh_alloc.o)
 .text          0x0000000100420410        0x0 /usr/lib/gcc/x86_64-pc-cygwin/11/libstdc++.a(eh_call.o)
 .text          0x0000000100420410        0x0 /usr/lib/gcc/x86_64-pc-cygwin/11/libstdc++.a(eh_catch.o)
 .text          0x0000000100420410        0x0 /usr/lib/gcc/x86_64-pc-cygwin/11/libstdc++.a(eh_exception.o)
 .text          0x0000000100420410        0x0 /usr/lib/gcc/x86_64-pc-cygwin/11/libstdc++.a(eh_globals.o)
 .text          0x0000000100420410        0x0 /usr/lib/gcc/x86_64-pc-cygwin/11/libstdc++.a(eh_term_handler.o)
 .text          0x0000000100420410        0x0 /usr/lib/gcc/x86_64-pc-cygwin/11/libstdc++.a(eh_type.o)
 .text          0x0000000100420410        0x0 /usr/lib/gcc/x86_64-pc-cygwin/11/libstdc++.a(new_handler.o)
 .text          0x0000000100420410       0x40 /usr/lib/gcc/x86_64-pc-cygwin/11/libgcc.a(_chkstk_ms.o)
                0x0000000100420410                ___chkstk_ms
 .text          0x0000000100420450      0x6e0 /usr/lib/gcc/x86_64-pc-cygwin/11/libgcc_eh.a(unwind-seh.o)
                0x00000001004204b0                _Unwind_GetGR
                0x00000001004204d0                _Unwind_SetGR
                0x00000001004204f0                _Unwind_GetCFA
                0x0000000100420500                _Unwind_GetIP
                0x0000000100420510                _Unwind_GetIPInfo
                0x0000000100420520                _Unwind_SetIP
                0x0000000100420530                _Unwind_GetLanguageSpecificData
                0x0000000100420540                _Unwind_GetRegionStart
                0x0000000100420550                _Unwind_FindEnclosingFunction
                0x0000000100420580                _Unwind_GetDataRelBase
                0x0000000100420590                _Unwind_GetTextRelBase
                0x00000001004205a0                _GCC_specific_handler
                0x00000001004207d0                _Unwind_RaiseException
                0x0000000100420830                _Unwind_Resume
                0x00000001004208e0                _Unwind_Resume_or_Rethrow
                0x0000000100420900                _Unwind_ForcedUnwind
                0x0000000100420930                _Unwind_DeleteException
                0x0000000100420950                _Unwind_Backtrace
 .text          0x0000000100420b30      0x2b0 /usr/lib/gcc/x86_64-pc-cygwin/11/libgcc_eh.a(emutls.o)
                0x0000000100420bb0                __emutls_get_address
                0x0000000100420db0                __emutls_register_common
 .text          0x0000000100420de0       0x10 /usr/lib/gcc/x86_64-pc-cygwin/11/../../../../lib/libcygwin.a(t-cygwin1_dll_d000017.o)
                0x0000000100420de0                __cxa_atexit
 .text          0x0000000100420df0       0x10 /usr/lib/gcc/x86_64-pc-cygwin/11/../../../../lib/libcygwin.a(t-cygwin1_dll_d000037.o)
                0x0000000100420df0                __getreent
 .text          0x0000000100420e00       0x10 /usr/lib/gcc/x86_64-pc-cygwin/11/../../../../lib/libcygwin.a(t-cygwin1_dll_d000094.o)
                0x0000000100420e00                __wrap__ZdaPv
 .text          0x0000000100420e10       0x10 /usr/lib/gcc/x86_64-pc-cygwin/11/../../../../lib/libcygwin.a(t-cygwin1_dll_d000096.o)
                0x0000000100420e10                __wrap__ZdlPv
 .text          0x0000000100420e20       0x10 /usr/lib/gcc/x86_64-pc-cygwin/11/../../../../lib/libcygwin.a(t-cygwin1_dll_d000098.o)
                0x0000000100420e20                __wrap__Znam
 .text          0x0000000100420e30       0x10 /usr/lib/gcc/x86_64-pc-cygwin/11/../../../../lib/libcygwin.a(t-cygwin1_dll_d000100.o)
                0x0000000100420e30                __wrap__Znwm
 .text          0x0000000100420e40       0x10 /usr/lib/gcc/x86_64-pc-cygwin/11/../../../../lib/libcygwin.a(t-cygwin1_dll_d000129.o)
                0x0000000100420e40                abort
 .text          0x0000000100420e50       0x10 /usr/lib/gcc/x86_64-pc-cygwin/11/../../../../lib/libcygwin.a(t-cygwin1_dll_d000260.o)
                0x0000000100420e50                calloc
 .text          0x0000000100420e60       0x10 /usr/lib/gcc/x86_64-pc-cygwin/11/../../../../lib/libcygwin.a(t-cygwin1_dll_d000577.o)
                0x0000000100420e60                fputc
 .text          0x0000000100420e70       0x10 /usr/lib/gcc/x86_64-pc-cygwin/11/../../../../lib/libcygwin.a(t-cygwin1_dll_d000579.o)
                0x0000000100420e70                fputs
 .text          0x0000000100420e80       0x10 /usr/lib/gcc/x86_64-pc-cygwin/11/../../../../lib/libcygwin.a(t-cygwin1_dll_d000587.o)
                0x0000000100420e80                free
 .text          0x0000000100420e90       0x10 /usr/lib/gcc/x86_64-pc-cygwin/11/../../../../lib/libcygwin.a(t-cygwin1_dll_d000628.o)
                0x0000000100420e90                fwrite
 .text          0x0000000100420ea0       0x10 /usr/lib/gcc/x86_64-pc-cygwin/11/../../../../lib/libcygwin.a(t-cygwin1_dll_d000917.o)
                0x0000000100420ea0                malloc
 .text          0x0000000100420eb0       0x10 /usr/lib/gcc/x86_64-pc-cygwin/11/../../../../lib/libcygwin.a(t-cygwin1_dll_d000934.o)
                0x0000000100420eb0                memcpy
 .text          0x0000000100420ec0       0x10 /usr/lib/gcc/x86_64-pc-cygwin/11/../../../../lib/libcygwin.a(t-cygwin1_dll_d000939.o)
                0x0000000100420ec0                memset
 .text          0x0000000100420ed0       0x10 /usr/lib/gcc/x86_64-pc-cygwin/11/../../../../lib/libcygwin.a(t-cygwin1_dll_d001022.o)
                0x0000000100420ed0                pipe
 .text          0x0000000100420ee0       0x10 /usr/lib/gcc/x86_64-pc-cygwin/11/../../../../lib/libcygwin.a(t-cygwin1_dll_d001120.o)
                0x0000000100420ee0                pthread_getspecific
 .text          0x0000000100420ef0       0x10 /usr/lib/gcc/x86_64-pc-cygwin/11/../../../../lib/libcygwin.a(t-cygwin1_dll_d001122.o)
                0x0000000100420ef0                pthread_key_create
 .text          0x0000000100420f00       0x10 /usr/lib/gcc/x86_64-pc-cygwin/11/../../../../lib/libcygwin.a(t-cygwin1_dll_d001129.o)
                0x0000000100420f00                pthread_mutex_lock
 .text          0x0000000100420f10       0x10 /usr/lib/gcc/x86_64-pc-cygwin/11/../../../../lib/libcygwin.a(t-cygwin1_dll_d001133.o)
                0x0000000100420f10                pthread_mutex_unlock
 .text          0x0000000100420f20       0x10 /usr/lib/gcc/x86_64-pc-cygwin/11/../../../../lib/libcygwin.a(t-cygwin1_dll_d001144.o)
                0x0000000100420f20                pthread_once
 .text          0x0000000100420f30       0x10 /usr/lib/gcc/x86_64-pc-cygwin/11/../../../../lib/libcygwin.a(t-cygwin1_dll_d001168.o)
                0x0000000100420f30                pthread_setspecific
 .text          0x0000000100420f40       0x10 /usr/lib/gcc/x86_64-pc-cygwin/11/../../../../lib/libcygwin.a(t-cygwin1_dll_d001208.o)
                0x0000000100420f40                read
 .text          0x0000000100420f50       0x10 /usr/lib/gcc/x86_64-pc-cygwin/11/../../../../lib/libcygwin.a(t-cygwin1_dll_d001214.o)
                0x0000000100420f50                realloc
 .text          0x0000000100420f60       0x10 /usr/lib/gcc/x86_64-pc-cygwin/11/../../../../lib/libcygwin.a(t-cygwin1_dll_d001409.o)
                0x0000000100420f60                sprintf
 .text          0x0000000100420f70       0x10 /usr/lib/gcc/x86_64-pc-cygwin/11/../../../../lib/libcygwin.a(t-cygwin1_dll_d001430.o)
                0x0000000100420f70                strcmp
 .text          0x0000000100420f80       0x10 /usr/lib/gcc/x86_64-pc-cygwin/11/../../../../lib/libcygwin.a(t-cygwin1_dll_d001433.o)
                0x0000000100420f80                strcpy
 .text          0x0000000100420f90       0x10 /usr/lib/gcc/x86_64-pc-cygwin/11/../../../../lib/libcygwin.a(t-cygwin1_dll_d001445.o)
                0x0000000100420f90                strlen
 .text          0x0000000100420fa0       0x10 /usr/lib/gcc/x86_64-pc-cygwin/11/../../../../lib/libcygwin.a(t-cygwin1_dll_d001450.o)
                0x0000000100420fa0                strncmp
 .text          0x0000000100420fb0       0x10 /usr/lib/gcc/x86_64-pc-cygwin/11/../../../../lib/libcygwin.a(t-cygwin1_dll_d001612.o)
                0x0000000100420fb0                vsprintf
 .text          0x0000000100420fc0       0x10 /usr/lib/gcc/x86_64-pc-cygwin/11/../../../../lib/libcygwin.a(t-cygwin1_dll_d001694.o)
                0x0000000100420fc0                write
 .text          0x0000000100420fd0       0x50 /usr/lib/gcc/x86_64-pc-cygwin/11/../../../../lib/libcygwin.a(atexit.o)
                0x0000000100420fd0                atexit
 .text          0x0000000100421020       0x20 /usr/lib/gcc/x86_64-pc-cygwin/11/../../../../lib/libcygwin.a(cygwin_crt0.o)
                0x0000000100421020                cygwin_crt0
 .text          0x0000000100421040        0x0 /usr/lib/gcc/x86_64-pc-cygwin/11/../../../../lib/libcygwin.a(libcmain.o)
 .text          0x0000000100421040       0x10 /usr/lib/gcc/x86_64-pc-cygwin/11/../../../../lib/libcygwin.a(premain0.o)
                0x0000000100421040                cygwin_premain0
 .text          0x0000000100421050       0x10 /usr/lib/gcc/x86_64-pc-cygwin/11/../../../../lib/libcygwin.a(premain1.o)
                0x0000000100421050                cygwin_premain1
 .text          0x0000000100421060       0x10 /usr/lib/gcc/x86_64-pc-cygwin/11/../../../../lib/libcygwin.a(premain2.o)
                0x0000000100421060                cygwin_premain2
 .text          0x0000000100421070       0x10 /usr/lib/gcc/x86_64-pc-cygwin/11/../../../../lib/libcygwin.a(premain3.o)
                0x0000000100421070                cygwin_premain3
 .text          0x0000000100421080       0x10 /usr/lib/gcc/x86_64-pc-cygwin/11/../../../../lib/libcygwin.a(t-cygwin1_dll_d000048.o)
                0x0000000100421080                __main
 .text          0x0000000100421090       0x10 /usr/lib/gcc/x86_64-pc-cygwin/11/../../../../lib/libcygwin.a(t-cygwin1_dll_d000383.o)
                0x0000000100421090                cygwin_internal
 .text          0x00000001004210a0       0x10 /usr/lib/gcc/x86_64-pc-cygwin/11/../../../../lib/libcygwin.a(t-cygwin1_dll_d001428.o)
                0x00000001004210a0                strchr
 .text          0x00000001004210b0       0x10 /usr/lib/gcc/x86_64-pc-cygwin/11/../../../../lib/libcygwin.a(t-cygwin1_dll_d001455.o)
                0x00000001004210b0                strpbrk
 .text          0x00000001004210c0       0x10 /usr/lib/gcc/x86_64-pc-cygwin/11/../../../../lib/libcygwin.a(t-cygwin1_dll_d001461.o)
                0x00000001004210c0                strspn
 .text          0x00000001004210d0      0x3b0 /usr/lib/gcc/x86_64-pc-cygwin/11/../../../../lib/libcygwin.a(_cygwin_crt0_common.o)
                0x00000001004210d0                _cygwin_crt0_common
 .text          0x0000000100421480       0xe0 /usr/lib/gcc/x86_64-pc-cygwin/11/../../../../lib/libcygwin.a(dll_entry.o)
                0x00000001004214a0                _cygwin_dll_entry
 .text          0x0000000100421560       0x10 /usr/lib/gcc/x86_64-pc-cygwin/11/../../../../lib/libcygwin.a(dll_main.o)
                0x0000000100421560                DllMain
 .text          0x0000000100421570       0x10 /usr/lib/gcc/x86_64-pc-cygwin/11/../../../../lib/libcygwin.a(pseudo-reloc-dummy.o)
                0x0000000100421570                _pei386_runtime_relocator
 .text          0x0000000100421580        0x0 /usr/lib/gcc/x86_64-pc-cygwin/11/../../../../lib/libcygwin.a(cygwin1_dll_d000117.o)
 .text          0x0000000100421580       0x10 /usr/lib/gcc/x86_64-pc-cygwin/11/../../../../lib/libcygwin.a(t-cygwin1_dll_d000381.o)
                0x0000000100421580                cygwin_detach_dll
 .text          0x0000000100421590       0x10 /usr/lib/gcc/x86_64-pc-cygwin/11/../../../../lib/libcygwin.a(t-cygwin1_dll_d001029.o)
                0x0000000100421590                posix_memalign
 .text          0x00000001004215a0       0x30 /usr/lib/gcc/x86_64-pc-cygwin/11/../../../../lib/libcygwin.a(cygwin_attach_dll.o)
                0x00000001004215a0                cygwin_attach_dll
 .text          0x00000001004215d0       0x10 /usr/lib/gcc/x86_64-pc-cygwin/11/../../../../lib/libcygwin.a(t-cygwin1_dll_d000411.o)
                0x00000001004215d0                dll_dllcrt0
 .text          0x00000001004215e0        0x8 /usr/lib/w32api/libkernel32.a(libkernel32s01234.o)
                0x00000001004215e0                RtlVirtualUnwind
 .text          0x00000001004215e8        0x8 /usr/lib/w32api/libkernel32.a(libkernel32s01233.o)
                0x00000001004215e8                RtlUnwindEx
 .text          0x00000001004215f0        0x8 /usr/lib/w32api/libkernel32.a(libkernel32s01227.o)
                0x00000001004215f0                RtlLookupFunctionEntry
 .text          0x00000001004215f8        0x8 /usr/lib/w32api/libkernel32.a(libkernel32s01220.o)
                0x00000001004215f8                RtlCaptureContext
 .text          0x0000000100421600        0x8 /usr/lib/w32api/libkernel32.a(libkernel32s01150.o)
                0x0000000100421600                RaiseException
 .text          0x0000000100421608        0x8 /usr/lib/w32api/libkernel32.a(libkernel32s00740.o)
                0x0000000100421608                GetStartupInfoA
 .text          0x0000000100421610        0x8 /usr/lib/w32api/libkernel32.a(libkernel32s00651.o)
                0x0000000100421610                GetModuleHandleW
 .text          0x0000000100421618        0x8 /usr/lib/w32api/libkernel32.a(libkernel32s00648.o)
                0x0000000100421618                GetModuleHandleA
 .text          0x0000000100421620        0x8 /usr/lib/w32api/libkernel32.a(libkernel32s00484.o)
                0x0000000100421620                GetCommandLineA
 *fill*         0x0000000100421628        0x8 
 .text          0x0000000100421630        0x0 /usr/lib/w32api/libkernel32.a(libkernel32h.o)
 .text          0x0000000100421630        0x0 /usr/lib/w32api/libkernel32.a(libkernel32t.o)
 .text          0x0000000100421630        0x0 /usr/lib/gcc/x86_64-pc-cygwin/11/libgcc.a(_ctors.o)
 .text          0x0000000100421630        0x0 /usr/lib/gcc/x86_64-pc-cygwin/11/crtend.o
 *(SORT_BY_NAME(.text$*))
 .text$_ZGTtNKSt13bad_exceptionD1Ev
                0x0000000100421630       0x10 /usr/lib/gcc/x86_64-pc-cygwin/11/libstdc++.a(eh_exception.o)
                0x0000000100421630                transaction clone for std::bad_exception::~bad_exception() const
 .text$_ZGTtNKSt9exceptionD1Ev
                0x0000000100421640       0x10 /usr/lib/gcc/x86_64-pc-cygwin/11/libstdc++.a(eh_exception.o)
                0x0000000100421640                transaction clone for std::exception::~exception() const
 .text$_ZL16get_adjusted_ptrPKSt9type_infoS1_PPv
                0x0000000100421650       0x70 /usr/lib/gcc/x86_64-pc-cygwin/11/libstdc++.a(eh_personality.o)
 .text$_ZL17parse_lsda_headerP15_Unwind_ContextPKhP16lsda_header_info
                0x00000001004216c0       0xf0 /usr/lib/gcc/x86_64-pc-cygwin/11/libstdc++.a(eh_personality.o)
 .text$_ZL20check_exception_specP16lsda_header_infoPKSt9type_infoPvl
                0x00000001004217b0      0x110 /usr/lib/gcc/x86_64-pc-cygwin/11/libstdc++.a(eh_personality.o)
 .text$_ZL21base_of_encoded_valuehP15_Unwind_Context
                0x00000001004218c0       0x70 /usr/lib/gcc/x86_64-pc-cygwin/11/libstdc++.a(eh_personality.o)
 .text$_ZL23__gxx_exception_cleanup19_Unwind_Reason_CodeP17_Unwind_Exception
                0x0000000100421930       0x50 /usr/lib/gcc/x86_64-pc-cygwin/11/libstdc++.a(eh_throw.o)
 .text$_ZL28read_encoded_value_with_basehmPKhPm
                0x0000000100421980      0x160 /usr/lib/gcc/x86_64-pc-cygwin/11/libstdc++.a(eh_personality.o)
 .text$_ZN10__cxxabiv111__terminateEPFvvE
                0x0000000100421ae0       0x20 /usr/lib/gcc/x86_64-pc-cygwin/11/libstdc++.a(eh_terminate.o)
                0x0000000100421ae0                __cxxabiv1::__terminate(void (*)())
 .text$_ZN10__cxxabiv112__unexpectedEPFvvE
                0x0000000100421b00       0x10 /usr/lib/gcc/x86_64-pc-cygwin/11/libstdc++.a(eh_terminate.o)
                0x0000000100421b00                __cxxabiv1::__unexpected(void (*)())
 .text$_ZN10__cxxabiv115__forced_unwindD0Ev
                0x0000000100421b10       0x10 /usr/lib/gcc/x86_64-pc-cygwin/11/libstdc++.a(eh_exception.o)
                0x0000000100421b10                __cxxabiv1::__forced_unwind::~__forced_unwind()
 .text$_ZN10__cxxabiv115__forced_unwindD2Ev
                0x0000000100421b20       0x10 /usr/lib/gcc/x86_64-pc-cygwin/11/libstdc++.a(eh_exception.o)
                0x0000000100421b20                __cxxabiv1::__forced_unwind::~__forced_unwind()
                0x0000000100421b20                __cxxabiv1::__forced_unwind::~__forced_unwind()
 .text$_ZN10__cxxabiv117__class_type_infoD0Ev
                0x0000000100421b30       0x30 /usr/lib/gcc/x86_64-pc-cygwin/11/libstdc++.a(class_type_info.o)
                0x0000000100421b30                __cxxabiv1::__class_type_info::~__class_type_info()
 .text$_ZN10__cxxabiv117__class_type_infoD2Ev
                0x0000000100421b60       0x10 /usr/lib/gcc/x86_64-pc-cygwin/11/libstdc++.a(class_type_info.o)
                0x0000000100421b60                __cxxabiv1::__class_type_info::~__class_type_info()
                0x0000000100421b60                __cxxabiv1::__class_type_info::~__class_type_info()
 .text$_ZN10__cxxabiv119__foreign_exceptionD0Ev
                0x0000000100421b70       0x10 /usr/lib/gcc/x86_64-pc-cygwin/11/libstdc++.a(eh_exception.o)
                0x0000000100421b70                __cxxabiv1::__foreign_exception::~__foreign_exception()
 .text$_ZN10__cxxabiv119__foreign_exceptionD2Ev
                0x0000000100421b80       0x10 /usr/lib/gcc/x86_64-pc-cygwin/11/libstdc++.a(eh_exception.o)
                0x0000000100421b80                __cxxabiv1::__foreign_exception::~__foreign_exception()
                0x0000000100421b80                __cxxabiv1::__foreign_exception::~__foreign_exception()
 .text$_ZN10__cxxabiv120__si_class_type_infoD0Ev
                0x0000000100421b90       0x30 /usr/lib/gcc/x86_64-pc-cygwin/11/libstdc++.a(si_class_type_info.o)
                0x0000000100421b90                __cxxabiv1::__si_class_type_info::~__si_class_type_info()
 .text$_ZN10__cxxabiv120__si_class_type_infoD2Ev
                0x0000000100421bc0       0x10 /usr/lib/gcc/x86_64-pc-cygwin/11/libstdc++.a(si_class_type_info.o)
                0x0000000100421bc0                __cxxabiv1::__si_class_type_info::~__si_class_type_info()
                0x0000000100421bc0                __cxxabiv1::__si_class_type_info::~__si_class_type_info()
 .text$_ZN10__cxxabiv1L21__gxx_personality_impEiimP17_Unwind_ExceptionP15_Unwind_Context
                0x0000000100421bd0      0x6d0 /usr/lib/gcc/x86_64-pc-cygwin/11/libstdc++.a(eh_personality.o)
 .text$_ZN12_GLOBAL__N_14pool4freeEPv.constprop.0
                0x00000001004222a0      0x120 /usr/lib/gcc/x86_64-pc-cygwin/11/libstdc++.a(eh_alloc.o)
 .text$_ZN12_GLOBAL__N_14pool8allocateEm.constprop.0
                0x00000001004223c0       0xc0 /usr/lib/gcc/x86_64-pc-cygwin/11/libstdc++.a(eh_alloc.o)
 .text$_ZN13Can_VirtualHw11ForceBusOffEv
                0x0000000100422480       0x30 CMakeFiles/Basic_workflow.dir/cygdrive/c/ETAS/RTA-CAR_12.2.0/RTA-CAR/workspace/Basic_Workflow/src/mcal/VirtualCan.cpp.o
                0x0000000100422480                Can_VirtualHw::ForceBusOff()
 .text$_ZN13Can_VirtualHw11ForceWakeupEv
                0x00000001004224b0       0x30 CMakeFiles/Basic_workflow.dir/cygdrive/c/ETAS/RTA-CAR_12.2.0/RTA-CAR/workspace/Basic_Workflow/src/mcal/VirtualCan.cpp.o
                0x00000001004224b0                Can_VirtualHw::ForceWakeup()
 .text$_ZN13Can_VirtualHw11SetBaudrateEPK22Can_Hwp_BaudrateConfig
                0x00000001004224e0       0x40 CMakeFiles/Basic_workflow.dir/cygdrive/c/ETAS/RTA-CAR_12.2.0/RTA-CAR/workspace/Basic_Workflow/src/mcal/VirtualCan.cpp.o
                0x00000001004224e0                Can_VirtualHw::SetBaudrate(Can_Hwp_BaudrateConfig const*)
 .text$_ZN13Can_VirtualHw12CausedWakeupEv
                0x0000000100422520       0x30 CMakeFiles/Basic_workflow.dir/cygdrive/c/ETAS/RTA-CAR_12.2.0/RTA-CAR/workspace/Basic_Workflow/src/mcal/VirtualCan.cpp.o
                0x0000000100422520                Can_VirtualHw::CausedWakeup()
 .text$_ZN13Can_VirtualHw15ReadCurrentTimeEP17Can_TimeStampTypeh
                0x0000000100422550       0x50 CMakeFiles/Basic_workflow.dir/cygdrive/c/ETAS/RTA-CAR_12.2.0/RTA-CAR/workspace/Basic_Workflow/src/mcal/VirtualCan.cpp.o
                0x0000000100422550                Can_VirtualHw::ReadCurrentTime(Can_TimeStampType*, unsigned char)
 .text$_ZN13Can_VirtualHw17InjectCurrentTimeE17Can_TimeStampType
                0x00000001004225a0       0x40 CMakeFiles/Basic_workflow.dir/cygdrive/c/ETAS/RTA-CAR_12.2.0/RTA-CAR/workspace/Basic_Workflow/src/mcal/VirtualCan.cpp.o
                0x00000001004225a0                Can_VirtualHw::InjectCurrentTime(Can_TimeStampType)
 .text$_ZN13Can_VirtualHw18GetEgressTimeStampEttP17Can_TimeStampType
                0x00000001004225e0       0x60 CMakeFiles/Basic_workflow.dir/cygdrive/c/ETAS/RTA-CAR_12.2.0/RTA-CAR/workspace/Basic_Workflow/src/mcal/VirtualCan.cpp.o
                0x00000001004225e0                Can_VirtualHw::GetEgressTimeStamp(unsigned short, unsigned short, Can_TimeStampType*)
 .text$_ZN13Can_VirtualHw19GetIngressTimeStampEtP17Can_TimeStampType
                0x0000000100422640       0x50 CMakeFiles/Basic_workflow.dir/cygdrive/c/ETAS/RTA-CAR_12.2.0/RTA-CAR/workspace/Basic_Workflow/src/mcal/VirtualCan.cpp.o
                0x0000000100422640                Can_VirtualHw::GetIngressTimeStamp(unsigned short, Can_TimeStampType*)
 .text$_ZN13Can_VirtualHw21EnableEgressTimeStampEt
                0x0000000100422690       0x40 CMakeFiles/Basic_workflow.dir/cygdrive/c/ETAS/RTA-CAR_12.2.0/RTA-CAR/workspace/Basic_Workflow/src/mcal/VirtualCan.cpp.o
                0x0000000100422690                Can_VirtualHw::EnableEgressTimeStamp(unsigned short)
 .text$_ZN13Can_VirtualHw21InjectEgressTimeStampEtt17Can_TimeStampType
                0x00000001004226d0       0x60 CMakeFiles/Basic_workflow.dir/cygdrive/c/ETAS/RTA-CAR_12.2.0/RTA-CAR/workspace/Basic_Workflow/src/mcal/VirtualCan.cpp.o
                0x00000001004226d0                Can_VirtualHw::InjectEgressTimeStamp(unsigned short, unsigned short, Can_TimeStampType)
 .text$_ZN13Can_VirtualHw22InjectIngressTimeStampEt17Can_TimeStampType
                0x0000000100422730       0x50 CMakeFiles/Basic_workflow.dir/cygdrive/c/ETAS/RTA-CAR_12.2.0/RTA-CAR/workspace/Basic_Workflow/src/mcal/VirtualCan.cpp.o
                0x0000000100422730                Can_VirtualHw::InjectIngressTimeStamp(unsigned short, Can_TimeStampType)
 .text$_ZN13Can_VirtualHw24EnableTransmitProcessingEb
                0x0000000100422780       0x40 CMakeFiles/Basic_workflow.dir/cygdrive/c/ETAS/RTA-CAR_12.2.0/RTA-CAR/workspace/Basic_Workflow/src/mcal/VirtualCan.cpp.o
                0x0000000100422780                Can_VirtualHw::EnableTransmitProcessing(bool)
 .text$_ZN13Can_VirtualHw27GetControllerRxErrorCounterEPh
                0x00000001004227c0       0x40 CMakeFiles/Basic_workflow.dir/cygdrive/c/ETAS/RTA-CAR_12.2.0/RTA-CAR/workspace/Basic_Workflow/src/mcal/VirtualCan.cpp.o
                0x00000001004227c0                Can_VirtualHw::GetControllerRxErrorCounter(unsigned char*)
 .text$_ZN13Can_VirtualHw27GetControllerTxErrorCounterEPh
                0x0000000100422800       0x40 CMakeFiles/Basic_workflow.dir/cygdrive/c/ETAS/RTA-CAR_12.2.0/RTA-CAR/workspace/Basic_Workflow/src/mcal/VirtualCan.cpp.o
                0x0000000100422800                Can_VirtualHw::GetControllerTxErrorCounter(unsigned char*)
 .text$_ZN13Can_VirtualHw27InjectEnableEgressTimeStampEth
                0x0000000100422840       0x50 CMakeFiles/Basic_workflow.dir/cygdrive/c/ETAS/RTA-CAR_12.2.0/RTA-CAR/workspace/Basic_Workflow/src/mcal/VirtualCan.cpp.o
                0x0000000100422840                Can_VirtualHw::InjectEnableEgressTimeStamp(unsigned short, unsigned char)
 .text$_ZN13Can_VirtualHw28InjectControllerRxErrorCountEh
                0x0000000100422890       0x40 CMakeFiles/Basic_workflow.dir/cygdrive/c/ETAS/RTA-CAR_12.2.0/RTA-CAR/workspace/Basic_Workflow/src/mcal/VirtualCan.cpp.o
                0x0000000100422890                Can_VirtualHw::InjectControllerRxErrorCount(unsigned char)
 .text$_ZN13Can_VirtualHw28InjectControllerTxErrorCountEh
                0x00000001004228d0       0x40 CMakeFiles/Basic_workflow.dir/cygdrive/c/ETAS/RTA-CAR_12.2.0/RTA-CAR/workspace/Basic_Workflow/src/mcal/VirtualCan.cpp.o
                0x00000001004228d0                Can_VirtualHw::InjectControllerTxErrorCount(unsigned char)
 .text$_ZN13Can_VirtualHw4StopEv
                0x0000000100422910       0x30 CMakeFiles/Basic_workflow.dir/cygdrive/c/ETAS/RTA-CAR_12.2.0/RTA-CAR/workspace/Basic_Workflow/src/mcal/VirtualCan.cpp.o
                0x0000000100422910                Can_VirtualHw::Stop()
 .text$_ZN13Can_VirtualHw5SleepEv
                0x0000000100422940       0x30 CMakeFiles/Basic_workflow.dir/cygdrive/c/ETAS/RTA-CAR_12.2.0/RTA-CAR/workspace/Basic_Workflow/src/mcal/VirtualCan.cpp.o
                0x0000000100422940                Can_VirtualHw::Sleep()
 .text$_ZN13Can_VirtualHw5StartEv
                0x0000000100422970       0x30 CMakeFiles/Basic_workflow.dir/cygdrive/c/ETAS/RTA-CAR_12.2.0/RTA-CAR/workspace/Basic_Workflow/src/mcal/VirtualCan.cpp.o
                0x0000000100422970                Can_VirtualHw::Start()
 .text$_ZN13Can_VirtualHw5StateEv
                0x00000001004229a0       0x30 CMakeFiles/Basic_workflow.dir/cygdrive/c/ETAS/RTA-CAR_12.2.0/RTA-CAR/workspace/Basic_Workflow/src/mcal/VirtualCan.cpp.o
                0x00000001004229a0                Can_VirtualHw::State()
 .text$_ZN13Can_VirtualHw5WriteEtP13Can_Hwp_Frame
                0x00000001004229d0       0x50 CMakeFiles/Basic_workflow.dir/cygdrive/c/ETAS/RTA-CAR_12.2.0/RTA-CAR/workspace/Basic_Workflow/src/mcal/VirtualCan.cpp.o
                0x00000001004229d0                Can_VirtualHw::Write(unsigned short, Can_Hwp_Frame*)
 .text$_ZN13Can_VirtualHw6DeInitEv
                0x0000000100422a20       0x30 CMakeFiles/Basic_workflow.dir/cygdrive/c/ETAS/RTA-CAR_12.2.0/RTA-CAR/workspace/Basic_Workflow/src/mcal/VirtualCan.cpp.o
                0x0000000100422a20                Can_VirtualHw::DeInit()
 .text$_ZN13Can_VirtualHw9ConfigureEPK21Can_Hwp_ChannelConfig
                0x0000000100422a50       0x40 CMakeFiles/Basic_workflow.dir/cygdrive/c/ETAS/RTA-CAR_12.2.0/RTA-CAR/workspace/Basic_Workflow/src/mcal/VirtualCan.cpp.o
                0x0000000100422a50                Can_VirtualHw::Configure(Can_Hwp_ChannelConfig const*)
 .text$_ZN13Can_VirtualHwC1EPFvj13Can_Hwp_EventtP13Can_Hwp_FrameEjj
                0x0000000100422a90       0xc0 CMakeFiles/Basic_workflow.dir/cygdrive/c/ETAS/RTA-CAR_12.2.0/RTA-CAR/workspace/Basic_Workflow/src/mcal/VirtualCan.cpp.o
                0x0000000100422a90                Can_VirtualHw::Can_VirtualHw(void (*)(unsigned int, Can_Hwp_Event, unsigned short, Can_Hwp_Frame*), unsigned int, unsigned int)
 .text$_ZN13Can_VirtualHwD0Ev
                0x0000000100422b50       0x30 CMakeFiles/Basic_workflow.dir/cygdrive/c/ETAS/RTA-CAR_12.2.0/RTA-CAR/workspace/Basic_Workflow/src/mcal/VirtualCan.cpp.o
                0x0000000100422b50                Can_VirtualHw::~Can_VirtualHw()
 .text$_ZN13Can_VirtualHwD1Ev
                0x0000000100422b80       0x30 CMakeFiles/Basic_workflow.dir/cygdrive/c/ETAS/RTA-CAR_12.2.0/RTA-CAR/workspace/Basic_Workflow/src/mcal/VirtualCan.cpp.o
                0x0000000100422b80                Can_VirtualHw::~Can_VirtualHw()
 .text$_ZN13VirtualDevice10UnpackDataI18Can_ErrorStateTypeEEvRK10vrtaActionRT_
                0x0000000100422bb0       0x40 CMakeFiles/Basic_workflow.dir/cygdrive/c/ETAS/RTA-CAR_12.2.0/RTA-CAR/workspace/Basic_Workflow/src/mcal/Can_Device.cpp.o
                0x0000000100422bb0                void VirtualDevice::UnpackData<Can_ErrorStateType>(vrtaAction const&, Can_ErrorStateType&)
 .text$_ZN13VirtualDevice10UnpackDataIN19CanControllerDevice12RxActionTypeEEEvRK10vrtaActionRT_
                0x0000000100422bf0       0x40 CMakeFiles/Basic_workflow.dir/cygdrive/c/ETAS/RTA-CAR_12.2.0/RTA-CAR/workspace/Basic_Workflow/src/mcal/Can_Device.cpp.o
                0x0000000100422bf0                void VirtualDevice::UnpackData<CanControllerDevice::RxActionType>(vrtaAction const&, CanControllerDevice::RxActionType&)
 .text$_ZN13VirtualDevice10UnpackDataIN19CanControllerDevice15WriteActionTypeEEEvRK10vrtaActionRT_
                0x0000000100422c30       0x40 CMakeFiles/Basic_workflow.dir/cygdrive/c/ETAS/RTA-CAR_12.2.0/RTA-CAR/workspace/Basic_Workflow/src/mcal/Can_Device.cpp.o
                0x0000000100422c30                void VirtualDevice::UnpackData<CanControllerDevice::WriteActionType>(vrtaAction const&, CanControllerDevice::WriteActionType&)
 .text$_ZN13VirtualDevice10UnpackDataIN19CanControllerDevice27InjectCurrentTimeActionTypeEEEvRK10vrtaActionRT_
                0x0000000100422c70       0x40 CMakeFiles/Basic_workflow.dir/cygdrive/c/ETAS/RTA-CAR_12.2.0/RTA-CAR/workspace/Basic_Workflow/src/mcal/Can_Device.cpp.o
                0x0000000100422c70                void VirtualDevice::UnpackData<CanControllerDevice::InjectCurrentTimeActionType>(vrtaAction const&, CanControllerDevice::InjectCurrentTimeActionType&)
 .text$_ZN13VirtualDevice10UnpackDataIN19CanControllerDevice31InjectEgressTimeStampActionTypeEEEvRK10vrtaActionRT_
                0x0000000100422cb0       0x40 CMakeFiles/Basic_workflow.dir/cygdrive/c/ETAS/RTA-CAR_12.2.0/RTA-CAR/workspace/Basic_Workflow/src/mcal/Can_Device.cpp.o
                0x0000000100422cb0                void VirtualDevice::UnpackData<CanControllerDevice::InjectEgressTimeStampActionType>(vrtaAction const&, CanControllerDevice::InjectEgressTimeStampActionType&)
 .text$_ZN13VirtualDevice10UnpackDataIN19CanControllerDevice32InjectIngressTimeStampActionTypeEEEvRK10vrtaActionRT_
                0x0000000100422cf0       0x40 CMakeFiles/Basic_workflow.dir/cygdrive/c/ETAS/RTA-CAR_12.2.0/RTA-CAR/workspace/Basic_Workflow/src/mcal/Can_Device.cpp.o
                0x0000000100422cf0                void VirtualDevice::UnpackData<CanControllerDevice::InjectIngressTimeStampActionType>(vrtaAction const&, CanControllerDevice::InjectIngressTimeStampActionType&)
 .text$_ZN13VirtualDevice10UnpackDataIN19CanControllerDevice37InjectEnableEgressTimeStampActionTypeEEEvRK10vrtaActionRT_
                0x0000000100422d30       0x40 CMakeFiles/Basic_workflow.dir/cygdrive/c/ETAS/RTA-CAR_12.2.0/RTA-CAR/workspace/Basic_Workflow/src/mcal/Can_Device.cpp.o
                0x0000000100422d30                void VirtualDevice::UnpackData<CanControllerDevice::InjectEnableEgressTimeStampActionType>(vrtaAction const&, CanControllerDevice::InjectEnableEgressTimeStampActionType&)
 .text$_ZN13VirtualDevice10UnpackDataIhEEvRK10vrtaActionRT_
                0x0000000100422d70       0x40 CMakeFiles/Basic_workflow.dir/cygdrive/c/ETAS/RTA-CAR_12.2.0/RTA-CAR/workspace/Basic_Workflow/src/mcal/Can_Device.cpp.o
                0x0000000100422d70                void VirtualDevice::UnpackData<unsigned char>(vrtaAction const&, unsigned char&)
 .text$_ZN13VirtualDevice10UnpackDataIjEEvRK10vrtaActionRT_
                0x0000000100422db0       0x40 CMakeFiles/Basic_workflow.dir/cygdrive/c/ETAS/RTA-CAR_12.2.0/RTA-CAR/workspace/Basic_Workflow/src/mcal/Can_Device.cpp.o
                0x0000000100422db0                void VirtualDevice::UnpackData<unsigned int>(vrtaAction const&, unsigned int&)
 .text$_ZN13VirtualDevice16UnsignedValueForERK10vrtaAction
                0x0000000100422df0       0x20 CMakeFiles/Basic_workflow.dir/cygdrive/c/ETAS/RTA-CAR_12.2.0/RTA-CAR/workspace/Basic_Workflow/src/mcal/Mcu_Device.cpp.o
                0x0000000100422df0                VirtualDevice::UnsignedValueFor(vrtaAction const&)
 .text$_ZN13VirtualDevice6NoDataER10vrtaAction
                0x0000000100422e10       0x30 CMakeFiles/Basic_workflow.dir/cygdrive/c/ETAS/RTA-CAR_12.2.0/RTA-CAR/workspace/Basic_Workflow/src/mcal/Mcu_Device.cpp.o
                0x0000000100422e10                VirtualDevice::NoData(vrtaAction&)
 .text$_ZN13VirtualDevice8PackDataIN19CanControllerDevice11RxEventTypeEEEvR9vrtaEventRT_i
                0x0000000100422e40       0x80 CMakeFiles/Basic_workflow.dir/cygdrive/c/ETAS/RTA-CAR_12.2.0/RTA-CAR/workspace/Basic_Workflow/src/mcal/Can_Device.cpp.o
                0x0000000100422e40                void VirtualDevice::PackData<CanControllerDevice::RxEventType>(vrtaEvent&, CanControllerDevice::RxEventType&, int)
 .text$_ZN13VirtualDevice8PackDataIN19CanControllerDevice11TxEventTypeEEEvR9vrtaEventRT_i
                0x0000000100422ec0       0x80 CMakeFiles/Basic_workflow.dir/cygdrive/c/ETAS/RTA-CAR_12.2.0/RTA-CAR/workspace/Basic_Workflow/src/mcal/Can_Device.cpp.o
                0x0000000100422ec0                void VirtualDevice::PackData<CanControllerDevice::TxEventType>(vrtaEvent&, CanControllerDevice::TxEventType&, int)
 .text$_ZN13VirtualDevice8PackDataIN19CanControllerDevice14WriteEventTypeEEEvR9vrtaEventRT_i
                0x0000000100422f40       0x80 CMakeFiles/Basic_workflow.dir/cygdrive/c/ETAS/RTA-CAR_12.2.0/RTA-CAR/workspace/Basic_Workflow/src/mcal/Can_Device.cpp.o
                0x0000000100422f40                void VirtualDevice::PackData<CanControllerDevice::WriteEventType>(vrtaEvent&, CanControllerDevice::WriteEventType&, int)
 .text$_ZN13VirtualDevice8PackDataIN19CanControllerDevice15CurrentTimeTypeEEEvR9vrtaEventRT_i
                0x0000000100422fc0       0x80 CMakeFiles/Basic_workflow.dir/cygdrive/c/ETAS/RTA-CAR_12.2.0/RTA-CAR/workspace/Basic_Workflow/src/mcal/Can_Device.cpp.o
                0x0000000100422fc0                void VirtualDevice::PackData<CanControllerDevice::CurrentTimeType>(vrtaEvent&, CanControllerDevice::CurrentTimeType&, int)
 .text$_ZN13VirtualDevice8PackDataIN19CanControllerDevice15StatusEventTypeEEEvR9vrtaEventRT_i
                0x0000000100423040       0x80 CMakeFiles/Basic_workflow.dir/cygdrive/c/ETAS/RTA-CAR_12.2.0/RTA-CAR/workspace/Basic_Workflow/src/mcal/Can_Device.cpp.o
                0x0000000100423040                void VirtualDevice::PackData<CanControllerDevice::StatusEventType>(vrtaEvent&, CanControllerDevice::StatusEventType&, int)
 .text$_ZN13VirtualDevice8PackDataIN19CanControllerDevice19EgressTimeStampTypeEEEvR9vrtaEventRT_i
                0x00000001004230c0       0x80 CMakeFiles/Basic_workflow.dir/cygdrive/c/ETAS/RTA-CAR_12.2.0/RTA-CAR/workspace/Basic_Workflow/src/mcal/Can_Device.cpp.o
                0x00000001004230c0                void VirtualDevice::PackData<CanControllerDevice::EgressTimeStampType>(vrtaEvent&, CanControllerDevice::EgressTimeStampType&, int)
 .text$_ZN13VirtualDevice8PackDataIN19CanControllerDevice20IngressTimeStampTypeEEEvR9vrtaEventRT_i
                0x0000000100423140       0x80 CMakeFiles/Basic_workflow.dir/cygdrive/c/ETAS/RTA-CAR_12.2.0/RTA-CAR/workspace/Basic_Workflow/src/mcal/Can_Device.cpp.o
                0x0000000100423140                void VirtualDevice::PackData<CanControllerDevice::IngressTimeStampType>(vrtaEvent&, CanControllerDevice::IngressTimeStampType&, int)
 .text$_ZN13VirtualDevice8PackDataIN19CanControllerDevice25EnableEgressTimeStampTypeEEEvR9vrtaEventRT_i
                0x00000001004231c0       0x80 CMakeFiles/Basic_workflow.dir/cygdrive/c/ETAS/RTA-CAR_12.2.0/RTA-CAR/workspace/Basic_Workflow/src/mcal/Can_Device.cpp.o
                0x00000001004231c0                void VirtualDevice::PackData<CanControllerDevice::EnableEgressTimeStampType>(vrtaEvent&, CanControllerDevice::EnableEgressTimeStampType&, int)
 .text$_ZN13VirtualDevice8PackDataIjEEvR9vrtaEventRT_i
                0x0000000100423240       0x80 CMakeFiles/Basic_workflow.dir/cygdrive/c/ETAS/RTA-CAR_12.2.0/RTA-CAR/workspace/Basic_Workflow/src/mcal/Can_Device.cpp.o
                0x0000000100423240                void VirtualDevice::PackData<unsigned int>(vrtaEvent&, unsigned int&, int)
 .text$_ZN13VirtualDevice8SetValueIhEEvR9vrtaEventT_
                0x00000001004232c0       0x70 CMakeFiles/Basic_workflow.dir/cygdrive/c/ETAS/RTA-CAR_12.2.0/RTA-CAR/workspace/Basic_Workflow/src/mcal/Can_Device.cpp.o
                0x00000001004232c0                void VirtualDevice::SetValue<unsigned char>(vrtaEvent&, unsigned char)
 .text$_ZN13VirtualDevice8SetValueIjEEvR9vrtaEventT_
                0x0000000100423330       0x70 CMakeFiles/Basic_workflow.dir/cygdrive/c/ETAS/RTA-CAR_12.2.0/RTA-CAR/workspace/Basic_Workflow/src/mcal/Mcu_Device.cpp.o
                0x0000000100423330                void VirtualDevice::SetValue<unsigned int>(vrtaEvent&, unsigned int)
 .text$_ZN13VirtualDevice8SetValueItEEvR9vrtaEventT_
                0x00000001004233a0       0x70 CMakeFiles/Basic_workflow.dir/cygdrive/c/ETAS/RTA-CAR_12.2.0/RTA-CAR/workspace/Basic_Workflow/src/mcal/Can_Device.cpp.o
                0x00000001004233a0                void VirtualDevice::SetValue<unsigned short>(vrtaEvent&, unsigned short)
 .text$_ZN13VirtualDevice8StartingEv
                0x0000000100423410       0x10 CMakeFiles/Basic_workflow.dir/cygdrive/c/ETAS/RTA-CAR_12.2.0/RTA-CAR/workspace/Basic_Workflow/src/mcal/Can_Device.cpp.o
                0x0000000100423410                VirtualDevice::Starting()
 .text$_ZN13VirtualDevice8StoppingEv
                0x0000000100423420       0x10 CMakeFiles/Basic_workflow.dir/cygdrive/c/ETAS/RTA-CAR_12.2.0/RTA-CAR/workspace/Basic_Workflow/src/mcal/Can_Device.cpp.o
                0x0000000100423420                VirtualDevice::Stopping()
 .text$_ZN13vrtaUpCounterC1EPcR13vrtaBaseClock
                0x0000000100423430       0x50 CMakeFiles/Basic_workflow.dir/cygdrive/c/ETAS/RTA-CAR_12.2.0/RTA-CAR/workspace/Basic_Workflow/src/vrta/VRTA_SystemClock.cpp.o
                0x0000000100423430                vrtaUpCounter::vrtaUpCounter(char*, vrtaBaseClock&)
 .text$_ZN14Can_HwProviderD2Ev
                0x0000000100423480       0x30 CMakeFiles/Basic_workflow.dir/cygdrive/c/ETAS/RTA-CAR_12.2.0/RTA-CAR/workspace/Basic_Workflow/src/mcal/VirtualCan.cpp.o
                0x0000000100423480                Can_HwProvider::~Can_HwProvider()
 .text$_ZN14vrtaComparable5ValueEv
                0x00000001004234b0       0x20 CMakeFiles/Basic_workflow.dir/cygdrive/c/ETAS/RTA-CAR_12.2.0/RTA-CAR/workspace/Basic_Workflow/src/vrta/VRTA_SystemClock.cpp.o
                0x00000001004234b0                vrtaComparable::Value()
 .text$_ZN15MCAL_HwProviderD2Ev
                0x00000001004234d0       0x20 CMakeFiles/Basic_workflow.dir/cygdrive/c/ETAS/RTA-CAR_12.2.0/RTA-CAR/workspace/Basic_Workflow/src/mcal/VirtualCan.cpp.o
                0x00000001004234d0                MCAL_HwProvider::~MCAL_HwProvider()
 .text$_ZN18Can_HwobjStateType5resetEv
                0x00000001004234f0       0x30 CMakeFiles/Basic_workflow.dir/cygdrive/c/ETAS/RTA-CAR_12.2.0/RTA-CAR/workspace/Basic_Workflow/src/mcal/Can_Implementation.cpp.o
                0x00000001004234f0                Can_HwobjStateType::reset()
 .text$_ZN18Can_HwobjStateTypeC1Ev
                0x0000000100423520       0x90 CMakeFiles/Basic_workflow.dir/cygdrive/c/ETAS/RTA-CAR_12.2.0/RTA-CAR/workspace/Basic_Workflow/src/mcal/Can_Implementation.cpp.o
                0x0000000100423520                Can_HwobjStateType::Can_HwobjStateType()
 .text$_ZN18Can_Virtual_Driver10InitialiseEv
                0x00000001004235b0      0x110 CMakeFiles/Basic_workflow.dir/cygdrive/c/ETAS/RTA-CAR_12.2.0/RTA-CAR/workspace/Basic_Workflow/src/mcal/VirtualCan.cpp.o
                0x00000001004235b0                Can_Virtual_Driver::Initialise()
 .text$_ZN18Can_Virtual_Driver10SetupEventEPi
                0x00000001004236c0       0x60 CMakeFiles/Basic_workflow.dir/cygdrive/c/ETAS/RTA-CAR_12.2.0/RTA-CAR/workspace/Basic_Workflow/src/mcal/VirtualCan.cpp.o
                0x00000001004236c0                Can_Virtual_Driver::SetupEvent(int*)
 .text$_ZN18Can_Virtual_Driver11CurrentTimeEhP17Can_TimeStampTypeh
                0x0000000100423720       0xa0 CMakeFiles/Basic_workflow.dir/cygdrive/c/ETAS/RTA-CAR_12.2.0/RTA-CAR/workspace/Basic_Workflow/src/mcal/VirtualCan.cpp.o
                0x0000000100423720                Can_Virtual_Driver::CurrentTime(unsigned char, Can_TimeStampType*, unsigned char)
 .text$_ZN18Can_Virtual_Driver11ForceBusOffEj
                0x00000001004237c0       0x90 CMakeFiles/Basic_workflow.dir/cygdrive/c/ETAS/RTA-CAR_12.2.0/RTA-CAR/workspace/Basic_Workflow/src/mcal/VirtualCan.cpp.o
                0x00000001004237c0                Can_Virtual_Driver::ForceBusOff(unsigned int)
 .text$_ZN18Can_Virtual_Driver11ForceWakeupEj
                0x0000000100423850       0x90 CMakeFiles/Basic_workflow.dir/cygdrive/c/ETAS/RTA-CAR_12.2.0/RTA-CAR/workspace/Basic_Workflow/src/mcal/VirtualCan.cpp.o
                0x0000000100423850                Can_Virtual_Driver::ForceWakeup(unsigned int)
 .text$_ZN18Can_Virtual_Driver11HandleErrorEP22Can_Virtual_Controller
                0x00000001004238e0      0x1f0 CMakeFiles/Basic_workflow.dir/cygdrive/c/ETAS/RTA-CAR_12.2.0/RTA-CAR/workspace/Basic_Workflow/src/mcal/VirtualCan.cpp.o
                0x00000001004238e0                Can_Virtual_Driver::HandleError(Can_Virtual_Controller*)
 .text$_ZN18Can_Virtual_Driver12DeInitialiseEv
                0x0000000100423ad0       0xb0 CMakeFiles/Basic_workflow.dir/cygdrive/c/ETAS/RTA-CAR_12.2.0/RTA-CAR/workspace/Basic_Workflow/src/mcal/VirtualCan.cpp.o
                0x0000000100423ad0                Can_Virtual_Driver::DeInitialise()
 .text$_ZN18Can_Virtual_Driver12HandleBusOffEP22Can_Virtual_Controller
                0x0000000100423b80       0x50 CMakeFiles/Basic_workflow.dir/cygdrive/c/ETAS/RTA-CAR_12.2.0/RTA-CAR/workspace/Basic_Workflow/src/mcal/VirtualCan.cpp.o
                0x0000000100423b80                Can_Virtual_Driver::HandleBusOff(Can_Virtual_Controller*)
 .text$_ZN18Can_Virtual_Driver12HandleWakeupEP22Can_Virtual_Controller
                0x0000000100423bd0       0x60 CMakeFiles/Basic_workflow.dir/cygdrive/c/ETAS/RTA-CAR_12.2.0/RTA-CAR/workspace/Basic_Workflow/src/mcal/VirtualCan.cpp.o
                0x0000000100423bd0                Can_Virtual_Driver::HandleWakeup(Can_Virtual_Controller*)
 .text$_ZN18Can_Virtual_Driver12ReceiveFrameEP22Can_Virtual_ControllerS1_P13Can_Hwp_Frame
                0x0000000100423c30      0x290 CMakeFiles/Basic_workflow.dir/cygdrive/c/ETAS/RTA-CAR_12.2.0/RTA-CAR/workspace/Basic_Workflow/src/mcal/VirtualCan.cpp.o
                0x0000000100423c30                Can_Virtual_Driver::ReceiveFrame(Can_Virtual_Controller*, Can_Virtual_Controller*, Can_Hwp_Frame*)
 .text$_ZN18Can_Virtual_Driver12WaitForEventEPi
                0x0000000100423ec0      0x1f0 CMakeFiles/Basic_workflow.dir/cygdrive/c/ETAS/RTA-CAR_12.2.0/RTA-CAR/workspace/Basic_Workflow/src/mcal/VirtualCan.cpp.o
                0x0000000100423ec0                Can_Virtual_Driver::WaitForEvent(int*)
 .text$_ZN18Can_Virtual_Driver12WorkerThreadEv
                0x00000001004240b0      0x1b0 CMakeFiles/Basic_workflow.dir/cygdrive/c/ETAS/RTA-CAR_12.2.0/RTA-CAR/workspace/Basic_Workflow/src/mcal/VirtualCan.cpp.o
                0x00000001004240b0                Can_Virtual_Driver::WorkerThread()
 .text$_ZN18Can_Virtual_Driver13AddControllerEjPKcPFvj13Can_Hwp_EventtP13Can_Hwp_FrameEj
                0x0000000100424260       0xb0 CMakeFiles/Basic_workflow.dir/cygdrive/c/ETAS/RTA-CAR_12.2.0/RTA-CAR/workspace/Basic_Workflow/src/mcal/VirtualCan.cpp.o
                0x0000000100424260                Can_Virtual_Driver::AddController(unsigned int, char const*, void (*)(unsigned int, Can_Hwp_Event, unsigned short, Can_Hwp_Frame*), unsigned int)
 .text$_ZN18Can_Virtual_Driver14StopControllerEj
                0x0000000100424310       0x90 CMakeFiles/Basic_workflow.dir/cygdrive/c/ETAS/RTA-CAR_12.2.0/RTA-CAR/workspace/Basic_Workflow/src/mcal/VirtualCan.cpp.o
                0x0000000100424310                Can_Virtual_Driver::StopController(unsigned int)
 .text$_ZN18Can_Virtual_Driver14TransmitFramesEP22Can_Virtual_Controllerj
                0x00000001004243a0      0x240 CMakeFiles/Basic_workflow.dir/cygdrive/c/ETAS/RTA-CAR_12.2.0/RTA-CAR/workspace/Basic_Workflow/src/mcal/VirtualCan.cpp.o
                0x00000001004243a0                Can_Virtual_Driver::TransmitFrames(Can_Virtual_Controller*, unsigned int)
 .text$_ZN18Can_Virtual_Driver15SleepControllerEj
                0x00000001004245e0       0x90 CMakeFiles/Basic_workflow.dir/cygdrive/c/ETAS/RTA-CAR_12.2.0/RTA-CAR/workspace/Basic_Workflow/src/mcal/VirtualCan.cpp.o
                0x00000001004245e0                Can_Virtual_Driver::SleepController(unsigned int)
 .text$_ZN18Can_Virtual_Driver15StartControllerEj
                0x0000000100424670       0x90 CMakeFiles/Basic_workflow.dir/cygdrive/c/ETAS/RTA-CAR_12.2.0/RTA-CAR/workspace/Basic_Workflow/src/mcal/VirtualCan.cpp.o
                0x0000000100424670                Can_Virtual_Driver::StartController(unsigned int)
 .text$_ZN18Can_Virtual_Driver17InjectCurrentTimeEh17Can_TimeStampType
                0x0000000100424700       0x90 CMakeFiles/Basic_workflow.dir/cygdrive/c/ETAS/RTA-CAR_12.2.0/RTA-CAR/workspace/Basic_Workflow/src/mcal/VirtualCan.cpp.o
                0x0000000100424700                Can_Virtual_Driver::InjectCurrentTime(unsigned char, Can_TimeStampType)
 .text$_ZN18Can_Virtual_Driver18GetEgressTimeStampEhttP17Can_TimeStampType
                0x0000000100424790      0x150 CMakeFiles/Basic_workflow.dir/cygdrive/c/ETAS/RTA-CAR_12.2.0/RTA-CAR/workspace/Basic_Workflow/src/mcal/VirtualCan.cpp.o
                0x0000000100424790                Can_Virtual_Driver::GetEgressTimeStamp(unsigned char, unsigned short, unsigned short, Can_TimeStampType*)
 .text$_ZN18Can_Virtual_Driver19ConfigureControllerEjPK21Can_Hwp_ChannelConfig
                0x00000001004248e0      0x570 CMakeFiles/Basic_workflow.dir/cygdrive/c/ETAS/RTA-CAR_12.2.0/RTA-CAR/workspace/Basic_Workflow/src/mcal/VirtualCan.cpp.o
                0x00000001004248e0                Can_Virtual_Driver::ConfigureController(unsigned int, Can_Hwp_ChannelConfig const*)
 .text$_ZN18Can_Virtual_Driver19GetIngressTimeStampEhtP17Can_TimeStampType
                0x0000000100424e50      0x120 CMakeFiles/Basic_workflow.dir/cygdrive/c/ETAS/RTA-CAR_12.2.0/RTA-CAR/workspace/Basic_Workflow/src/mcal/VirtualCan.cpp.o
                0x0000000100424e50                Can_Virtual_Driver::GetIngressTimeStamp(unsigned char, unsigned short, Can_TimeStampType*)
 .text$_ZN18Can_Virtual_Driver19IsControllerPresentEj
                0x0000000100424f70       0x70 CMakeFiles/Basic_workflow.dir/cygdrive/c/ETAS/RTA-CAR_12.2.0/RTA-CAR/workspace/Basic_Workflow/src/mcal/VirtualCan.cpp.o
                0x0000000100424f70                Can_Virtual_Driver::IsControllerPresent(unsigned int)
 .text$_ZN18Can_Virtual_Driver20ResetTransmitObjectsEP22Can_Virtual_Controller
                0x0000000100424fe0       0x70 CMakeFiles/Basic_workflow.dir/cygdrive/c/ETAS/RTA-CAR_12.2.0/RTA-CAR/workspace/Basic_Workflow/src/mcal/VirtualCan.cpp.o
                0x0000000100424fe0                Can_Virtual_Driver::ResetTransmitObjects(Can_Virtual_Controller*)
 .text$_ZN18Can_Virtual_Driver21ChangeControllerStateEP22Can_Virtual_Controller
                0x0000000100425050       0x70 CMakeFiles/Basic_workflow.dir/cygdrive/c/ETAS/RTA-CAR_12.2.0/RTA-CAR/workspace/Basic_Workflow/src/mcal/VirtualCan.cpp.o
                0x0000000100425050                Can_Virtual_Driver::ChangeControllerState(Can_Virtual_Controller*)
 .text$_ZN18Can_Virtual_Driver21EnableEgressTimeStampEht
                0x00000001004250c0      0x100 CMakeFiles/Basic_workflow.dir/cygdrive/c/ETAS/RTA-CAR_12.2.0/RTA-CAR/workspace/Basic_Workflow/src/mcal/VirtualCan.cpp.o
                0x00000001004250c0                Can_Virtual_Driver::EnableEgressTimeStamp(unsigned char, unsigned short)
 .text$_ZN18Can_Virtual_Driver21InjectEgressTimeStampEhtt17Can_TimeStampType
                0x00000001004251c0      0x160 CMakeFiles/Basic_workflow.dir/cygdrive/c/ETAS/RTA-CAR_12.2.0/RTA-CAR/workspace/Basic_Workflow/src/mcal/VirtualCan.cpp.o
                0x00000001004251c0                Can_Virtual_Driver::InjectEgressTimeStamp(unsigned char, unsigned short, unsigned short, Can_TimeStampType)
 .text$_ZN18Can_Virtual_Driver21SetControllerBaudrateEjPK22Can_Hwp_BaudrateConfig
                0x0000000100425320       0xc0 CMakeFiles/Basic_workflow.dir/cygdrive/c/ETAS/RTA-CAR_12.2.0/RTA-CAR/workspace/Basic_Workflow/src/mcal/VirtualCan.cpp.o
                0x0000000100425320                Can_Virtual_Driver::SetControllerBaudrate(unsigned int, Can_Hwp_BaudrateConfig const*)
 .text$_ZN18Can_Virtual_Driver22ControllerCausedWakeupEj
                0x00000001004253e0       0x80 CMakeFiles/Basic_workflow.dir/cygdrive/c/ETAS/RTA-CAR_12.2.0/RTA-CAR/workspace/Basic_Workflow/src/mcal/VirtualCan.cpp.o
                0x00000001004253e0                Can_Virtual_Driver::ControllerCausedWakeup(unsigned int)
 .text$_ZN18Can_Virtual_Driver22InjectIngressTimeStampEht17Can_TimeStampType
                0x0000000100425460      0x120 CMakeFiles/Basic_workflow.dir/cygdrive/c/ETAS/RTA-CAR_12.2.0/RTA-CAR/workspace/Basic_Workflow/src/mcal/VirtualCan.cpp.o
                0x0000000100425460                Can_Virtual_Driver::InjectIngressTimeStamp(unsigned char, unsigned short, Can_TimeStampType)
 .text$_ZN18Can_Virtual_Driver24EnableTransmitProcessingEjb
                0x0000000100425580       0x80 CMakeFiles/Basic_workflow.dir/cygdrive/c/ETAS/RTA-CAR_12.2.0/RTA-CAR/workspace/Basic_Workflow/src/mcal/VirtualCan.cpp.o
                0x0000000100425580                Can_Virtual_Driver::EnableTransmitProcessing(unsigned int, bool)
 .text$_ZN18Can_Virtual_Driver27GetControllerRxErrorCounterEhPh
                0x0000000100425600       0x90 CMakeFiles/Basic_workflow.dir/cygdrive/c/ETAS/RTA-CAR_12.2.0/RTA-CAR/workspace/Basic_Workflow/src/mcal/VirtualCan.cpp.o
                0x0000000100425600                Can_Virtual_Driver::GetControllerRxErrorCounter(unsigned char, unsigned char*)
 .text$_ZN18Can_Virtual_Driver27GetControllerTxErrorCounterEhPh
                0x0000000100425690       0x90 CMakeFiles/Basic_workflow.dir/cygdrive/c/ETAS/RTA-CAR_12.2.0/RTA-CAR/workspace/Basic_Workflow/src/mcal/VirtualCan.cpp.o
                0x0000000100425690                Can_Virtual_Driver::GetControllerTxErrorCounter(unsigned char, unsigned char*)
 .text$_ZN18Can_Virtual_Driver27InjectEnableEgressTimeStampEhth
                0x0000000100425720      0x110 CMakeFiles/Basic_workflow.dir/cygdrive/c/ETAS/RTA-CAR_12.2.0/RTA-CAR/workspace/Basic_Workflow/src/mcal/VirtualCan.cpp.o
                0x0000000100425720                Can_Virtual_Driver::InjectEnableEgressTimeStamp(unsigned char, unsigned short, unsigned char)
 .text$_ZN18Can_Virtual_Driver28InjectControllerRxErrorCountEhh
                0x0000000100425830       0x80 CMakeFiles/Basic_workflow.dir/cygdrive/c/ETAS/RTA-CAR_12.2.0/RTA-CAR/workspace/Basic_Workflow/src/mcal/VirtualCan.cpp.o
                0x0000000100425830                Can_Virtual_Driver::InjectControllerRxErrorCount(unsigned char, unsigned char)
 .text$_ZN18Can_Virtual_Driver28InjectControllerTxErrorCountEhh
                0x00000001004258b0       0x80 CMakeFiles/Basic_workflow.dir/cygdrive/c/ETAS/RTA-CAR_12.2.0/RTA-CAR/workspace/Basic_Workflow/src/mcal/VirtualCan.cpp.o
                0x00000001004258b0                Can_Virtual_Driver::InjectControllerTxErrorCount(unsigned char, unsigned char)
 .text$_ZN18Can_Virtual_Driver5StateEj
                0x0000000100425930       0x80 CMakeFiles/Basic_workflow.dir/cygdrive/c/ETAS/RTA-CAR_12.2.0/RTA-CAR/workspace/Basic_Workflow/src/mcal/VirtualCan.cpp.o
                0x0000000100425930                Can_Virtual_Driver::State(unsigned int)
 .text$_ZN18Can_Virtual_Driver5WriteEjtP13Can_Hwp_Frame
                0x00000001004259b0      0x3a0 CMakeFiles/Basic_workflow.dir/cygdrive/c/ETAS/RTA-CAR_12.2.0/RTA-CAR/workspace/Basic_Workflow/src/mcal/VirtualCan.cpp.o
                0x00000001004259b0                Can_Virtual_Driver::Write(unsigned int, unsigned short, Can_Hwp_Frame*)
 .text$_ZN18Can_Virtual_Driver8TeardownEv
                0x0000000100425d50       0x10 CMakeFiles/Basic_workflow.dir/cygdrive/c/ETAS/RTA-CAR_12.2.0/RTA-CAR/workspace/Basic_Workflow/src/mcal/VirtualCan.cpp.o
                0x0000000100425d50                Can_Virtual_Driver::Teardown()
 .text$_ZN18Can_Virtual_Driver9SendEventEPi
                0x0000000100425d60       0x50 CMakeFiles/Basic_workflow.dir/cygdrive/c/ETAS/RTA-CAR_12.2.0/RTA-CAR/workspace/Basic_Workflow/src/mcal/VirtualCan.cpp.o
                0x0000000100425d60                Can_Virtual_Driver::SendEvent(int*)
 .text$_ZN18Can_Virtual_DriverC1Ev
                0x0000000100425db0       0x50 CMakeFiles/Basic_workflow.dir/cygdrive/c/ETAS/RTA-CAR_12.2.0/RTA-CAR/workspace/Basic_Workflow/src/mcal/VirtualCan.cpp.o
                0x0000000100425db0                Can_Virtual_Driver::Can_Virtual_Driver()
 .text$_ZN18Can_Virtual_DriverD1Ev
                0x0000000100425e00       0xa0 CMakeFiles/Basic_workflow.dir/cygdrive/c/ETAS/RTA-CAR_12.2.0/RTA-CAR/workspace/Basic_Workflow/src/mcal/VirtualCan.cpp.o
                0x0000000100425e00                Can_Virtual_Driver::~Can_Virtual_Driver()
 .text$_ZN19CanControllerDevice10ErrorEventER9vrtaEvent
                0x0000000100425ea0       0x60 CMakeFiles/Basic_workflow.dir/cygdrive/c/ETAS/RTA-CAR_12.2.0/RTA-CAR/workspace/Basic_Workflow/src/mcal/Can_Device.cpp.o
                0x0000000100425ea0                CanControllerDevice::ErrorEvent(vrtaEvent&)
 .text$_ZN19CanControllerDevice10StateEventER9vrtaEvent
                0x0000000100425f00       0x80 CMakeFiles/Basic_workflow.dir/cygdrive/c/ETAS/RTA-CAR_12.2.0/RTA-CAR/workspace/Basic_Workflow/src/mcal/Can_Device.cpp.o
                0x0000000100425f00                CanControllerDevice::StateEvent(vrtaEvent&)
 .text$_ZN19CanControllerDevice10WriteEventER9vrtaEvent
                0x0000000100425f80       0x60 CMakeFiles/Basic_workflow.dir/cygdrive/c/ETAS/RTA-CAR_12.2.0/RTA-CAR/workspace/Basic_Workflow/src/mcal/Can_Device.cpp.o
                0x0000000100425f80                CanControllerDevice::WriteEvent(vrtaEvent&)
 .text$_ZN19CanControllerDevice11StateActionERK10vrtaAction
                0x0000000100425fe0       0x60 CMakeFiles/Basic_workflow.dir/cygdrive/c/ETAS/RTA-CAR_12.2.0/RTA-CAR/workspace/Basic_Workflow/src/mcal/Can_Device.cpp.o
                0x0000000100425fe0                CanControllerDevice::StateAction(vrtaAction const&)
 .text$_ZN19CanControllerDevice12RaiseRxEventEitP13Can_Hwp_Frame
                0x0000000100426040       0xd0 CMakeFiles/Basic_workflow.dir/cygdrive/c/ETAS/RTA-CAR_12.2.0/RTA-CAR/workspace/Basic_Workflow/src/mcal/Can_Device.cpp.o
                0x0000000100426040                CanControllerDevice::RaiseRxEvent(int, unsigned short, Can_Hwp_Frame*)
 .text$_ZN19CanControllerDevice12RaiseTxEventEitP13Can_Hwp_Frame
                0x0000000100426110       0xe0 CMakeFiles/Basic_workflow.dir/cygdrive/c/ETAS/RTA-CAR_12.2.0/RTA-CAR/workspace/Basic_Workflow/src/mcal/Can_Device.cpp.o
                0x0000000100426110                CanControllerDevice::RaiseTxEvent(int, unsigned short, Can_Hwp_Frame*)
 .text$_ZN19CanControllerDevice13GetDeviceInfoERN13VirtualDevice7OptListE
                0x00000001004261f0       0x70 CMakeFiles/Basic_workflow.dir/cygdrive/c/ETAS/RTA-CAR_12.2.0/RTA-CAR/workspace/Basic_Workflow/src/mcal/Can_Device.cpp.o
                0x00000001004261f0                CanControllerDevice::GetDeviceInfo(VirtualDevice::OptList&)
 .text$_ZN19CanControllerDevice14InjectRxActionERK10vrtaAction
                0x0000000100426260       0xb0 CMakeFiles/Basic_workflow.dir/cygdrive/c/ETAS/RTA-CAR_12.2.0/RTA-CAR/workspace/Basic_Workflow/src/mcal/Can_Device.cpp.o
                0x0000000100426260                CanControllerDevice::InjectRxAction(vrtaAction const&)
 .text$_ZN19CanControllerDevice15DropWriteActionERK10vrtaAction
                0x0000000100426310       0x50 CMakeFiles/Basic_workflow.dir/cygdrive/c/ETAS/RTA-CAR_12.2.0/RTA-CAR/workspace/Basic_Workflow/src/mcal/Can_Device.cpp.o
                0x0000000100426310                CanControllerDevice::DropWriteAction(vrtaAction const&)
 .text$_ZN19CanControllerDevice15ErrorStateEventER9vrtaEvent
                0x0000000100426360       0x60 CMakeFiles/Basic_workflow.dir/cygdrive/c/ETAS/RTA-CAR_12.2.0/RTA-CAR/workspace/Basic_Workflow/src/mcal/Can_Device.cpp.o
                0x0000000100426360                CanControllerDevice::ErrorStateEvent(vrtaEvent&)
 .text$_ZN19CanControllerDevice15GetDeviceEventsERN13VirtualDevice9EventListE
                0x00000001004263c0      0x8a0 CMakeFiles/Basic_workflow.dir/cygdrive/c/ETAS/RTA-CAR_12.2.0/RTA-CAR/workspace/Basic_Workflow/src/mcal/Can_Device.cpp.o
                0x00000001004263c0                CanControllerDevice::GetDeviceEvents(VirtualDevice::EventList&)
 .text$_ZN19CanControllerDevice15RaiseErrorEventEj
                0x0000000100426c60       0x50 CMakeFiles/Basic_workflow.dir/cygdrive/c/ETAS/RTA-CAR_12.2.0/RTA-CAR/workspace/Basic_Workflow/src/mcal/Can_Device.cpp.o
                0x0000000100426c60                CanControllerDevice::RaiseErrorEvent(unsigned int)
 .text$_ZN19CanControllerDevice15RaiseStateEventEi14Can_EventStatePKc
                0x0000000100426cb0       0xa0 CMakeFiles/Basic_workflow.dir/cygdrive/c/ETAS/RTA-CAR_12.2.0/RTA-CAR/workspace/Basic_Workflow/src/mcal/Can_Device.cpp.o
                0x0000000100426cb0                CanControllerDevice::RaiseStateEvent(int, Can_EventState, char const*)
 .text$_ZN19CanControllerDevice15RaiseWriteEventEihhtP13Can_Hwp_Frame
                0x0000000100426d50      0x160 CMakeFiles/Basic_workflow.dir/cygdrive/c/ETAS/RTA-CAR_12.2.0/RTA-CAR/workspace/Basic_Workflow/src/mcal/Can_Device.cpp.o
                0x0000000100426d50                CanControllerDevice::RaiseWriteEvent(int, unsigned char, unsigned char, unsigned short, Can_Hwp_Frame*)
 .text$_ZN19CanControllerDevice16CurrentTimeEventER9vrtaEvent
                0x0000000100426eb0       0x60 CMakeFiles/Basic_workflow.dir/cygdrive/c/ETAS/RTA-CAR_12.2.0/RTA-CAR/workspace/Basic_Workflow/src/mcal/Can_Device.cpp.o
                0x0000000100426eb0                CanControllerDevice::CurrentTimeEvent(vrtaEvent&)
 .text$_ZN19CanControllerDevice16GetDeviceActionsERN13VirtualDevice10ActionListE
                0x0000000100426f10      0x800 CMakeFiles/Basic_workflow.dir/cygdrive/c/ETAS/RTA-CAR_12.2.0/RTA-CAR/workspace/Basic_Workflow/src/mcal/Can_Device.cpp.o
                0x0000000100426f10                CanControllerDevice::GetDeviceActions(VirtualDevice::ActionList&)
 .text$_ZN19CanControllerDevice17DropReceiveActionERK10vrtaAction
                0x0000000100427710       0x50 CMakeFiles/Basic_workflow.dir/cygdrive/c/ETAS/RTA-CAR_12.2.0/RTA-CAR/workspace/Basic_Workflow/src/mcal/Can_Device.cpp.o
                0x0000000100427710                CanControllerDevice::DropReceiveAction(vrtaAction const&)
 .text$_ZN19CanControllerDevice17ForceWakeupActionERK10vrtaAction
                0x0000000100427760       0x30 CMakeFiles/Basic_workflow.dir/cygdrive/c/ETAS/RTA-CAR_12.2.0/RTA-CAR/workspace/Basic_Workflow/src/mcal/Can_Device.cpp.o
                0x0000000100427760                CanControllerDevice::ForceWakeupAction(vrtaAction const&)
 .text$_ZN19CanControllerDevice17InjectErrorActionERK10vrtaAction
                0x0000000100427790       0x50 CMakeFiles/Basic_workflow.dir/cygdrive/c/ETAS/RTA-CAR_12.2.0/RTA-CAR/workspace/Basic_Workflow/src/mcal/Can_Device.cpp.o
                0x0000000100427790                CanControllerDevice::InjectErrorAction(vrtaAction const&)
 .text$_ZN19CanControllerDevice17InjectWriteActionERK10vrtaAction
                0x00000001004277e0       0x90 CMakeFiles/Basic_workflow.dir/cygdrive/c/ETAS/RTA-CAR_12.2.0/RTA-CAR/workspace/Basic_Workflow/src/mcal/Can_Device.cpp.o
                0x00000001004277e0                CanControllerDevice::InjectWriteAction(vrtaAction const&)
 .text$_ZN19CanControllerDevice19RxErrorCounterEventER9vrtaEvent
                0x0000000100427870       0x60 CMakeFiles/Basic_workflow.dir/cygdrive/c/ETAS/RTA-CAR_12.2.0/RTA-CAR/workspace/Basic_Workflow/src/mcal/Can_Device.cpp.o
                0x0000000100427870                CanControllerDevice::RxErrorCounterEvent(vrtaEvent&)
 .text$_ZN19CanControllerDevice19TxErrorCounterEventER9vrtaEvent
                0x00000001004278d0       0x60 CMakeFiles/Basic_workflow.dir/cygdrive/c/ETAS/RTA-CAR_12.2.0/RTA-CAR/workspace/Basic_Workflow/src/mcal/Can_Device.cpp.o
                0x00000001004278d0                CanControllerDevice::TxErrorCounterEvent(vrtaEvent&)
 .text$_ZN19CanControllerDevice20EgressTimeStampEventER9vrtaEvent
                0x0000000100427930       0x60 CMakeFiles/Basic_workflow.dir/cygdrive/c/ETAS/RTA-CAR_12.2.0/RTA-CAR/workspace/Basic_Workflow/src/mcal/Can_Device.cpp.o
                0x0000000100427930                CanControllerDevice::EgressTimeStampEvent(vrtaEvent&)
 .text$_ZN19CanControllerDevice20RaiseErrorStateEventEj
                0x0000000100427990       0x50 CMakeFiles/Basic_workflow.dir/cygdrive/c/ETAS/RTA-CAR_12.2.0/RTA-CAR/workspace/Basic_Workflow/src/mcal/Can_Device.cpp.o
                0x0000000100427990                CanControllerDevice::RaiseErrorStateEvent(unsigned int)
 .text$_ZN19CanControllerDevice21IngressTimeStampEventER9vrtaEvent
                0x00000001004279e0       0x60 CMakeFiles/Basic_workflow.dir/cygdrive/c/ETAS/RTA-CAR_12.2.0/RTA-CAR/workspace/Basic_Workflow/src/mcal/Can_Device.cpp.o
                0x00000001004279e0                CanControllerDevice::IngressTimeStampEvent(vrtaEvent&)
 .text$_ZN19CanControllerDevice21RaiseCurrentTimeEventE17Can_TimeStampType
                0x0000000100427a40       0x60 CMakeFiles/Basic_workflow.dir/cygdrive/c/ETAS/RTA-CAR_12.2.0/RTA-CAR/workspace/Basic_Workflow/src/mcal/Can_Device.cpp.o
                0x0000000100427a40                CanControllerDevice::RaiseCurrentTimeEvent(Can_TimeStampType)
 .text$_ZN19CanControllerDevice22InjectErrorStateActionERK10vrtaAction
                0x0000000100427aa0       0x50 CMakeFiles/Basic_workflow.dir/cygdrive/c/ETAS/RTA-CAR_12.2.0/RTA-CAR/workspace/Basic_Workflow/src/mcal/Can_Device.cpp.o
                0x0000000100427aa0                CanControllerDevice::InjectErrorStateAction(vrtaAction const&)
 .text$_ZN19CanControllerDevice23InjectCurrentTimeActionERK10vrtaAction
                0x0000000100427af0       0x60 CMakeFiles/Basic_workflow.dir/cygdrive/c/ETAS/RTA-CAR_12.2.0/RTA-CAR/workspace/Basic_Workflow/src/mcal/Can_Device.cpp.o
                0x0000000100427af0                CanControllerDevice::InjectCurrentTimeAction(vrtaAction const&)
 .text$_ZN19CanControllerDevice24RaiseRxErrorCounterEventEh
                0x0000000100427b50       0x50 CMakeFiles/Basic_workflow.dir/cygdrive/c/ETAS/RTA-CAR_12.2.0/RTA-CAR/workspace/Basic_Workflow/src/mcal/Can_Device.cpp.o
                0x0000000100427b50                CanControllerDevice::RaiseRxErrorCounterEvent(unsigned char)
 .text$_ZN19CanControllerDevice24RaiseTxErrorCounterEventEh
                0x0000000100427ba0       0x50 CMakeFiles/Basic_workflow.dir/cygdrive/c/ETAS/RTA-CAR_12.2.0/RTA-CAR/workspace/Basic_Workflow/src/mcal/Can_Device.cpp.o
                0x0000000100427ba0                CanControllerDevice::RaiseTxErrorCounterEvent(unsigned char)
 .text$_ZN19CanControllerDevice25RaiseEgressTimeStampEventEtt17Can_TimeStampType
                0x0000000100427bf0       0x90 CMakeFiles/Basic_workflow.dir/cygdrive/c/ETAS/RTA-CAR_12.2.0/RTA-CAR/workspace/Basic_Workflow/src/mcal/Can_Device.cpp.o
                0x0000000100427bf0                CanControllerDevice::RaiseEgressTimeStampEvent(unsigned short, unsigned short, Can_TimeStampType)
 .text$_ZN19CanControllerDevice26EnableEgressTimeStampEventER9vrtaEvent
                0x0000000100427c80       0x60 CMakeFiles/Basic_workflow.dir/cygdrive/c/ETAS/RTA-CAR_12.2.0/RTA-CAR/workspace/Basic_Workflow/src/mcal/Can_Device.cpp.o
                0x0000000100427c80                CanControllerDevice::EnableEgressTimeStampEvent(vrtaEvent&)
 .text$_ZN19CanControllerDevice26RaiseIngressTimeStampEventEt17Can_TimeStampType
                0x0000000100427ce0       0x70 CMakeFiles/Basic_workflow.dir/cygdrive/c/ETAS/RTA-CAR_12.2.0/RTA-CAR/workspace/Basic_Workflow/src/mcal/Can_Device.cpp.o
                0x0000000100427ce0                CanControllerDevice::RaiseIngressTimeStampEvent(unsigned short, Can_TimeStampType)
 .text$_ZN19CanControllerDevice27InjectEgressTimeStampActionERK10vrtaAction
                0x0000000100427d50       0x60 CMakeFiles/Basic_workflow.dir/cygdrive/c/ETAS/RTA-CAR_12.2.0/RTA-CAR/workspace/Basic_Workflow/src/mcal/Can_Device.cpp.o
                0x0000000100427d50                CanControllerDevice::InjectEgressTimeStampAction(vrtaAction const&)
 .text$_ZN19CanControllerDevice28InjectIngressTimeStampActionERK10vrtaAction
                0x0000000100427db0       0x50 CMakeFiles/Basic_workflow.dir/cygdrive/c/ETAS/RTA-CAR_12.2.0/RTA-CAR/workspace/Basic_Workflow/src/mcal/Can_Device.cpp.o
                0x0000000100427db0                CanControllerDevice::InjectIngressTimeStampAction(vrtaAction const&)
 .text$_ZN19CanControllerDevice31RaiseEnableEgressTimeStampEventEtj
                0x0000000100427e00       0x60 CMakeFiles/Basic_workflow.dir/cygdrive/c/ETAS/RTA-CAR_12.2.0/RTA-CAR/workspace/Basic_Workflow/src/mcal/Can_Device.cpp.o
                0x0000000100427e00                CanControllerDevice::RaiseEnableEgressTimeStampEvent(unsigned short, unsigned int)
 .text$_ZN19CanControllerDevice33InjectEnableEgressTimeStampActionERK10vrtaAction
                0x0000000100427e60       0x50 CMakeFiles/Basic_workflow.dir/cygdrive/c/ETAS/RTA-CAR_12.2.0/RTA-CAR/workspace/Basic_Workflow/src/mcal/Can_Device.cpp.o
                0x0000000100427e60                CanControllerDevice::InjectEnableEgressTimeStampAction(vrtaAction const&)
 .text$_ZN19CanControllerDevice34InjectControllerRxErrorCountActionERK10vrtaAction
                0x0000000100427eb0       0x50 CMakeFiles/Basic_workflow.dir/cygdrive/c/ETAS/RTA-CAR_12.2.0/RTA-CAR/workspace/Basic_Workflow/src/mcal/Can_Device.cpp.o
                0x0000000100427eb0                CanControllerDevice::InjectControllerRxErrorCountAction(vrtaAction const&)
 .text$_ZN19CanControllerDevice34InjectControllerTxErrorCountActionERK10vrtaAction
                0x0000000100427f00       0x50 CMakeFiles/Basic_workflow.dir/cygdrive/c/ETAS/RTA-CAR_12.2.0/RTA-CAR/workspace/Basic_Workflow/src/mcal/Can_Device.cpp.o
                0x0000000100427f00                CanControllerDevice::InjectControllerTxErrorCountAction(vrtaAction const&)
 .text$_ZN19CanControllerDevice6ParentER9vrtaEvent
                0x0000000100427f50       0x60 CMakeFiles/Basic_workflow.dir/cygdrive/c/ETAS/RTA-CAR_12.2.0/RTA-CAR/workspace/Basic_Workflow/src/mcal/Can_Device.cpp.o
                0x0000000100427f50                CanControllerDevice::Parent(vrtaEvent&)
 .text$_ZN19CanControllerDevice7RxEventER9vrtaEvent
                0x0000000100427fb0       0x70 CMakeFiles/Basic_workflow.dir/cygdrive/c/ETAS/RTA-CAR_12.2.0/RTA-CAR/workspace/Basic_Workflow/src/mcal/Can_Device.cpp.o
                0x0000000100427fb0                CanControllerDevice::RxEvent(vrtaEvent&)
 .text$_ZN19CanControllerDevice7TxEventER9vrtaEvent
                0x0000000100428020       0x70 CMakeFiles/Basic_workflow.dir/cygdrive/c/ETAS/RTA-CAR_12.2.0/RTA-CAR/workspace/Basic_Workflow/src/mcal/Can_Device.cpp.o
                0x0000000100428020                CanControllerDevice::TxEvent(vrtaEvent&)
 .text$_ZN19CanControllerDeviceC1EPKchht
                0x0000000100428090      0x2b0 CMakeFiles/Basic_workflow.dir/cygdrive/c/ETAS/RTA-CAR_12.2.0/RTA-CAR/workspace/Basic_Workflow/src/mcal/Can_Device.cpp.o
                0x0000000100428090                CanControllerDevice::CanControllerDevice(char const*, unsigned char, unsigned char, unsigned short)
 .text$_ZN19CanControllerDeviceD0Ev
                0x0000000100428340       0x30 CMakeFiles/Basic_workflow.dir/cygdrive/c/ETAS/RTA-CAR_12.2.0/RTA-CAR/workspace/Basic_Workflow/src/mcal/Can_Device.cpp.o
                0x0000000100428340                CanControllerDevice::~CanControllerDevice()
 .text$_ZN19CanControllerDeviceD1Ev
                0x0000000100428370       0x30 CMakeFiles/Basic_workflow.dir/cygdrive/c/ETAS/RTA-CAR_12.2.0/RTA-CAR/workspace/Basic_Workflow/src/mcal/Can_Device.cpp.o
                0x0000000100428370                CanControllerDevice::~CanControllerDevice()
 .text$_ZN19Can_RxHwObjFifoType5clearEv
                0x00000001004283a0      0x180 CMakeFiles/Basic_workflow.dir/cygdrive/c/ETAS/RTA-CAR_12.2.0/RTA-CAR/workspace/Basic_Workflow/src/mcal/Can_Implementation.cpp.o
                0x00000001004283a0                Can_RxHwObjFifoType::clear()
 .text$_ZN19Can_RxHwObjFifoType7dequeueER11PduInfoTypeR10Can_HwTypej
                0x0000000100428520      0x1a0 CMakeFiles/Basic_workflow.dir/cygdrive/c/ETAS/RTA-CAR_12.2.0/RTA-CAR/workspace/Basic_Workflow/src/mcal/Can_Implementation.cpp.o
                0x0000000100428520                Can_RxHwObjFifoType::dequeue(PduInfoType&, Can_HwType&, unsigned int)
 .text$_ZN19Can_RxHwObjFifoType7enqueueEPK13Can_Hwp_Framet
                0x00000001004286c0      0x150 CMakeFiles/Basic_workflow.dir/cygdrive/c/ETAS/RTA-CAR_12.2.0/RTA-CAR/workspace/Basic_Workflow/src/mcal/Can_Implementation.cpp.o
                0x00000001004286c0                Can_RxHwObjFifoType::enqueue(Can_Hwp_Frame const*, unsigned short)
 .text$_ZN19Can_RxHwObjFifoTypeC1Ev
                0x0000000100428810       0x40 CMakeFiles/Basic_workflow.dir/cygdrive/c/ETAS/RTA-CAR_12.2.0/RTA-CAR/workspace/Basic_Workflow/src/mcal/Can_Implementation.cpp.o
                0x0000000100428810                Can_RxHwObjFifoType::Can_RxHwObjFifoType()
 .text$_ZN20Can_ChannelStateTypeC1Ev
                0x0000000100428850       0x90 CMakeFiles/Basic_workflow.dir/cygdrive/c/ETAS/RTA-CAR_12.2.0/RTA-CAR/workspace/Basic_Workflow/src/mcal/Can_Implementation.cpp.o
                0x0000000100428850                Can_ChannelStateType::Can_ChannelStateType()
 .text$_ZN20Can_Virtual_TxObjectC1Ev
                0x00000001004288e0       0x80 CMakeFiles/Basic_workflow.dir/cygdrive/c/ETAS/RTA-CAR_12.2.0/RTA-CAR/workspace/Basic_Workflow/src/mcal/VirtualCan.cpp.o
                0x00000001004288e0                Can_Virtual_TxObject::Can_Virtual_TxObject()
 .text$_ZN22Can_Virtual_Controller6UpCallE13Can_Hwp_EventtP13Can_Hwp_Frame
                0x0000000100428960       0x50 CMakeFiles/Basic_workflow.dir/cygdrive/c/ETAS/RTA-CAR_12.2.0/RTA-CAR/workspace/Basic_Workflow/src/mcal/VirtualCan.cpp.o
                0x0000000100428960                Can_Virtual_Controller::UpCall(Can_Hwp_Event, unsigned short, Can_Hwp_Frame*)
 .text$_ZN22Can_Virtual_ControllerC1Ev
                0x00000001004289b0      0x170 CMakeFiles/Basic_workflow.dir/cygdrive/c/ETAS/RTA-CAR_12.2.0/RTA-CAR/workspace/Basic_Workflow/src/mcal/VirtualCan.cpp.o
                0x00000001004289b0                Can_Virtual_Controller::Can_Virtual_Controller()
 .text$_ZN22Can_Virtual_ControllerD1Ev
                0x0000000100428b20       0xb0 CMakeFiles/Basic_workflow.dir/cygdrive/c/ETAS/RTA-CAR_12.2.0/RTA-CAR/workspace/Basic_Workflow/src/mcal/VirtualCan.cpp.o
                0x0000000100428b20                Can_Virtual_Controller::~Can_Virtual_Controller()
 .text$_ZN22Can_Virtual_HwProvider11GetHardwareEPFvj13Can_Hwp_EventtP13Can_Hwp_FrameEjj
                0x0000000100428bd0       0xa0 CMakeFiles/Basic_workflow.dir/cygdrive/c/ETAS/RTA-CAR_12.2.0/RTA-CAR/workspace/Basic_Workflow/src/mcal/VirtualCan.cpp.o
                0x0000000100428bd0                Can_Virtual_HwProvider::GetHardware(void (*)(unsigned int, Can_Hwp_Event, unsigned short, Can_Hwp_Frame*), unsigned int, unsigned int)
 .text$_ZN22Can_Virtual_HwProvider14IsHardwareHereEj
                0x0000000100428c70       0x30 CMakeFiles/Basic_workflow.dir/cygdrive/c/ETAS/RTA-CAR_12.2.0/RTA-CAR/workspace/Basic_Workflow/src/mcal/VirtualCan.cpp.o
                0x0000000100428c70                Can_Virtual_HwProvider::IsHardwareHere(unsigned int)
 .text$_ZN22Can_Virtual_HwProvider17IsHardwarePresentEj
                0x0000000100428ca0       0x30 CMakeFiles/Basic_workflow.dir/cygdrive/c/ETAS/RTA-CAR_12.2.0/RTA-CAR/workspace/Basic_Workflow/src/mcal/VirtualCan.cpp.o
                0x0000000100428ca0                Can_Virtual_HwProvider::IsHardwarePresent(unsigned int)
 .text$_ZN22Can_Virtual_HwProviderD0Ev
                0x0000000100428cd0       0x30 CMakeFiles/Basic_workflow.dir/cygdrive/c/ETAS/RTA-CAR_12.2.0/RTA-CAR/workspace/Basic_Workflow/src/mcal/VirtualCan.cpp.o
                0x0000000100428cd0                Can_Virtual_HwProvider::~Can_Virtual_HwProvider()
 .text$_ZN22Can_Virtual_HwProviderD1Ev
                0x0000000100428d00       0x30 CMakeFiles/Basic_workflow.dir/cygdrive/c/ETAS/RTA-CAR_12.2.0/RTA-CAR/workspace/Basic_Workflow/src/mcal/VirtualCan.cpp.o
                0x0000000100428d00                Can_Virtual_HwProvider::~Can_Virtual_HwProvider()
 .text$_ZN6Can_Hw24EnableTransmitProcessingEb
                0x0000000100428d30       0x10 CMakeFiles/Basic_workflow.dir/cygdrive/c/ETAS/RTA-CAR_12.2.0/RTA-CAR/workspace/Basic_Workflow/src/mcal/VirtualCan.cpp.o
                0x0000000100428d30                Can_Hw::EnableTransmitProcessing(bool)
 .text$_ZN6Can_Hw4NameEv
                0x0000000100428d40       0x20 CMakeFiles/Basic_workflow.dir/cygdrive/c/ETAS/RTA-CAR_12.2.0/RTA-CAR/workspace/Basic_Workflow/src/mcal/Can_Implementation.cpp.o
                0x0000000100428d40                Can_Hw::Name()
 .text$_ZN6Can_HwC2EPFvj13Can_Hwp_EventtP13Can_Hwp_FrameEj
                0x0000000100428d60       0x60 CMakeFiles/Basic_workflow.dir/cygdrive/c/ETAS/RTA-CAR_12.2.0/RTA-CAR/workspace/Basic_Workflow/src/mcal/VirtualCan.cpp.o
                0x0000000100428d60                Can_Hw::Can_Hw(void (*)(unsigned int, Can_Hwp_Event, unsigned short, Can_Hwp_Frame*), unsigned int)
 .text$_ZN6Can_HwD2Ev
                0x0000000100428dc0       0x20 CMakeFiles/Basic_workflow.dir/cygdrive/c/ETAS/RTA-CAR_12.2.0/RTA-CAR/workspace/Basic_Workflow/src/mcal/VirtualCan.cpp.o
                0x0000000100428dc0                Can_Hw::~Can_Hw()
 .text$_ZN9CanDevice10StateEventER9vrtaEvent
                0x0000000100428de0       0x40 CMakeFiles/Basic_workflow.dir/cygdrive/c/ETAS/RTA-CAR_12.2.0/RTA-CAR/workspace/Basic_Workflow/src/mcal/Can_Device.cpp.o
                0x0000000100428de0                CanDevice::StateEvent(vrtaEvent&)
 .text$_ZN9CanDevice11UpdateErrorEij
                0x0000000100428e20       0x40 CMakeFiles/Basic_workflow.dir/cygdrive/c/ETAS/RTA-CAR_12.2.0/RTA-CAR/workspace/Basic_Workflow/src/mcal/Can_Device.cpp.o
                0x0000000100428e20                CanDevice::UpdateError(int, unsigned int)
 .text$_ZN9CanDevice13GetDeviceInfoERN13VirtualDevice7OptListE
                0x0000000100428e60       0x70 CMakeFiles/Basic_workflow.dir/cygdrive/c/ETAS/RTA-CAR_12.2.0/RTA-CAR/workspace/Basic_Workflow/src/mcal/Can_Device.cpp.o
                0x0000000100428e60                CanDevice::GetDeviceInfo(VirtualDevice::OptList&)
 .text$_ZN9CanDevice13RaiseCanStateE16Can_DriverStatus
                0x0000000100428ed0       0x60 CMakeFiles/Basic_workflow.dir/cygdrive/c/ETAS/RTA-CAR_12.2.0/RTA-CAR/workspace/Basic_Workflow/src/mcal/Can_Device.cpp.o
                0x0000000100428ed0                CanDevice::RaiseCanState(Can_DriverStatus)
 .text$_ZN9CanDevice13UpdateRxEventEitP13Can_Hwp_Frame
                0x0000000100428f30       0x50 CMakeFiles/Basic_workflow.dir/cygdrive/c/ETAS/RTA-CAR_12.2.0/RTA-CAR/workspace/Basic_Workflow/src/mcal/Can_Device.cpp.o
                0x0000000100428f30                CanDevice::UpdateRxEvent(int, unsigned short, Can_Hwp_Frame*)
 .text$_ZN9CanDevice13UpdateTxEventEitP13Can_Hwp_Frame
                0x0000000100428f80       0x50 CMakeFiles/Basic_workflow.dir/cygdrive/c/ETAS/RTA-CAR_12.2.0/RTA-CAR/workspace/Basic_Workflow/src/mcal/Can_Device.cpp.o
                0x0000000100428f80                CanDevice::UpdateTxEvent(int, unsigned short, Can_Hwp_Frame*)
 .text$_ZN9CanDevice15GetDeviceEventsERN13VirtualDevice9EventListE
                0x0000000100428fd0       0x80 CMakeFiles/Basic_workflow.dir/cygdrive/c/ETAS/RTA-CAR_12.2.0/RTA-CAR/workspace/Basic_Workflow/src/mcal/Can_Device.cpp.o
                0x0000000100428fd0                CanDevice::GetDeviceEvents(VirtualDevice::EventList&)
 .text$_ZN9CanDevice16GetDeviceActionsERN13VirtualDevice10ActionListE
                0x0000000100429050       0x10 CMakeFiles/Basic_workflow.dir/cygdrive/c/ETAS/RTA-CAR_12.2.0/RTA-CAR/workspace/Basic_Workflow/src/mcal/Can_Device.cpp.o
                0x0000000100429050                CanDevice::GetDeviceActions(VirtualDevice::ActionList&)
 .text$_ZN9CanDevice16UpdateErrorStateEij
                0x0000000100429060       0x40 CMakeFiles/Basic_workflow.dir/cygdrive/c/ETAS/RTA-CAR_12.2.0/RTA-CAR/workspace/Basic_Workflow/src/mcal/Can_Device.cpp.o
                0x0000000100429060                CanDevice::UpdateErrorState(int, unsigned int)
 .text$_ZN9CanDevice16UpdateStateEventEi14Can_EventStatePKc
                0x00000001004290a0       0x50 CMakeFiles/Basic_workflow.dir/cygdrive/c/ETAS/RTA-CAR_12.2.0/RTA-CAR/workspace/Basic_Workflow/src/mcal/Can_Device.cpp.o
                0x00000001004290a0                CanDevice::UpdateStateEvent(int, Can_EventState, char const*)
 .text$_ZN9CanDevice16UpdateWriteEventEihhtP13Can_Hwp_Frame
                0x00000001004290f0       0x70 CMakeFiles/Basic_workflow.dir/cygdrive/c/ETAS/RTA-CAR_12.2.0/RTA-CAR/workspace/Basic_Workflow/src/mcal/Can_Device.cpp.o
                0x00000001004290f0                CanDevice::UpdateWriteEvent(int, unsigned char, unsigned char, unsigned short, Can_Hwp_Frame*)
 .text$_ZN9CanDevice17UpdateCurrentTimeEi17Can_TimeStampType
                0x0000000100429160       0x40 CMakeFiles/Basic_workflow.dir/cygdrive/c/ETAS/RTA-CAR_12.2.0/RTA-CAR/workspace/Basic_Workflow/src/mcal/Can_Device.cpp.o
                0x0000000100429160                CanDevice::UpdateCurrentTime(int, Can_TimeStampType)
 .text$_ZN9CanDevice22UpdateIngressTimeStampEit17Can_TimeStampType
                0x00000001004291a0       0x50 CMakeFiles/Basic_workflow.dir/cygdrive/c/ETAS/RTA-CAR_12.2.0/RTA-CAR/workspace/Basic_Workflow/src/mcal/Can_Device.cpp.o
                0x00000001004291a0                CanDevice::UpdateIngressTimeStamp(int, unsigned short, Can_TimeStampType)
 .text$_ZN9CanDevice26UpdateEgressTimeStampEventEitt17Can_TimeStampType
                0x00000001004291f0       0x50 CMakeFiles/Basic_workflow.dir/cygdrive/c/ETAS/RTA-CAR_12.2.0/RTA-CAR/workspace/Basic_Workflow/src/mcal/Can_Device.cpp.o
                0x00000001004291f0                CanDevice::UpdateEgressTimeStampEvent(int, unsigned short, unsigned short, Can_TimeStampType)
 .text$_ZN9CanDevice27UpdateEnableEgressTimeStampEith
                0x0000000100429240       0x50 CMakeFiles/Basic_workflow.dir/cygdrive/c/ETAS/RTA-CAR_12.2.0/RTA-CAR/workspace/Basic_Workflow/src/mcal/Can_Device.cpp.o
                0x0000000100429240                CanDevice::UpdateEnableEgressTimeStamp(int, unsigned short, unsigned char)
 .text$_ZN9CanDevice30UpdateControllerRxErrorCounterEih
                0x0000000100429290       0x40 CMakeFiles/Basic_workflow.dir/cygdrive/c/ETAS/RTA-CAR_12.2.0/RTA-CAR/workspace/Basic_Workflow/src/mcal/Can_Device.cpp.o
                0x0000000100429290                CanDevice::UpdateControllerRxErrorCounter(int, unsigned char)
 .text$_ZN9CanDevice30UpdateControllerTxErrorCounterEih
                0x00000001004292d0       0x40 CMakeFiles/Basic_workflow.dir/cygdrive/c/ETAS/RTA-CAR_12.2.0/RTA-CAR/workspace/Basic_Workflow/src/mcal/Can_Device.cpp.o
                0x00000001004292d0                CanDevice::UpdateControllerTxErrorCounter(int, unsigned char)
 .text$_ZN9CanDevice8RaiseIsrEv
                0x0000000100429310       0x10 CMakeFiles/Basic_workflow.dir/cygdrive/c/ETAS/RTA-CAR_12.2.0/RTA-CAR/workspace/Basic_Workflow/src/mcal/Can_Device.cpp.o
                0x0000000100429310                CanDevice::RaiseIsr()
 .text$_ZN9CanDeviceC1EPKc
                0x0000000100429320      0x100 CMakeFiles/Basic_workflow.dir/cygdrive/c/ETAS/RTA-CAR_12.2.0/RTA-CAR/workspace/Basic_Workflow/src/mcal/Can_Device.cpp.o
                0x0000000100429320                CanDevice::CanDevice(char const*)
 .text$_ZN9CanDeviceD0Ev
                0x0000000100429420       0x30 CMakeFiles/Basic_workflow.dir/cygdrive/c/ETAS/RTA-CAR_12.2.0/RTA-CAR/workspace/Basic_Workflow/src/mcal/Can_Device.cpp.o
                0x0000000100429420                CanDevice::~CanDevice()
 .text$_ZN9CanDeviceD1Ev
                0x0000000100429450       0x30 CMakeFiles/Basic_workflow.dir/cygdrive/c/ETAS/RTA-CAR_12.2.0/RTA-CAR/workspace/Basic_Workflow/src/mcal/Can_Device.cpp.o
                0x0000000100429450                CanDevice::~CanDevice()
 .text$_ZN9McuDevice11ResetReasonE13Mcu_ResetType
                0x0000000100429480       0xc0 CMakeFiles/Basic_workflow.dir/cygdrive/c/ETAS/RTA-CAR_12.2.0/RTA-CAR/workspace/Basic_Workflow/src/mcal/Mcu_Device.cpp.o
                0x0000000100429480                McuDevice::ResetReason(Mcu_ResetType)
 .text$_ZN9McuDevice11Reset_countEv
                0x0000000100429540       0x20 CMakeFiles/Basic_workflow.dir/cygdrive/c/ETAS/RTA-CAR_12.2.0/RTA-CAR/workspace/Basic_Workflow/src/mcal/Mcu_Device.cpp.o
                0x0000000100429540                McuDevice::Reset_count()
 .text$_ZN9McuDevice13GetDeviceInfoERN13VirtualDevice7OptListE
                0x0000000100429560       0x70 CMakeFiles/Basic_workflow.dir/cygdrive/c/ETAS/RTA-CAR_12.2.0/RTA-CAR/workspace/Basic_Workflow/src/mcal/Mcu_Device.cpp.o
                0x0000000100429560                McuDevice::GetDeviceInfo(VirtualDevice::OptList&)
 .text$_ZN9McuDevice15GetDeviceEventsERN13VirtualDevice9EventListE
                0x00000001004295d0       0xf0 CMakeFiles/Basic_workflow.dir/cygdrive/c/ETAS/RTA-CAR_12.2.0/RTA-CAR/workspace/Basic_Workflow/src/mcal/Mcu_Device.cpp.o
                0x00000001004295d0                McuDevice::GetDeviceEvents(VirtualDevice::EventList&)
 .text$_ZN9McuDevice15ResetCountEventER9vrtaEvent
                0x00000001004296c0       0x40 CMakeFiles/Basic_workflow.dir/cygdrive/c/ETAS/RTA-CAR_12.2.0/RTA-CAR/workspace/Basic_Workflow/src/mcal/Mcu_Device.cpp.o
                0x00000001004296c0                McuDevice::ResetCountEvent(vrtaEvent&)
 .text$_ZN9McuDevice16GetDeviceActionsERN13VirtualDevice10ActionListE
                0x0000000100429700       0x80 CMakeFiles/Basic_workflow.dir/cygdrive/c/ETAS/RTA-CAR_12.2.0/RTA-CAR/workspace/Basic_Workflow/src/mcal/Mcu_Device.cpp.o
                0x0000000100429700                McuDevice::GetDeviceActions(VirtualDevice::ActionList&)
 .text$_ZN9McuDevice16ResetReasonEventER9vrtaEvent
                0x0000000100429780       0x40 CMakeFiles/Basic_workflow.dir/cygdrive/c/ETAS/RTA-CAR_12.2.0/RTA-CAR/workspace/Basic_Workflow/src/mcal/Mcu_Device.cpp.o
                0x0000000100429780                McuDevice::ResetReasonEvent(vrtaEvent&)
 .text$_ZN9McuDevice17GetPersistentDataEv
                0x00000001004297c0       0x20 CMakeFiles/Basic_workflow.dir/cygdrive/c/ETAS/RTA-CAR_12.2.0/RTA-CAR/workspace/Basic_Workflow/src/mcal/Mcu_Device.cpp.o
                0x00000001004297c0                McuDevice::GetPersistentData()
 .text$_ZN9McuDevice17InjectResetActionERK10vrtaAction
                0x00000001004297e0       0x40 CMakeFiles/Basic_workflow.dir/cygdrive/c/ETAS/RTA-CAR_12.2.0/RTA-CAR/workspace/Basic_Workflow/src/mcal/Mcu_Device.cpp.o
                0x00000001004297e0                McuDevice::InjectResetAction(vrtaAction const&)
 .text$_ZN9McuDevice17SetPersistentDataEPht
                0x0000000100429820       0x30 CMakeFiles/Basic_workflow.dir/cygdrive/c/ETAS/RTA-CAR_12.2.0/RTA-CAR/workspace/Basic_Workflow/src/mcal/Mcu_Device.cpp.o
                0x0000000100429820                McuDevice::SetPersistentData(unsigned char*, unsigned short)
 .text$_ZN9McuDevice21GetPersistentDataSizeEv
                0x0000000100429850       0x10 CMakeFiles/Basic_workflow.dir/cygdrive/c/ETAS/RTA-CAR_12.2.0/RTA-CAR/workspace/Basic_Workflow/src/mcal/Mcu_Device.cpp.o
                0x0000000100429850                McuDevice::GetPersistentDataSize()
 .text$_ZN9McuDeviceC1EPKc
                0x0000000100429860       0xb0 CMakeFiles/Basic_workflow.dir/cygdrive/c/ETAS/RTA-CAR_12.2.0/RTA-CAR/workspace/Basic_Workflow/src/mcal/Mcu_Device.cpp.o
                0x0000000100429860                McuDevice::McuDevice(char const*)
 .text$_ZN9McuDeviceD0Ev
                0x0000000100429910       0x30 CMakeFiles/Basic_workflow.dir/cygdrive/c/ETAS/RTA-CAR_12.2.0/RTA-CAR/workspace/Basic_Workflow/src/mcal/Mcu_Device.cpp.o
                0x0000000100429910                McuDevice::~McuDevice()
 .text$_ZN9McuDeviceD1Ev
                0x0000000100429940       0x30 CMakeFiles/Basic_workflow.dir/cygdrive/c/ETAS/RTA-CAR_12.2.0/RTA-CAR/workspace/Basic_Workflow/src/mcal/Mcu_Device.cpp.o
                0x0000000100429940                McuDevice::~McuDevice()
 .text$_ZN9__gnu_cxx24__concurrence_lock_errorD0Ev
                0x0000000100429970       0x30 /usr/lib/gcc/x86_64-pc-cygwin/11/libstdc++.a(eh_alloc.o)
                0x0000000100429970                __gnu_cxx::__concurrence_lock_error::~__concurrence_lock_error()
 .text$_ZN9__gnu_cxx24__concurrence_lock_errorD1Ev
                0x00000001004299a0       0x10 /usr/lib/gcc/x86_64-pc-cygwin/11/libstdc++.a(eh_alloc.o)
                0x00000001004299a0                __gnu_cxx::__concurrence_lock_error::~__concurrence_lock_error()
 .text$_ZN9__gnu_cxx26__concurrence_unlock_errorD0Ev
                0x00000001004299b0       0x30 /usr/lib/gcc/x86_64-pc-cygwin/11/libstdc++.a(eh_alloc.o)
                0x00000001004299b0                __gnu_cxx::__concurrence_unlock_error::~__concurrence_unlock_error()
 .text$_ZN9__gnu_cxx26__concurrence_unlock_errorD1Ev
                0x00000001004299e0       0x10 /usr/lib/gcc/x86_64-pc-cygwin/11/libstdc++.a(eh_alloc.o)
                0x00000001004299e0                __gnu_cxx::__concurrence_unlock_error::~__concurrence_unlock_error()
 .text$_ZN9__gnu_cxx27__verbose_terminate_handlerEv
                0x00000001004299f0      0x1b0 /usr/lib/gcc/x86_64-pc-cygwin/11/libstdc++.a(vterminate.o)
                0x00000001004299f0                __gnu_cxx::__verbose_terminate_handler()
 .text$_ZN9__gnu_cxx30__throw_concurrence_lock_errorEv
                0x0000000100429ba0       0x30 /usr/lib/gcc/x86_64-pc-cygwin/11/libstdc++.a(eh_alloc.o)
                0x0000000100429ba0                __gnu_cxx::__throw_concurrence_lock_error()
 .text$_ZN9__gnu_cxx32__throw_concurrence_unlock_errorEv
                0x0000000100429bd0       0x30 /usr/lib/gcc/x86_64-pc-cygwin/11/libstdc++.a(eh_alloc.o)
                0x0000000100429bd0                __gnu_cxx::__throw_concurrence_unlock_error()
 .text$_ZN9__gnu_cxx9__freeresEv
                0x0000000100429c00       0x30 /usr/lib/gcc/x86_64-pc-cygwin/11/libstdc++.a(eh_alloc.o)
                0x0000000100429c00                __gnu_cxx::__freeres()
 .text$_ZN9vrtaClockD1Ev
                0x0000000100429c30       0x50 CMakeFiles/Basic_workflow.dir/cygdrive/c/ETAS/RTA-CAR_12.2.0/RTA-CAR/workspace/Basic_Workflow/src/vrta/VRTA_SystemClock.cpp.o
                0x0000000100429c30                vrtaClock::~vrtaClock()
 .text$_ZNK10__cxxabiv117__class_type_info10__do_catchEPKSt9type_infoPPvj
                0x0000000100429c80       0x60 /usr/lib/gcc/x86_64-pc-cygwin/11/libstdc++.a(class_type_info.o)
                0x0000000100429c80                __cxxabiv1::__class_type_info::__do_catch(std::type_info const*, void**, unsigned int) const
 .text$_ZNK10__cxxabiv117__class_type_info11__do_upcastEPKS0_PKvRNS0_15__upcast_resultE
                0x0000000100429ce0       0x30 /usr/lib/gcc/x86_64-pc-cygwin/11/libstdc++.a(class_type_info.o)
                0x0000000100429ce0                __cxxabiv1::__class_type_info::__do_upcast(__cxxabiv1::__class_type_info const*, void const*, __cxxabiv1::__class_type_info::__upcast_result&) const
 .text$_ZNK10__cxxabiv117__class_type_info11__do_upcastEPKS0_PPv
                0x0000000100429d10       0x60 /usr/lib/gcc/x86_64-pc-cygwin/11/libstdc++.a(class_type_info.o)
                0x0000000100429d10                __cxxabiv1::__class_type_info::__do_upcast(__cxxabiv1::__class_type_info const*, void**) const
 .text$_ZNK10__cxxabiv117__class_type_info12__do_dyncastElNS0_10__sub_kindEPKS0_PKvS3_S5_RNS0_16__dyncast_resultE
                0x0000000100429d70       0x80 /usr/lib/gcc/x86_64-pc-cygwin/11/libstdc++.a(class_type_info.o)
                0x0000000100429d70                __cxxabiv1::__class_type_info::__do_dyncast(long, __cxxabiv1::__class_type_info::__sub_kind, __cxxabiv1::__class_type_info const*, void const*, __cxxabiv1::__class_type_info const*, void const*, __cxxabiv1::__class_type_info::__dyncast_result&) const
 .text$_ZNK10__cxxabiv117__class_type_info20__do_find_public_srcElPKvPKS0_S2_
                0x0000000100429df0       0x10 /usr/lib/gcc/x86_64-pc-cygwin/11/libstdc++.a(class_type_info.o)
                0x0000000100429df0                __cxxabiv1::__class_type_info::__do_find_public_src(long, void const*, __cxxabiv1::__class_type_info const*, void const*) const
 .text$_ZNK10__cxxabiv120__si_class_type_info11__do_upcastEPKNS_17__class_type_infoEPKvRNS1_15__upcast_resultE
                0x0000000100429e00       0x50 /usr/lib/gcc/x86_64-pc-cygwin/11/libstdc++.a(si_class_type_info.o)
                0x0000000100429e00                __cxxabiv1::__si_class_type_info::__do_upcast(__cxxabiv1::__class_type_info const*, void const*, __cxxabiv1::__class_type_info::__upcast_result&) const
 .text$_ZNK10__cxxabiv120__si_class_type_info12__do_dyncastElNS_17__class_type_info10__sub_kindEPKS1_PKvS4_S6_RNS1_16__dyncast_resultE
                0x0000000100429e50      0x110 /usr/lib/gcc/x86_64-pc-cygwin/11/libstdc++.a(si_class_type_info.o)
                0x0000000100429e50                __cxxabiv1::__si_class_type_info::__do_dyncast(long, __cxxabiv1::__class_type_info::__sub_kind, __cxxabiv1::__class_type_info const*, void const*, __cxxabiv1::__class_type_info const*, void const*, __cxxabiv1::__class_type_info::__dyncast_result&) const
 .text$_ZNK10__cxxabiv120__si_class_type_info20__do_find_public_srcElPKvPKNS_17__class_type_infoES2_
                0x0000000100429f60       0x70 /usr/lib/gcc/x86_64-pc-cygwin/11/libstdc++.a(si_class_type_info.o)
                0x0000000100429f60                __cxxabiv1::__si_class_type_info::__do_find_public_src(long, void const*, __cxxabiv1::__class_type_info const*, void const*) const
 .text$_ZNK19Can_RxHwObjFifoType7isEmptyEv
                0x0000000100429fd0       0x40 CMakeFiles/Basic_workflow.dir/cygdrive/c/ETAS/RTA-CAR_12.2.0/RTA-CAR/workspace/Basic_Workflow/src/mcal/Can_Implementation.cpp.o
                0x0000000100429fd0                Can_RxHwObjFifoType::isEmpty() const
 .text$_ZNK9__gnu_cxx24__concurrence_lock_error4whatEv
                0x000000010042a010       0x10 /usr/lib/gcc/x86_64-pc-cygwin/11/libstdc++.a(eh_alloc.o)
                0x000000010042a010                __gnu_cxx::__concurrence_lock_error::what() const
 .text$_ZNK9__gnu_cxx26__concurrence_unlock_error4whatEv
                0x000000010042a020       0x10 /usr/lib/gcc/x86_64-pc-cygwin/11/libstdc++.a(eh_alloc.o)
                0x000000010042a020                __gnu_cxx::__concurrence_unlock_error::what() const
 .text$_ZNKSt10bad_typeid4whatEv
                0x000000010042a030       0x10 /usr/lib/gcc/x86_64-pc-cygwin/11/libstdc++.a(bad_typeid.o)
                0x000000010042a030                std::bad_typeid::what() const
 .text$_ZNKSt13bad_exception4whatEv
                0x000000010042a040       0x10 /usr/lib/gcc/x86_64-pc-cygwin/11/libstdc++.a(eh_exception.o)
                0x000000010042a040                transaction clone for std::bad_exception::what() const
                0x000000010042a040                std::bad_exception::what() const
 .text$_ZNKSt20bad_array_new_length4whatEv
                0x000000010042a050       0x10 /usr/lib/gcc/x86_64-pc-cygwin/11/libstdc++.a(bad_array_new.o)
                0x000000010042a050                std::bad_array_new_length::what() const
 .text$_ZNKSt8bad_cast4whatEv
                0x000000010042a060       0x10 /usr/lib/gcc/x86_64-pc-cygwin/11/libstdc++.a(bad_cast.o)
                0x000000010042a060                std::bad_cast::what() const
 .text$_ZNKSt9bad_alloc4whatEv
                0x000000010042a070       0x10 /usr/lib/gcc/x86_64-pc-cygwin/11/libstdc++.a(bad_alloc.o)
                0x000000010042a070                std::bad_alloc::what() const
 .text$_ZNKSt9exception4whatEv
                0x000000010042a080       0x10 /usr/lib/gcc/x86_64-pc-cygwin/11/libstdc++.a(eh_exception.o)
                0x000000010042a080                transaction clone for std::exception::what() const
                0x000000010042a080                std::exception::what() const
 .text$_ZNKSt9type_info10__do_catchEPKS_PPvj
                0x000000010042a090       0x40 /usr/lib/gcc/x86_64-pc-cygwin/11/libstdc++.a(tinfo.o)
                0x000000010042a090                std::type_info::__do_catch(std::type_info const*, void**, unsigned int) const
 .text$_ZNKSt9type_info11__do_upcastEPKN10__cxxabiv117__class_type_infoEPPv
                0x000000010042a0d0       0x10 /usr/lib/gcc/x86_64-pc-cygwin/11/libstdc++.a(tinfo.o)
                0x000000010042a0d0                std::type_info::__do_upcast(__cxxabiv1::__class_type_info const*, void**) const
 .text$_ZNKSt9type_info14__is_pointer_pEv
                0x000000010042a0e0       0x10 /usr/lib/gcc/x86_64-pc-cygwin/11/libstdc++.a(tinfo.o)
                0x000000010042a0e0                std::type_info::__is_function_p() const
                0x000000010042a0e0                std::type_info::__is_pointer_p() const
 .text$_ZNKSt9type_infoeqERKS_
                0x000000010042a0f0       0x40 /usr/lib/gcc/x86_64-pc-cygwin/11/libstdc++.a(tinfo.o)
                0x000000010042a0f0                std::type_info::operator==(std::type_info const&) const
 .text$_ZNSt10bad_typeidD0Ev
                0x000000010042a130       0x30 /usr/lib/gcc/x86_64-pc-cygwin/11/libstdc++.a(bad_typeid.o)
                0x000000010042a130                std::bad_typeid::~bad_typeid()
 .text$_ZNSt10bad_typeidD2Ev
                0x000000010042a160       0x10 /usr/lib/gcc/x86_64-pc-cygwin/11/libstdc++.a(bad_typeid.o)
                0x000000010042a160                std::bad_typeid::~bad_typeid()
                0x000000010042a160                std::bad_typeid::~bad_typeid()
 .text$_ZNSt13bad_exceptionD0Ev
                0x000000010042a170       0x10 /usr/lib/gcc/x86_64-pc-cygwin/11/libstdc++.a(eh_exception.o)
                0x000000010042a170                std::bad_exception::~bad_exception()
 .text$_ZNSt13bad_exceptionD2Ev
                0x000000010042a180       0x10 /usr/lib/gcc/x86_64-pc-cygwin/11/libstdc++.a(eh_exception.o)
                0x000000010042a180                std::bad_exception::~bad_exception()
                0x000000010042a180                std::bad_exception::~bad_exception()
 .text$_ZNSt20bad_array_new_lengthD0Ev
                0x000000010042a190       0x30 /usr/lib/gcc/x86_64-pc-cygwin/11/libstdc++.a(bad_array_new.o)
                0x000000010042a190                std::bad_array_new_length::~bad_array_new_length()
 .text$_ZNSt20bad_array_new_lengthD2Ev
                0x000000010042a1c0       0x10 /usr/lib/gcc/x86_64-pc-cygwin/11/libstdc++.a(bad_array_new.o)
                0x000000010042a1c0                std::bad_array_new_length::~bad_array_new_length()
                0x000000010042a1c0                std::bad_array_new_length::~bad_array_new_length()
 .text$_ZNSt8bad_castD0Ev
                0x000000010042a1d0       0x30 /usr/lib/gcc/x86_64-pc-cygwin/11/libstdc++.a(bad_cast.o)
                0x000000010042a1d0                std::bad_cast::~bad_cast()
 .text$_ZNSt8bad_castD2Ev
                0x000000010042a200       0x10 /usr/lib/gcc/x86_64-pc-cygwin/11/libstdc++.a(bad_cast.o)
                0x000000010042a200                std::bad_cast::~bad_cast()
                0x000000010042a200                std::bad_cast::~bad_cast()
 .text$_ZNSt9bad_allocD0Ev
                0x000000010042a210       0x30 /usr/lib/gcc/x86_64-pc-cygwin/11/libstdc++.a(bad_alloc.o)
                0x000000010042a210                std::bad_alloc::~bad_alloc()
 .text$_ZNSt9bad_allocD2Ev
                0x000000010042a240       0x10 /usr/lib/gcc/x86_64-pc-cygwin/11/libstdc++.a(bad_alloc.o)
                0x000000010042a240                std::bad_alloc::~bad_alloc()
                0x000000010042a240                std::bad_alloc::~bad_alloc()
 .text$_ZNSt9exceptionD0Ev
                0x000000010042a250       0x10 /usr/lib/gcc/x86_64-pc-cygwin/11/libstdc++.a(eh_exception.o)
                0x000000010042a250                std::exception::~exception()
 .text$_ZNSt9exceptionD2Ev
                0x000000010042a260       0x10 /usr/lib/gcc/x86_64-pc-cygwin/11/libstdc++.a(eh_exception.o)
                0x000000010042a260                std::exception::~exception()
                0x000000010042a260                std::exception::~exception()
 .text$_ZNSt9type_infoD0Ev
                0x000000010042a270       0x10 /usr/lib/gcc/x86_64-pc-cygwin/11/libstdc++.a(tinfo.o)
                0x000000010042a270                std::type_info::~type_info()
 .text$_ZNSt9type_infoD2Ev
                0x000000010042a280       0x10 /usr/lib/gcc/x86_64-pc-cygwin/11/libstdc++.a(tinfo.o)
                0x000000010042a280                std::type_info::~type_info()
                0x000000010042a280                std::type_info::~type_info()
 .text$_ZSt10unexpectedv
                0x000000010042a290       0x20 /usr/lib/gcc/x86_64-pc-cygwin/11/libstdc++.a(eh_terminate.o)
                0x000000010042a290                std::unexpected()
 .text$_ZSt13get_terminatev
                0x000000010042a2b0       0x10 /usr/lib/gcc/x86_64-pc-cygwin/11/libstdc++.a(eh_terminate.o)
                0x000000010042a2b0                std::get_terminate()
 .text$_ZSt13set_terminatePFvvE
                0x000000010042a2c0       0x20 /usr/lib/gcc/x86_64-pc-cygwin/11/libstdc++.a(eh_terminate.o)
                0x000000010042a2c0                std::set_terminate(void (*)())
 .text$_ZSt14get_unexpectedv
                0x000000010042a2e0       0x10 /usr/lib/gcc/x86_64-pc-cygwin/11/libstdc++.a(eh_terminate.o)
                0x000000010042a2e0                std::get_unexpected()
 .text$_ZSt14set_unexpectedPFvvE
                0x000000010042a2f0       0x20 /usr/lib/gcc/x86_64-pc-cygwin/11/libstdc++.a(eh_terminate.o)
                0x000000010042a2f0                std::set_unexpected(void (*)())
 .text$_ZSt15get_new_handlerv
                0x000000010042a310       0x10 /usr/lib/gcc/x86_64-pc-cygwin/11/libstdc++.a(new_handler.o)
                0x000000010042a310                std::get_new_handler()
 .text$_ZSt15set_new_handlerPFvvE
                0x000000010042a320       0x10 /usr/lib/gcc/x86_64-pc-cygwin/11/libstdc++.a(new_handler.o)
                0x000000010042a320                std::set_new_handler(void (*)())
 .text$_ZSt18uncaught_exceptionv
                0x000000010042a330       0x20 /usr/lib/gcc/x86_64-pc-cygwin/11/libstdc++.a(eh_catch.o)
                0x000000010042a330                std::uncaught_exception()
 .text$_ZSt19uncaught_exceptionsv
                0x000000010042a350       0x20 /usr/lib/gcc/x86_64-pc-cygwin/11/libstdc++.a(eh_catch.o)
                0x000000010042a350                std::uncaught_exceptions()
 .text$_ZSt9terminatev
                0x000000010042a370       0x20 /usr/lib/gcc/x86_64-pc-cygwin/11/libstdc++.a(eh_terminate.o)
                0x000000010042a370                std::terminate()
 .text$_ZThn56_N9vrtaClockD1Ev
                0x000000010042a390       0x10 CMakeFiles/Basic_workflow.dir/cygdrive/c/ETAS/RTA-CAR_12.2.0/RTA-CAR/workspace/Basic_Workflow/src/vrta/VRTA_SystemClock.cpp.o
                0x000000010042a390                non-virtual thunk to vrtaClock::~vrtaClock()
 .text$_ZdaPv   0x000000010042a3a0       0x10 /usr/lib/gcc/x86_64-pc-cygwin/11/libstdc++.a(del_opv.o)
                0x000000010042a3a0                operator delete[](void*)
 .text$_ZdaPvm  0x000000010042a3b0       0x10 /usr/lib/gcc/x86_64-pc-cygwin/11/libstdc++.a(del_opvs.o)
                0x000000010042a3b0                operator delete[](void*, unsigned long)
 .text$_ZdlPv   0x000000010042a3c0       0x10 /usr/lib/gcc/x86_64-pc-cygwin/11/libstdc++.a(del_op.o)
                0x000000010042a3c0                operator delete(void*)
 .text$_ZdlPvm  0x000000010042a3d0       0x10 /usr/lib/gcc/x86_64-pc-cygwin/11/libstdc++.a(del_ops.o)
                0x000000010042a3d0                operator delete(void*, unsigned long)
 .text$_Znam    0x000000010042a3e0       0x10 /usr/lib/gcc/x86_64-pc-cygwin/11/libstdc++.a(new_opv.o)
                0x000000010042a3e0                operator new[](unsigned long)
 .text$_Znwm    0x000000010042a3f0       0x70 /usr/lib/gcc/x86_64-pc-cygwin/11/libstdc++.a(new_op.o)
                0x000000010042a3f0                operator new(unsigned long)
 .text$__cxa_allocate_dependent_exception
                0x000000010042a460       0x70 /usr/lib/gcc/x86_64-pc-cygwin/11/libstdc++.a(eh_alloc.o)
                0x000000010042a460                __cxa_allocate_dependent_exception
 .text$__cxa_allocate_exception
                0x000000010042a4d0       0x70 /usr/lib/gcc/x86_64-pc-cygwin/11/libstdc++.a(eh_alloc.o)
                0x000000010042a4d0                __cxa_allocate_exception
 .text$__cxa_begin_catch
                0x000000010042a540       0x80 /usr/lib/gcc/x86_64-pc-cygwin/11/libstdc++.a(eh_catch.o)
                0x000000010042a540                __cxa_begin_catch
 .text$__cxa_call_terminate
                0x000000010042a5c0       0x40 /usr/lib/gcc/x86_64-pc-cygwin/11/libstdc++.a(eh_call.o)
                0x000000010042a5c0                __cxa_call_terminate
 .text$__cxa_call_unexpected
                0x000000010042a600       0xf0 /usr/lib/gcc/x86_64-pc-cygwin/11/libstdc++.a(eh_personality.o)
                0x000000010042a600                __cxa_call_unexpected
 .text$__cxa_current_exception_type
                0x000000010042a6f0       0x30 /usr/lib/gcc/x86_64-pc-cygwin/11/libstdc++.a(eh_type.o)
                0x000000010042a6f0                __cxa_current_exception_type
 .text$__cxa_end_catch
                0x000000010042a720       0x90 /usr/lib/gcc/x86_64-pc-cygwin/11/libstdc++.a(eh_catch.o)
                0x000000010042a720                __cxa_end_catch
 .text$__cxa_free_dependent_exception
                0x000000010042a7b0       0x40 /usr/lib/gcc/x86_64-pc-cygwin/11/libstdc++.a(eh_alloc.o)
                0x000000010042a7b0                __cxa_free_dependent_exception
 .text$__cxa_free_exception
                0x000000010042a7f0       0x40 /usr/lib/gcc/x86_64-pc-cygwin/11/libstdc++.a(eh_alloc.o)
                0x000000010042a7f0                __cxa_free_exception
 .text$__cxa_get_exception_ptr
                0x000000010042a830       0x10 /usr/lib/gcc/x86_64-pc-cygwin/11/libstdc++.a(eh_catch.o)
                0x000000010042a830                __cxa_get_exception_ptr
 .text$__cxa_get_globals
                0x000000010042a840       0x10 /usr/lib/gcc/x86_64-pc-cygwin/11/libstdc++.a(eh_globals.o)
                0x000000010042a840                __cxa_get_globals
 .text$__cxa_get_globals_fast
                0x000000010042a850       0x10 /usr/lib/gcc/x86_64-pc-cygwin/11/libstdc++.a(eh_globals.o)
                0x000000010042a850                __cxa_get_globals_fast
 .text$__cxa_init_primary_exception
                0x000000010042a860       0x60 /usr/lib/gcc/x86_64-pc-cygwin/11/libstdc++.a(eh_throw.o)
                0x000000010042a860                __cxa_init_primary_exception
 .text$__cxa_rethrow
                0x000000010042a8c0       0x50 /usr/lib/gcc/x86_64-pc-cygwin/11/libstdc++.a(eh_throw.o)
                0x000000010042a8c0                __cxa_rethrow
 .text$__cxa_throw
                0x000000010042a910       0x50 /usr/lib/gcc/x86_64-pc-cygwin/11/libstdc++.a(eh_throw.o)
                0x000000010042a910                __cxa_throw
 .text$__gxx_personality_seh0
                0x000000010042a960       0x20 /usr/lib/gcc/x86_64-pc-cygwin/11/libstdc++.a(eh_personality.o)
                0x000000010042a960                __gxx_personality_seh0
 *(.text.*)
 .text.unlikely.__cxa_bad_cast
                0x000000010042a980       0x40 /usr/lib/gcc/x86_64-pc-cygwin/11/libstdc++.a(eh_aux_runtime.o)
                0x000000010042a980                __cxa_bad_cast
 .text.unlikely.__cxa_bad_typeid
                0x000000010042a9c0       0x40 /usr/lib/gcc/x86_64-pc-cygwin/11/libstdc++.a(eh_aux_runtime.o)
                0x000000010042a9c0                __cxa_bad_typeid
 .text.unlikely.__cxa_throw_bad_array_new_length
                0x000000010042aa00       0x40 /usr/lib/gcc/x86_64-pc-cygwin/11/libstdc++.a(eh_aux_runtime.o)
                0x000000010042aa00                __cxa_throw_bad_array_new_length
 .text.unlikely
                0x000000010042aa40       0x70 /usr/lib/gcc/x86_64-pc-cygwin/11/libstdc++.a(cp-demangle.o)
 .text.startup._GLOBAL__sub_I__ZN9__gnu_cxx9__freeresEv
                0x000000010042aab0       0x70 /usr/lib/gcc/x86_64-pc-cygwin/11/libstdc++.a(eh_alloc.o)
 .text.startup  0x000000010042ab20       0xe0 /usr/lib/gcc/x86_64-pc-cygwin/11/../../../../lib/libcygwin.a(libcmain.o)
                0x000000010042ab20                main
 .text.startup  0x000000010042ac00       0x10 /usr/lib/gcc/x86_64-pc-cygwin/11/crtend.o
 *(.gnu.linkonce.t.*)
 *(.glue_7t)
 *(.glue_7)
                0x000000010042ac10                . = ALIGN (0x8)
                0x000000010042ac10                ___CTOR_LIST__ = .
                0x000000010042ac10                __CTOR_LIST__ = .
                0x000000010042ac10        0x4 LONG 0xffffffffffffffff
                0x000000010042ac14        0x4 LONG 0xffffffffffffffff
 *(.ctors)
 .ctors         0x000000010042ac18        0x8 CMakeFiles/Basic_workflow.dir/cygdrive/c/ETAS/RTA-CAR_12.2.0/RTA-CAR/workspace/Basic_Workflow/src/mcal/Can_Device.cpp.o
 .ctors         0x000000010042ac20        0x8 CMakeFiles/Basic_workflow.dir/cygdrive/c/ETAS/RTA-CAR_12.2.0/RTA-CAR/workspace/Basic_Workflow/src/mcal/Mcu_Device.cpp.o
 .ctors         0x000000010042ac28        0x8 CMakeFiles/Basic_workflow.dir/cygdrive/c/ETAS/RTA-CAR_12.2.0/RTA-CAR/workspace/Basic_Workflow/src/mcal/VirtualCan.cpp.o
 .ctors         0x000000010042ac30        0x8 CMakeFiles/Basic_workflow.dir/cygdrive/c/ETAS/RTA-CAR_12.2.0/RTA-CAR/workspace/Basic_Workflow/src/vrta/VRTA_SystemClock.cpp.o
 .ctors         0x000000010042ac38        0x8 /usr/lib/gcc/x86_64-pc-cygwin/11/libstdc++.a(eh_alloc.o)
 *(.ctor)
 *(SORT_BY_NAME(.ctors.*))
 .ctors.65535   0x000000010042ac40        0x8 /usr/lib/gcc/x86_64-pc-cygwin/11/crtend.o
                0x000000010042ac48        0x4 LONG 0x0
                0x000000010042ac4c        0x4 LONG 0x0
                0x000000010042ac50                ___DTOR_LIST__ = .
                0x000000010042ac50                __DTOR_LIST__ = .
                0x000000010042ac50        0x4 LONG 0xffffffffffffffff
                0x000000010042ac54        0x4 LONG 0xffffffffffffffff
 *(.dtors)
 *(.dtor)
 *(SORT_BY_NAME(.dtors.*))
                0x000000010042ac58        0x4 LONG 0x0
                0x000000010042ac5c        0x4 LONG 0x0
 *(SORT_NONE(.fini))
 *(.gcc_exc)
                [!provide]                        PROVIDE (etext = .)
 *(.gcc_except_table)

.data           0x000000010042b000      0x800
                0x000000010042b000                __data_start__ = .
 *(.data)
 .data          0x000000010042b000        0x0 /usr/lib/gcc/x86_64-pc-cygwin/11/../../../../lib/crt0.o
 .data          0x000000010042b000       0x10 /usr/lib/gcc/x86_64-pc-cygwin/11/crtbegin.o
                0x000000010042b000                __dso_handle
 *fill*         0x000000010042b010       0x10 
 .data          0x000000010042b020       0x40 CMakeFiles/Basic_workflow.dir/Unity/unity_4_c.c.o
                0x000000010042b020                Can_ConfigData
 .data          0x000000010042b060        0x0 CMakeFiles/Basic_workflow.dir/Unity/unity_3_c.c.o
 .data          0x000000010042b060        0x0 CMakeFiles/Basic_workflow.dir/Unity/unity_2_c.c.o
 .data          0x000000010042b060        0x0 CMakeFiles/Basic_workflow.dir/Unity/unity_1_c.c.o
 .data          0x000000010042b060      0x560 CMakeFiles/Basic_workflow.dir/Unity/unity_0_c.c.o
                0x000000010042b060                BswM_Prv_DeferredReqstInfo_ast
                0x000000010042b0c0                BswM_GetDelayedReqInfo_capfct
                0x000000010042b1c0                BswM_Prv_RuleState_aen
 .data          0x000000010042b5c0       0x10 CMakeFiles/Basic_workflow.dir/cygdrive/c/ETAS/RTA-CAR_12.2.0/RTA-CAR/workspace/Basic_Workflow/src/asw/MySWC.c.o
 .data          0x000000010042b5d0        0x0 CMakeFiles/Basic_workflow.dir/cygdrive/c/ETAS/RTA-CAR_12.2.0/RTA-CAR/workspace/Basic_Workflow/src/bsw/Det/src/Det.c.o
 .data          0x000000010042b5d0        0x0 CMakeFiles/Basic_workflow.dir/cygdrive/c/ETAS/RTA-CAR_12.2.0/RTA-CAR/workspace/Basic_Workflow/src/bsw/EcuM/EcuM_Cfg.c.o
 .data          0x000000010042b5d0        0x0 CMakeFiles/Basic_workflow.dir/cygdrive/c/ETAS/RTA-CAR_12.2.0/RTA-CAR/workspace/Basic_Workflow/src/bsw/EcuM/EcuM_Cfg_PbExt.c.o
 .data          0x000000010042b5d0        0x0 CMakeFiles/Basic_workflow.dir/cygdrive/c/ETAS/RTA-CAR_12.2.0/RTA-CAR/workspace/Basic_Workflow/src/bsw/EcuM/EcuM_Cfg_RbMo.c.o
 .data          0x000000010042b5d0        0x0 CMakeFiles/Basic_workflow.dir/cygdrive/c/ETAS/RTA-CAR_12.2.0/RTA-CAR/workspace/Basic_Workflow/src/bsw/EcuM/EcuM_Cfg_Shutdown.c.o
 .data          0x000000010042b5d0        0x0 CMakeFiles/Basic_workflow.dir/cygdrive/c/ETAS/RTA-CAR_12.2.0/RTA-CAR/workspace/Basic_Workflow/src/bsw/EcuM/EcuM_Cfg_Sleep.c.o
 .data          0x000000010042b5d0        0x0 CMakeFiles/Basic_workflow.dir/cygdrive/c/ETAS/RTA-CAR_12.2.0/RTA-CAR/workspace/Basic_Workflow/src/bsw/EcuM/EcuM_Cfg_Startup.c.o
 .data          0x000000010042b5d0        0x0 CMakeFiles/Basic_workflow.dir/cygdrive/c/ETAS/RTA-CAR_12.2.0/RTA-CAR/workspace/Basic_Workflow/src/bsw/EcuM/EcuM_Cfg_SynchPoint.c.o
 .data          0x000000010042b5d0        0x0 CMakeFiles/Basic_workflow.dir/cygdrive/c/ETAS/RTA-CAR_12.2.0/RTA-CAR/workspace/Basic_Workflow/src/bsw/EcuM/EcuM_Lcfg.c.o
 .data          0x000000010042b5d0        0x0 CMakeFiles/Basic_workflow.dir/cygdrive/c/ETAS/RTA-CAR_12.2.0/RTA-CAR/workspace/Basic_Workflow/src/bsw/EcuM/EcuM_PBcfg.c.o
 .data          0x000000010042b5d0        0x0 CMakeFiles/Basic_workflow.dir/cygdrive/c/ETAS/RTA-CAR_12.2.0/RTA-CAR/workspace/Basic_Workflow/src/bsw/EcuM/integration/EcuM_Callout_Stubs.c.o
 .data          0x000000010042b5d0        0x0 CMakeFiles/Basic_workflow.dir/cygdrive/c/ETAS/RTA-CAR_12.2.0/RTA-CAR/workspace/Basic_Workflow/src/bsw/EcuM/src/EcuM_BootTarget.c.o
 .data          0x000000010042b5d0        0x0 CMakeFiles/Basic_workflow.dir/cygdrive/c/ETAS/RTA-CAR_12.2.0/RTA-CAR/workspace/Basic_Workflow/src/bsw/EcuM/src/EcuM_CurrentState.c.o
 .data          0x000000010042b5d0        0x0 CMakeFiles/Basic_workflow.dir/cygdrive/c/ETAS/RTA-CAR_12.2.0/RTA-CAR/workspace/Basic_Workflow/src/bsw/EcuM/src/EcuM_KillAllRequests.c.o
 .data          0x000000010042b5d0        0x0 CMakeFiles/Basic_workflow.dir/cygdrive/c/ETAS/RTA-CAR_12.2.0/RTA-CAR/workspace/Basic_Workflow/src/bsw/EcuM/src/EcuM_MainFunction.c.o
 .data          0x000000010042b5d0        0x0 CMakeFiles/Basic_workflow.dir/cygdrive/c/ETAS/RTA-CAR_12.2.0/RTA-CAR/workspace/Basic_Workflow/src/bsw/EcuM/src/EcuM_Misc.c.o
 .data          0x000000010042b5d0        0x0 CMakeFiles/Basic_workflow.dir/cygdrive/c/ETAS/RTA-CAR_12.2.0/RTA-CAR/workspace/Basic_Workflow/src/bsw/EcuM/src/EcuM_Prv.c.o
 .data          0x000000010042b5d0        0x0 CMakeFiles/Basic_workflow.dir/cygdrive/c/ETAS/RTA-CAR_12.2.0/RTA-CAR/workspace/Basic_Workflow/src/bsw/EcuM/src/EcuM_Prv_RteActions.c.o
 .data          0x000000010042b5d0        0x0 CMakeFiles/Basic_workflow.dir/cygdrive/c/ETAS/RTA-CAR_12.2.0/RTA-CAR/workspace/Basic_Workflow/src/bsw/EcuM/src/EcuM_ReleasePOST_RUN.c.o
 .data          0x000000010042b5d0        0x0 CMakeFiles/Basic_workflow.dir/cygdrive/c/ETAS/RTA-CAR_12.2.0/RTA-CAR/workspace/Basic_Workflow/src/bsw/EcuM/src/EcuM_ReleaseRUN.c.o
 .data          0x000000010042b5d0        0x0 CMakeFiles/Basic_workflow.dir/cygdrive/c/ETAS/RTA-CAR_12.2.0/RTA-CAR/workspace/Basic_Workflow/src/bsw/EcuM/src/EcuM_RequestPOST_RUN.c.o
 .data          0x000000010042b5d0        0x0 CMakeFiles/Basic_workflow.dir/cygdrive/c/ETAS/RTA-CAR_12.2.0/RTA-CAR/workspace/Basic_Workflow/src/bsw/EcuM/src/EcuM_RequestRUN.c.o
 .data          0x000000010042b5d0        0x0 CMakeFiles/Basic_workflow.dir/cygdrive/c/ETAS/RTA-CAR_12.2.0/RTA-CAR/workspace/Basic_Workflow/src/bsw/EcuM/src/EcuM_SetState.c.o
 .data          0x000000010042b5d0        0x0 CMakeFiles/Basic_workflow.dir/cygdrive/c/ETAS/RTA-CAR_12.2.0/RTA-CAR/workspace/Basic_Workflow/src/bsw/EcuM/src/EcuM_Shutdown.c.o
 .data          0x000000010042b5d0        0x0 CMakeFiles/Basic_workflow.dir/cygdrive/c/ETAS/RTA-CAR_12.2.0/RTA-CAR/workspace/Basic_Workflow/src/bsw/EcuM/src/EcuM_ShutdownServices.c.o
 .data          0x000000010042b5d0        0x0 CMakeFiles/Basic_workflow.dir/cygdrive/c/ETAS/RTA-CAR_12.2.0/RTA-CAR/workspace/Basic_Workflow/src/bsw/EcuM/src/EcuM_Sleep.c.o
 .data          0x000000010042b5d0        0x0 CMakeFiles/Basic_workflow.dir/cygdrive/c/ETAS/RTA-CAR_12.2.0/RTA-CAR/workspace/Basic_Workflow/src/bsw/EcuM/src/EcuM_Startup.c.o
 .data          0x000000010042b5d0        0x0 CMakeFiles/Basic_workflow.dir/cygdrive/c/ETAS/RTA-CAR_12.2.0/RTA-CAR/workspace/Basic_Workflow/src/bsw/EcuM/src/EcuM_WakeupServices.c.o
 .data          0x000000010042b5d0       0x10 CMakeFiles/Basic_workflow.dir/cygdrive/c/ETAS/RTA-CAR_12.2.0/RTA-CAR/workspace/Basic_Workflow/src/rte/Rte.c.o
                0x000000010042b5d0                Rte_ModeCurrent_0
                0x000000010042b5d1                Rte_ModeSchMNext_0
 .data          0x000000010042b5e0        0x0 CMakeFiles/Basic_workflow.dir/cygdrive/c/ETAS/RTA-CAR_12.2.0/RTA-CAR/workspace/Basic_Workflow/src/rte/Rte_Lib.c.o
 .data          0x000000010042b5e0        0x0 CMakeFiles/Basic_workflow.dir/cygdrive/c/ETAS/RTA-CAR_12.2.0/RTA-CAR/workspace/Basic_Workflow/src/mcal/Can_Device.cpp.o
 .data          0x000000010042b5e0       0x10 CMakeFiles/Basic_workflow.dir/cygdrive/c/ETAS/RTA-CAR_12.2.0/RTA-CAR/workspace/Basic_Workflow/src/mcal/Can_HwProvider.cpp.o
 .data          0x000000010042b5f0        0x0 CMakeFiles/Basic_workflow.dir/cygdrive/c/ETAS/RTA-CAR_12.2.0/RTA-CAR/workspace/Basic_Workflow/src/mcal/Can_Implementation.cpp.o
 .data          0x000000010042b5f0        0x0 CMakeFiles/Basic_workflow.dir/cygdrive/c/ETAS/RTA-CAR_12.2.0/RTA-CAR/workspace/Basic_Workflow/src/mcal/Mcu_Device.cpp.o
 .data          0x000000010042b5f0        0x0 CMakeFiles/Basic_workflow.dir/cygdrive/c/ETAS/RTA-CAR_12.2.0/RTA-CAR/workspace/Basic_Workflow/src/mcal/Mcu_Implementation.cpp.o
 *fill*         0x000000010042b5f0       0x10 
 .data          0x000000010042b600       0xa0 CMakeFiles/Basic_workflow.dir/cygdrive/c/ETAS/RTA-CAR_12.2.0/RTA-CAR/workspace/Basic_Workflow/src/mcal/VirtualCan.cpp.o
                0x000000010042b690                Can_Virtual_HwProviderPtr
 .data          0x000000010042b6a0        0x0 CMakeFiles/Basic_workflow.dir/cygdrive/c/ETAS/RTA-CAR_12.2.0/RTA-CAR/workspace/Basic_Workflow/src/vrta/VRTA_SystemClock.cpp.o
 .data          0x000000010042b6a0        0x0 CMakeFiles/Basic_workflow.dir/cygdrive/c/ETAS/RTA-CAR_12.2.0/RTA-CAR/workspace/Basic_Workflow/src/vrta/Vrta_Cfg.cpp.o
 .data          0x000000010042b6a0        0x0 CMakeFiles/Basic_workflow.dir/cygdrive/c/ETAS/RTA-CAR_12.2.0/RTA-CAR/workspace/Basic_Workflow/src/vrta/target.cpp.o
 .data          0x000000010042b6a0        0x0 /usr/lib/w32api/libws2_32.a(libws2_32s00191.o)
 .data          0x000000010042b6a0        0x0 /usr/lib/w32api/libws2_32.a(libws2_32h.o)
 .data          0x000000010042b6a0        0x0 /usr/lib/w32api/libws2_32.a(libws2_32t.o)
 .data          0x000000010042b6a0        0x0 /usr/lib/gcc/x86_64-pc-cygwin/11/libstdc++.a(class_type_info.o)
 .data          0x000000010042b6a0        0x0 /usr/lib/gcc/x86_64-pc-cygwin/11/libstdc++.a(del_ops.o)
 .data          0x000000010042b6a0        0x0 /usr/lib/gcc/x86_64-pc-cygwin/11/libstdc++.a(del_opv.o)
 .data          0x000000010042b6a0        0x0 /usr/lib/gcc/x86_64-pc-cygwin/11/libstdc++.a(del_opvs.o)
 .data          0x000000010042b6a0        0x0 /usr/lib/gcc/x86_64-pc-cygwin/11/libstdc++.a(eh_aux_runtime.o)
 .data          0x000000010042b6a0        0x0 /usr/lib/gcc/x86_64-pc-cygwin/11/libstdc++.a(eh_personality.o)
 .data          0x000000010042b6a0        0x0 /usr/lib/gcc/x86_64-pc-cygwin/11/libstdc++.a(eh_terminate.o)
 .data          0x000000010042b6a0        0x0 /usr/lib/gcc/x86_64-pc-cygwin/11/libstdc++.a(eh_throw.o)
 .data          0x000000010042b6a0        0x0 /usr/lib/gcc/x86_64-pc-cygwin/11/libstdc++.a(eh_unex_handler.o)
 .data          0x000000010042b6a0        0x0 /usr/lib/gcc/x86_64-pc-cygwin/11/libstdc++.a(new_op.o)
 .data          0x000000010042b6a0        0x0 /usr/lib/gcc/x86_64-pc-cygwin/11/libstdc++.a(new_opv.o)
 .data          0x000000010042b6a0        0x0 /usr/lib/gcc/x86_64-pc-cygwin/11/libstdc++.a(si_class_type_info.o)
 .data          0x000000010042b6a0        0x0 /usr/lib/gcc/x86_64-pc-cygwin/11/libstdc++.a(tinfo.o)
 .data          0x000000010042b6a0        0x0 /usr/lib/gcc/x86_64-pc-cygwin/11/libstdc++.a(vterminate.o)
 .data          0x000000010042b6a0        0x0 /usr/lib/gcc/x86_64-pc-cygwin/11/libstdc++.a(bad_alloc.o)
 .data          0x000000010042b6a0        0x0 /usr/lib/gcc/x86_64-pc-cygwin/11/libstdc++.a(bad_array_new.o)
 .data          0x000000010042b6a0        0x0 /usr/lib/gcc/x86_64-pc-cygwin/11/libstdc++.a(bad_cast.o)
 .data          0x000000010042b6a0        0x0 /usr/lib/gcc/x86_64-pc-cygwin/11/libstdc++.a(bad_typeid.o)
 .data          0x000000010042b6a0        0x0 /usr/lib/gcc/x86_64-pc-cygwin/11/libstdc++.a(cp-demangle.o)
 .data          0x000000010042b6a0        0x0 /usr/lib/gcc/x86_64-pc-cygwin/11/libstdc++.a(del_op.o)
 .data          0x000000010042b6a0        0x0 /usr/lib/gcc/x86_64-pc-cygwin/11/libstdc++.a(eh_alloc.o)
 .data          0x000000010042b6a0        0x0 /usr/lib/gcc/x86_64-pc-cygwin/11/libstdc++.a(eh_call.o)
 .data          0x000000010042b6a0        0x0 /usr/lib/gcc/x86_64-pc-cygwin/11/libstdc++.a(eh_catch.o)
 .data          0x000000010042b6a0        0x0 /usr/lib/gcc/x86_64-pc-cygwin/11/libstdc++.a(eh_exception.o)
 .data          0x000000010042b6a0        0x0 /usr/lib/gcc/x86_64-pc-cygwin/11/libstdc++.a(eh_globals.o)
 .data          0x000000010042b6a0        0x0 /usr/lib/gcc/x86_64-pc-cygwin/11/libstdc++.a(eh_term_handler.o)
 .data          0x000000010042b6a0        0x0 /usr/lib/gcc/x86_64-pc-cygwin/11/libstdc++.a(eh_type.o)
 .data          0x000000010042b6a0        0x0 /usr/lib/gcc/x86_64-pc-cygwin/11/libstdc++.a(new_handler.o)
 .data          0x000000010042b6a0        0x0 /usr/lib/gcc/x86_64-pc-cygwin/11/libgcc.a(_chkstk_ms.o)
 .data          0x000000010042b6a0        0x0 /usr/lib/gcc/x86_64-pc-cygwin/11/libgcc_eh.a(unwind-seh.o)
 .data          0x000000010042b6a0       0x20 /usr/lib/gcc/x86_64-pc-cygwin/11/libgcc_eh.a(emutls.o)
 .data          0x000000010042b6c0        0x0 /usr/lib/gcc/x86_64-pc-cygwin/11/../../../../lib/libcygwin.a(atexit.o)
 .data          0x000000010042b6c0        0x0 /usr/lib/gcc/x86_64-pc-cygwin/11/../../../../lib/libcygwin.a(cygwin_crt0.o)
 .data          0x000000010042b6c0        0x0 /usr/lib/gcc/x86_64-pc-cygwin/11/../../../../lib/libcygwin.a(libcmain.o)
 .data          0x000000010042b6c0        0x0 /usr/lib/gcc/x86_64-pc-cygwin/11/../../../../lib/libcygwin.a(premain0.o)
 .data          0x000000010042b6c0        0x0 /usr/lib/gcc/x86_64-pc-cygwin/11/../../../../lib/libcygwin.a(premain1.o)
 .data          0x000000010042b6c0        0x0 /usr/lib/gcc/x86_64-pc-cygwin/11/../../../../lib/libcygwin.a(premain2.o)
 .data          0x000000010042b6c0        0x0 /usr/lib/gcc/x86_64-pc-cygwin/11/../../../../lib/libcygwin.a(premain3.o)
 .data          0x000000010042b6c0       0x40 /usr/lib/gcc/x86_64-pc-cygwin/11/../../../../lib/libcygwin.a(_cygwin_crt0_common.o)
                0x000000010042b6c0                __cygwin_cxx_malloc
 .data          0x000000010042b700        0x0 /usr/lib/gcc/x86_64-pc-cygwin/11/../../../../lib/libcygwin.a(dll_entry.o)
 .data          0x000000010042b700        0x0 /usr/lib/gcc/x86_64-pc-cygwin/11/../../../../lib/libcygwin.a(dll_main.o)
 .data          0x000000010042b700        0x0 /usr/lib/gcc/x86_64-pc-cygwin/11/../../../../lib/libcygwin.a(pseudo-reloc-dummy.o)
 .data          0x000000010042b700        0x0 /usr/lib/gcc/x86_64-pc-cygwin/11/../../../../lib/libcygwin.a(cygwin_attach_dll.o)
 .data          0x000000010042b700        0x0 /usr/lib/w32api/libkernel32.a(libkernel32s01234.o)
 .data          0x000000010042b700        0x0 /usr/lib/w32api/libkernel32.a(libkernel32s01233.o)
 .data          0x000000010042b700        0x0 /usr/lib/w32api/libkernel32.a(libkernel32s01227.o)
 .data          0x000000010042b700        0x0 /usr/lib/w32api/libkernel32.a(libkernel32s01220.o)
 .data          0x000000010042b700        0x0 /usr/lib/w32api/libkernel32.a(libkernel32s01150.o)
 .data          0x000000010042b700        0x0 /usr/lib/w32api/libkernel32.a(libkernel32s00740.o)
 .data          0x000000010042b700        0x0 /usr/lib/w32api/libkernel32.a(libkernel32s00651.o)
 .data          0x000000010042b700        0x0 /usr/lib/w32api/libkernel32.a(libkernel32s00648.o)
 .data          0x000000010042b700        0x0 /usr/lib/w32api/libkernel32.a(libkernel32s00484.o)
 .data          0x000000010042b700        0x0 /usr/lib/w32api/libkernel32.a(libkernel32h.o)
 .data          0x000000010042b700        0x0 /usr/lib/w32api/libkernel32.a(libkernel32t.o)
 .data          0x000000010042b700        0x0 /usr/lib/gcc/x86_64-pc-cygwin/11/libgcc.a(_ctors.o)
 .data          0x000000010042b700        0x0 /usr/lib/gcc/x86_64-pc-cygwin/11/crtend.o
 *(.data2)
 *(SORT_BY_NAME(.data$*))
 .data$.LDFCM0  0x000000010042b700       0x10 /usr/lib/gcc/x86_64-pc-cygwin/11/libstdc++.a(vterminate.o)
 .data$_ZN10__cxxabiv119__terminate_handlerE
                0x000000010042b710       0x10 /usr/lib/gcc/x86_64-pc-cygwin/11/libstdc++.a(eh_term_handler.o)
                0x000000010042b710                __cxxabiv1::__terminate_handler
 .data$_ZN10__cxxabiv120__unexpected_handlerE
                0x000000010042b720       0x10 /usr/lib/gcc/x86_64-pc-cygwin/11/libstdc++.a(eh_unex_handler.o)
                0x000000010042b720                __cxxabiv1::__unexpected_handler
 .data$_ZN12_GLOBAL__N_113__new_handlerE
                0x000000010042b730       0x10 /usr/lib/gcc/x86_64-pc-cygwin/11/libstdc++.a(new_handler.o)
 .data$_ZN12_GLOBAL__N_114emergency_poolE
                0x000000010042b740       0x20 /usr/lib/gcc/x86_64-pc-cygwin/11/libstdc++.a(eh_alloc.o)
 .data$_ZZN9__gnu_cxx27__verbose_terminate_handlerEvE11terminating
                0x000000010042b760       0x10 /usr/lib/gcc/x86_64-pc-cygwin/11/libstdc++.a(vterminate.o)
 *fill*         0x000000010042b770       0x10 
 .data$__emutls_v._ZZN12_GLOBAL__N_110get_globalEvE6global
                0x000000010042b780       0x20 /usr/lib/gcc/x86_64-pc-cygwin/11/libstdc++.a(eh_globals.o)
 *(.jcr)
                0x000000010042b7a0                __data_end__ = .
 *(.data_cygwin_nocopy)

.rdata          0x000000010042c000     0x5e00
 *(.rdata)
 .rdata         0x000000010042c000      0x2e0 CMakeFiles/Basic_workflow.dir/Unity/unity_4_c.c.o
                0x000000010042c11c                Mcu_ConfigData
 .rdata         0x000000010042c2e0      0x240 CMakeFiles/Basic_workflow.dir/Unity/unity_3_c.c.o
                0x000000010042c300                ComM_ChanelList_acst
                0x000000010042c321                ComM_UserId_MappingTable_acst
                0x000000010042c330                ComM_UserList_acst
                0x000000010042c3c0                PduR_RoutingPathTables
                0x000000010042c418                PduR_loTransmitTable
                0x000000010042c420                PduR_loCancelRxTable
                0x000000010042c428                PduR_loCancelTransmitTable
                0x000000010042c430                PduR_upIfRxIndicationTable
                0x000000010042c438                PduR_upIfTxConfirmationTable
                0x000000010042c440                PduR_upIfTriggerTxTable
                0x000000010042c448                PduR_upTpCopyRxDataTable
                0x000000010042c450                PduR_upTpStartOfReceptionTable
                0x000000010042c458                PduR_upTpRxIndicationTable
                0x000000010042c460                PduR_upTpCopyTxDataTable
                0x000000010042c468                PduR_upTpTxConfirmationTable
                0x000000010042c480                PduR_GlobalPBConfig
                0x000000010042c510                PduR_Config
 .rdata         0x000000010042c520       0xa0 CMakeFiles/Basic_workflow.dir/Unity/unity_2_c.c.o
                0x000000010042c560                ComM_BusSmApi_acst
 .rdata         0x000000010042c5c0      0x1e0 CMakeFiles/Basic_workflow.dir/Unity/unity_1_c.c.o
                0x000000010042c5c0                CanSM_NetworktoCtrl_Config_acu8
                0x000000010042c5d0                CanSM_Network_Config_acst
                0x000000010042c5f0                CanSM_ConfigSet
                0x000000010042c608                Com_NONE_TransModeInfo_cst
                0x000000010042c610                Com_Prv_UserCbk_acst
                0x000000010042c620                Com_Prv_xTxSigCfg_acst
                0x000000010042c640                Com_Prv_xRxSigCfg_acst
                0x000000010042c680                Com_Prv_xTxIpduCfg_acst
                0x000000010042c6b0                Com_Prv_xRxIpduCfg_acst
                0x000000010042c6e0                Com_Prv_xIpduGrpCfg_acst
                0x000000010042c700                Com_Prv_xIPduGrp_IpduRefCfg_acuo
                0x000000010042c708                Com_NEGMinMax_acst
                0x000000010042c710                Com_MainFuncTxCfg_acst
                0x000000010042c714                Com_Prv_Int32SigValues_acu32
                0x000000010042c720                Com_ByteArraySigValues_acst
                0x000000010042c730                Com_Prv_xRxRamBuf_acst
                0x000000010042c748                Com_Prv_xRxIpduVarCfg_acst
                0x000000010042c74c                Com_Prv_xTxIpduVarCfg_acst
                0x000000010042c770                Com_Config
 .rdata         0x000000010042c7a0      0x6a0 CMakeFiles/Basic_workflow.dir/Unity/unity_0_c.c.o
                0x000000010042c8b8                BswM_Cfg_AC_BswMComMAllowCom_cast
                0x000000010042c8c0                BswM_Cfg_AC_BswMComMModeSwitch_cast
                0x000000010042c8d0                BswM_Cfg_AC_BswMSchMSwitch_cast
                0x000000010042c908                BswM_Cfg_AC_BswMUserCallout_cast
                0x000000010042cb60                BswM_Cfg_AL_cast
                0x000000010042cbc0                BswM_Config
                0x000000010042cc48                BswM_Configurations_capcst
                0x000000010042cd90                CanIf_Callback
                0x000000010042cdc0                CanIf_Config
 .rdata         0x000000010042ce40       0x10 CMakeFiles/Basic_workflow.dir/cygdrive/c/ETAS/RTA-CAR_12.2.0/RTA-CAR/workspace/Basic_Workflow/src/asw/MySWC.c.o
 .rdata         0x000000010042ce50       0x10 CMakeFiles/Basic_workflow.dir/cygdrive/c/ETAS/RTA-CAR_12.2.0/RTA-CAR/workspace/Basic_Workflow/src/bsw/Det/src/Det.c.o
 .rdata         0x000000010042ce60      0x100 CMakeFiles/Basic_workflow.dir/cygdrive/c/ETAS/RTA-CAR_12.2.0/RTA-CAR/workspace/Basic_Workflow/src/bsw/EcuM/EcuM_Cfg.c.o
                0x000000010042ce60                EcuM_Cfg_dataWkupPNCRef_cast
                0x000000010042cec0                EcuM_Cfg_idxWakeupSourcesPC_au32
 .rdata         0x000000010042cf60       0x10 CMakeFiles/Basic_workflow.dir/cygdrive/c/ETAS/RTA-CAR_12.2.0/RTA-CAR/workspace/Basic_Workflow/src/bsw/EcuM/EcuM_Lcfg.c.o
                0x000000010042cf60                EcuM_Cfg_dataPreCompileHash_au8
 *fill*         0x000000010042cf70       0x10 
 .rdata         0x000000010042cf80       0x60 CMakeFiles/Basic_workflow.dir/cygdrive/c/ETAS/RTA-CAR_12.2.0/RTA-CAR/workspace/Basic_Workflow/src/bsw/EcuM/EcuM_PBcfg.c.o
                0x000000010042cf80                EcuM_Config
                0x000000010042cfd8                EcuM_EcuMConfigurations_cpcast
 .rdata         0x000000010042cfe0       0x70 CMakeFiles/Basic_workflow.dir/cygdrive/c/ETAS/RTA-CAR_12.2.0/RTA-CAR/workspace/Basic_Workflow/src/rte/Rte.c.o
                0x000000010042cfe0                Rte_Inst_BswM
                0x000000010042cfe8                Rte_Self_SWCI1
                0x000000010042cff0                Rte_Inst_ComM
                0x000000010042cff8                Rte_Self_SWCI2
                0x000000010042d000                Rte_Inst_Det
                0x000000010042d008                Rte_Self_SWCI3
                0x000000010042d010                Rte_Inst_EcuM
                0x000000010042d018                Rte_Self_SWCI4
                0x000000010042d020                Rte_Instance_CPT_MySWC_ApplicationECU
                0x000000010042d038                Rte_Self_CPT_MySWC_ApplicationECU
                0x000000010042d040                Rte_Inst_rba_DiagLib
                0x000000010042d048                Rte_Self_SWCI5
 .rdata         0x000000010042d050      0xd20 CMakeFiles/Basic_workflow.dir/cygdrive/c/ETAS/RTA-CAR_12.2.0/RTA-CAR/workspace/Basic_Workflow/src/mcal/Can_Device.cpp.o
 .rdata         0x000000010042dd70       0x30 CMakeFiles/Basic_workflow.dir/cygdrive/c/ETAS/RTA-CAR_12.2.0/RTA-CAR/workspace/Basic_Workflow/src/mcal/Can_Implementation.cpp.o
 .rdata         0x000000010042dda0      0x140 CMakeFiles/Basic_workflow.dir/cygdrive/c/ETAS/RTA-CAR_12.2.0/RTA-CAR/workspace/Basic_Workflow/src/mcal/Mcu_Device.cpp.o
 .rdata         0x000000010042dee0      0x2e0 CMakeFiles/Basic_workflow.dir/cygdrive/c/ETAS/RTA-CAR_12.2.0/RTA-CAR/workspace/Basic_Workflow/src/mcal/VirtualCan.cpp.o
 .rdata         0x000000010042e1c0      0x1d0 CMakeFiles/Basic_workflow.dir/cygdrive/c/ETAS/RTA-CAR_12.2.0/RTA-CAR/workspace/Basic_Workflow/src/vrta/VRTA_SystemClock.cpp.o
 .rdata         0x000000010042e390       0x20 CMakeFiles/Basic_workflow.dir/cygdrive/c/ETAS/RTA-CAR_12.2.0/RTA-CAR/workspace/Basic_Workflow/src/vrta/target.cpp.o
 .rdata         0x000000010042e3b0       0x40 /usr/lib/gcc/x86_64-pc-cygwin/11/libstdc++.a(eh_personality.o)
 .rdata         0x000000010042e3f0       0xa0 /usr/lib/gcc/x86_64-pc-cygwin/11/libstdc++.a(vterminate.o)
 .rdata         0x000000010042e490       0x10 /usr/lib/gcc/x86_64-pc-cygwin/11/libstdc++.a(bad_alloc.o)
 .rdata         0x000000010042e4a0       0x20 /usr/lib/gcc/x86_64-pc-cygwin/11/libstdc++.a(bad_array_new.o)
 .rdata         0x000000010042e4c0       0x10 /usr/lib/gcc/x86_64-pc-cygwin/11/libstdc++.a(bad_cast.o)
 .rdata         0x000000010042e4d0       0x10 /usr/lib/gcc/x86_64-pc-cygwin/11/libstdc++.a(bad_typeid.o)
 .rdata         0x000000010042e4e0     0x1c20 /usr/lib/gcc/x86_64-pc-cygwin/11/libstdc++.a(cp-demangle.o)
 .rdata         0x0000000100430100       0x50 /usr/lib/gcc/x86_64-pc-cygwin/11/libstdc++.a(eh_alloc.o)
 .rdata         0x0000000100430150       0x30 /usr/lib/gcc/x86_64-pc-cygwin/11/libstdc++.a(eh_exception.o)
 .rdata         0x0000000100430180       0x10 /usr/lib/gcc/x86_64-pc-cygwin/11/../../../../lib/libcygwin.a(libcmain.o)
 *(SORT_BY_NAME(.rdata$*))
 .rdata$.refptr.CanIf_Prv_ConfigSet_tpst
                0x0000000100430190       0x10 CMakeFiles/Basic_workflow.dir/Unity/unity_1_c.c.o
                0x0000000100430190                .refptr.CanIf_Prv_ConfigSet_tpst
 .rdata$.refptr.CanIf_Prv_ControllerState_ast
                0x00000001004301a0       0x10 CMakeFiles/Basic_workflow.dir/Unity/unity_0_c.c.o
                0x00000001004301a0                .refptr.CanIf_Prv_ControllerState_ast
 .rdata$.refptr.CanIf_Prv_InitStatus_b
                0x00000001004301b0       0x10 CMakeFiles/Basic_workflow.dir/Unity/unity_0_c.c.o
                0x00000001004301b0                .refptr.CanIf_Prv_InitStatus_b
 .rdata$.refptr.CanIf_Prv_RxNotification_taen
                0x00000001004301c0       0x10 CMakeFiles/Basic_workflow.dir/Unity/unity_0_c.c.o
                0x00000001004301c0                .refptr.CanIf_Prv_RxNotification_taen
 .rdata$.refptr.CanIf_Prv_TxNotification_aen
                0x00000001004301d0       0x10 CMakeFiles/Basic_workflow.dir/Unity/unity_0_c.c.o
                0x00000001004301d0                .refptr.CanIf_Prv_TxNotification_aen
 .rdata$.refptr.CanIf_Transmit
                0x00000001004301e0       0x10 CMakeFiles/Basic_workflow.dir/Unity/unity_3_c.c.o
                0x00000001004301e0                .refptr.CanIf_Transmit
 .rdata$.refptr.Can_ConfigData
                0x00000001004301f0       0x10 CMakeFiles/Basic_workflow.dir/cygdrive/c/ETAS/RTA-CAR_12.2.0/RTA-CAR/workspace/Basic_Workflow/src/mcal/Can_Implementation.cpp.o
                0x00000001004301f0                .refptr.Can_ConfigData
 .rdata$.refptr.ComM_BusSmApi_acst
                0x0000000100430200       0x10 CMakeFiles/Basic_workflow.dir/Unity/unity_3_c.c.o
                0x0000000100430200                .refptr.ComM_BusSmApi_acst
 .rdata$.refptr.ComM_ChannelStruct
                0x0000000100430210       0x10 CMakeFiles/Basic_workflow.dir/Unity/unity_2_c.c.o
                0x0000000100430210                .refptr.ComM_ChannelStruct
 .rdata$.refptr.Com_ByteArraySigValues_acst
                0x0000000100430220       0x10 CMakeFiles/Basic_workflow.dir/Unity/unity_2_c.c.o
                0x0000000100430220                .refptr.Com_ByteArraySigValues_acst
 .rdata$.refptr.Com_InitStatus_en
                0x0000000100430230       0x10 CMakeFiles/Basic_workflow.dir/Unity/unity_1_c.c.o
                0x0000000100430230                .refptr.Com_InitStatus_en
 .rdata$.refptr.Com_MainFuncTxCfg_acst
                0x0000000100430240       0x10 CMakeFiles/Basic_workflow.dir/Unity/unity_2_c.c.o
                0x0000000100430240                .refptr.Com_MainFuncTxCfg_acst
 .rdata$.refptr.Com_NONE_TransModeInfo_cst
                0x0000000100430250       0x10 CMakeFiles/Basic_workflow.dir/Unity/unity_2_c.c.o
                0x0000000100430250                .refptr.Com_NONE_TransModeInfo_cst
 .rdata$.refptr.Com_Prv_Int32SigValues_acu32
                0x0000000100430260       0x10 CMakeFiles/Basic_workflow.dir/Unity/unity_2_c.c.o
                0x0000000100430260                .refptr.Com_Prv_Int32SigValues_acu32
 .rdata$.refptr.Com_Prv_xIPduGrp_IpduRefCfg_acuo
                0x0000000100430270       0x10 CMakeFiles/Basic_workflow.dir/Unity/unity_2_c.c.o
                0x0000000100430270                .refptr.Com_Prv_xIPduGrp_IpduRefCfg_acuo
 .rdata$.refptr.Com_Prv_xIpduGrpCfg_acst
                0x0000000100430280       0x10 CMakeFiles/Basic_workflow.dir/Unity/unity_2_c.c.o
                0x0000000100430280                .refptr.Com_Prv_xIpduGrpCfg_acst
 .rdata$.refptr.Com_Prv_xRxIpduCfg_acst
                0x0000000100430290       0x10 CMakeFiles/Basic_workflow.dir/Unity/unity_2_c.c.o
                0x0000000100430290                .refptr.Com_Prv_xRxIpduCfg_acst
 .rdata$.refptr.Com_Prv_xRxIpduVarCfg_acst
                0x00000001004302a0       0x10 CMakeFiles/Basic_workflow.dir/Unity/unity_2_c.c.o
                0x00000001004302a0                .refptr.Com_Prv_xRxIpduVarCfg_acst
 .rdata$.refptr.Com_Prv_xRxRamBuf_acst
                0x00000001004302b0       0x10 CMakeFiles/Basic_workflow.dir/Unity/unity_2_c.c.o
                0x00000001004302b0                .refptr.Com_Prv_xRxRamBuf_acst
 .rdata$.refptr.Com_Prv_xRxSigCfg_acst
                0x00000001004302c0       0x10 CMakeFiles/Basic_workflow.dir/Unity/unity_2_c.c.o
                0x00000001004302c0                .refptr.Com_Prv_xRxSigCfg_acst
 .rdata$.refptr.Com_Prv_xTxIpduCfg_acst
                0x00000001004302d0       0x10 CMakeFiles/Basic_workflow.dir/Unity/unity_2_c.c.o
                0x00000001004302d0                .refptr.Com_Prv_xTxIpduCfg_acst
 .rdata$.refptr.Com_Prv_xTxSigCfg_acst
                0x00000001004302e0       0x10 CMakeFiles/Basic_workflow.dir/Unity/unity_2_c.c.o
                0x00000001004302e0                .refptr.Com_Prv_xTxSigCfg_acst
 .rdata$.refptr.Com_RxIndication
                0x00000001004302f0       0x10 CMakeFiles/Basic_workflow.dir/Unity/unity_3_c.c.o
                0x00000001004302f0                .refptr.Com_RxIndication
 .rdata$.refptr.Com_TxConfirmation
                0x0000000100430300       0x10 CMakeFiles/Basic_workflow.dir/Unity/unity_3_c.c.o
                0x0000000100430300                .refptr.Com_TxConfirmation
 .rdata$.refptr.EcuM_Cfg_dataPreCompileHash_au8
                0x0000000100430310       0x10 CMakeFiles/Basic_workflow.dir/cygdrive/c/ETAS/RTA-CAR_12.2.0/RTA-CAR/workspace/Basic_Workflow/src/bsw/EcuM/src/EcuM_Prv.c.o
                0x0000000100430310                .refptr.EcuM_Cfg_dataPreCompileHash_au8
 .rdata$.refptr.EcuM_Cfg_idxWakeupSourcesPC_au32
                0x0000000100430320       0x10 CMakeFiles/Basic_workflow.dir/cygdrive/c/ETAS/RTA-CAR_12.2.0/RTA-CAR/workspace/Basic_Workflow/src/bsw/EcuM/src/EcuM_MainFunction.c.o
                0x0000000100430320                .refptr.EcuM_Cfg_idxWakeupSourcesPC_au32
 .rdata$.refptr.EcuM_EcuMConfigurations_cpcast
                0x0000000100430330       0x10 CMakeFiles/Basic_workflow.dir/cygdrive/c/ETAS/RTA-CAR_12.2.0/RTA-CAR/workspace/Basic_Workflow/src/bsw/EcuM/integration/EcuM_Callout_Stubs.c.o
                0x0000000100430330                .refptr.EcuM_EcuMConfigurations_cpcast
 .rdata$.refptr.EcuM_Prv_WkpSrcValidationTimeoutCtr_u16
                0x0000000100430340       0x10 CMakeFiles/Basic_workflow.dir/cygdrive/c/ETAS/RTA-CAR_12.2.0/RTA-CAR/workspace/Basic_Workflow/src/bsw/EcuM/src/EcuM_MainFunction.c.o
                0x0000000100430340                .refptr.EcuM_Prv_WkpSrcValidationTimeoutCtr_u16
 .rdata$.refptr.EcuM_Prv_dataClrWkpEventsInd_u32
                0x0000000100430350       0x10 CMakeFiles/Basic_workflow.dir/cygdrive/c/ETAS/RTA-CAR_12.2.0/RTA-CAR/workspace/Basic_Workflow/src/bsw/EcuM/src/EcuM_WakeupServices.c.o
                0x0000000100430350                .refptr.EcuM_Prv_dataClrWkpEventsInd_u32
 .rdata$.refptr.EcuM_Prv_dataExpWkpEventsInd_u32
                0x0000000100430360       0x10 CMakeFiles/Basic_workflow.dir/cygdrive/c/ETAS/RTA-CAR_12.2.0/RTA-CAR/workspace/Basic_Workflow/src/bsw/EcuM/src/EcuM_WakeupServices.c.o
                0x0000000100430360                .refptr.EcuM_Prv_dataExpWkpEventsInd_u32
 .rdata$.refptr.EcuM_Prv_dataExpiredWakeupEvents_u32
                0x0000000100430370       0x10 CMakeFiles/Basic_workflow.dir/cygdrive/c/ETAS/RTA-CAR_12.2.0/RTA-CAR/workspace/Basic_Workflow/src/bsw/EcuM/src/EcuM_MainFunction.c.o
                0x0000000100430370                .refptr.EcuM_Prv_dataExpiredWakeupEvents_u32
 .rdata$.refptr.EcuM_Prv_dataOldPendingWakeupEvents_u32
                0x0000000100430380       0x10 CMakeFiles/Basic_workflow.dir/cygdrive/c/ETAS/RTA-CAR_12.2.0/RTA-CAR/workspace/Basic_Workflow/src/bsw/EcuM/src/EcuM_MainFunction.c.o
                0x0000000100430380                .refptr.EcuM_Prv_dataOldPendingWakeupEvents_u32
 .rdata$.refptr.EcuM_Prv_dataPendingWakeupEvents_u32
                0x0000000100430390       0x10 CMakeFiles/Basic_workflow.dir/cygdrive/c/ETAS/RTA-CAR_12.2.0/RTA-CAR/workspace/Basic_Workflow/src/bsw/EcuM/src/EcuM_MainFunction.c.o
                0x0000000100430390                .refptr.EcuM_Prv_dataPendingWakeupEvents_u32
 .rdata$.refptr.EcuM_Prv_dataPndWkpEventsInd_u32
                0x00000001004303a0       0x10 CMakeFiles/Basic_workflow.dir/cygdrive/c/ETAS/RTA-CAR_12.2.0/RTA-CAR/workspace/Basic_Workflow/src/bsw/EcuM/src/EcuM_WakeupServices.c.o
                0x00000001004303a0                .refptr.EcuM_Prv_dataPndWkpEventsInd_u32
 .rdata$.refptr.EcuM_Prv_dataPresentPhase_u8
                0x00000001004303b0       0x10 CMakeFiles/Basic_workflow.dir/cygdrive/c/ETAS/RTA-CAR_12.2.0/RTA-CAR/workspace/Basic_Workflow/src/bsw/EcuM/src/EcuM_MainFunction.c.o
                0x00000001004303b0                .refptr.EcuM_Prv_dataPresentPhase_u8
 .rdata$.refptr.EcuM_Prv_dataSelectedBootTargetInit_u8
                0x00000001004303c0       0x10 CMakeFiles/Basic_workflow.dir/cygdrive/c/ETAS/RTA-CAR_12.2.0/RTA-CAR/workspace/Basic_Workflow/src/bsw/EcuM/src/EcuM_BootTarget.c.o
                0x00000001004303c0                .refptr.EcuM_Prv_dataSelectedBootTargetInit_u8
 .rdata$.refptr.EcuM_Prv_dataSelectedBootTarget_u8
                0x00000001004303d0       0x10 CMakeFiles/Basic_workflow.dir/cygdrive/c/ETAS/RTA-CAR_12.2.0/RTA-CAR/workspace/Basic_Workflow/src/bsw/EcuM/src/EcuM_BootTarget.c.o
                0x00000001004303d0                .refptr.EcuM_Prv_dataSelectedBootTarget_u8
 .rdata$.refptr.EcuM_Prv_dataSelectedShutdownCause_u8
                0x00000001004303e0       0x10 CMakeFiles/Basic_workflow.dir/cygdrive/c/ETAS/RTA-CAR_12.2.0/RTA-CAR/workspace/Basic_Workflow/src/bsw/EcuM/src/EcuM_ShutdownServices.c.o
                0x00000001004303e0                .refptr.EcuM_Prv_dataSelectedShutdownCause_u8
 .rdata$.refptr.EcuM_Prv_dataSelectedShutdownTarget_st
                0x00000001004303f0       0x10 CMakeFiles/Basic_workflow.dir/cygdrive/c/ETAS/RTA-CAR_12.2.0/RTA-CAR/workspace/Basic_Workflow/src/bsw/EcuM/src/EcuM_MainFunction.c.o
                0x00000001004303f0                .refptr.EcuM_Prv_dataSelectedShutdownTarget_st
 .rdata$.refptr.EcuM_Prv_dataValWkpEventsInd_u32
                0x0000000100430400       0x10 CMakeFiles/Basic_workflow.dir/cygdrive/c/ETAS/RTA-CAR_12.2.0/RTA-CAR/workspace/Basic_Workflow/src/bsw/EcuM/src/EcuM_Startup.c.o
                0x0000000100430400                .refptr.EcuM_Prv_dataValWkpEventsInd_u32
 .rdata$.refptr.EcuM_Prv_dataValidatedWakeupEvents_u32
                0x0000000100430410       0x10 CMakeFiles/Basic_workflow.dir/cygdrive/c/ETAS/RTA-CAR_12.2.0/RTA-CAR/workspace/Basic_Workflow/src/bsw/EcuM/src/EcuM_MainFunction.c.o
                0x0000000100430410                .refptr.EcuM_Prv_dataValidatedWakeupEvents_u32
 .rdata$.refptr.EcuM_Prv_flgGoDown_b
                0x0000000100430420       0x10 CMakeFiles/Basic_workflow.dir/cygdrive/c/ETAS/RTA-CAR_12.2.0/RTA-CAR/workspace/Basic_Workflow/src/bsw/EcuM/src/EcuM_MainFunction.c.o
                0x0000000100430420                .refptr.EcuM_Prv_flgGoDown_b
 .rdata$.refptr.EcuM_Prv_flgIsModuleInitialised_b
                0x0000000100430430       0x10 CMakeFiles/Basic_workflow.dir/cygdrive/c/ETAS/RTA-CAR_12.2.0/RTA-CAR/workspace/Basic_Workflow/src/bsw/EcuM/src/EcuM_MainFunction.c.o
                0x0000000100430430                .refptr.EcuM_Prv_flgIsModuleInitialised_b
 .rdata$.refptr.EcuM_Prv_flgIsStartupTwoCalled_ab
                0x0000000100430440       0x10 CMakeFiles/Basic_workflow.dir/cygdrive/c/ETAS/RTA-CAR_12.2.0/RTA-CAR/workspace/Basic_Workflow/src/bsw/EcuM/src/EcuM_Startup.c.o
                0x0000000100430440                .refptr.EcuM_Prv_flgIsStartupTwoCalled_ab
 .rdata$.refptr.EcuM_Prv_flgShutdownInfoDoNotUpdate_b
                0x0000000100430450       0x10 CMakeFiles/Basic_workflow.dir/cygdrive/c/ETAS/RTA-CAR_12.2.0/RTA-CAR/workspace/Basic_Workflow/src/bsw/EcuM/src/EcuM_Shutdown.c.o
                0x0000000100430450                .refptr.EcuM_Prv_flgShutdownInfoDoNotUpdate_b
 .rdata$.refptr.EcuM_Rb_adrConfigPtr_st
                0x0000000100430460       0x10 CMakeFiles/Basic_workflow.dir/cygdrive/c/ETAS/RTA-CAR_12.2.0/RTA-CAR/workspace/Basic_Workflow/src/bsw/EcuM/src/EcuM_Startup.c.o
                0x0000000100430460                .refptr.EcuM_Rb_adrConfigPtr_st
 .rdata$.refptr.Mcu_ConfigData
                0x0000000100430470       0x10 CMakeFiles/Basic_workflow.dir/cygdrive/c/ETAS/RTA-CAR_12.2.0/RTA-CAR/workspace/Basic_Workflow/src/mcal/Mcu_Implementation.cpp.o
                0x0000000100430470                .refptr.Mcu_ConfigData
 .rdata$.refptr.Os_ErrorInformation
                0x0000000100430480       0x10 CMakeFiles/Basic_workflow.dir/Unity/unity_4_c.c.o
                0x0000000100430480                .refptr.Os_ErrorInformation
 .rdata$.refptr.Os_const_resources
                0x0000000100430490       0x10 CMakeFiles/Basic_workflow.dir/cygdrive/c/ETAS/RTA-CAR_12.2.0/RTA-CAR/workspace/Basic_Workflow/src/rte/Rte_Lib.c.o
                0x0000000100430490                .refptr.Os_const_resources
 .rdata$.refptr.Os_const_scheduletables
                0x00000001004304a0       0x10 CMakeFiles/Basic_workflow.dir/cygdrive/c/ETAS/RTA-CAR_12.2.0/RTA-CAR/workspace/Basic_Workflow/src/rte/Rte_Lib.c.o
                0x00000001004304a0                .refptr.Os_const_scheduletables
 .rdata$.refptr.PduR_Base
                0x00000001004304b0       0x10 CMakeFiles/Basic_workflow.dir/Unity/unity_3_c.c.o
                0x00000001004304b0                .refptr.PduR_Base
 .rdata$.refptr.PduR_GlobalPBConfig
                0x00000001004304c0       0x10 CMakeFiles/Basic_workflow.dir/Unity/unity_4_c.c.o
                0x00000001004304c0                .refptr.PduR_GlobalPBConfig
 .rdata$.refptr.PduR_State
                0x00000001004304d0       0x10 CMakeFiles/Basic_workflow.dir/Unity/unity_3_c.c.o
                0x00000001004304d0                .refptr.PduR_State
 .rdata$.refptr.PduR_loCancelTransmitTable
                0x00000001004304e0       0x10 CMakeFiles/Basic_workflow.dir/Unity/unity_4_c.c.o
                0x00000001004304e0                .refptr.PduR_loCancelTransmitTable
 .rdata$.refptr.PduR_loTransmitTable
                0x00000001004304f0       0x10 CMakeFiles/Basic_workflow.dir/Unity/unity_4_c.c.o
                0x00000001004304f0                .refptr.PduR_loTransmitTable
 .rdata$.refptr.Rte_Initialized
                0x0000000100430500       0x10 CMakeFiles/Basic_workflow.dir/cygdrive/c/ETAS/RTA-CAR_12.2.0/RTA-CAR/workspace/Basic_Workflow/src/rte/Rte.c.o
                0x0000000100430500                .refptr.Rte_Initialized
 .rdata$.refptr.SysLogger
                0x0000000100430510       0x10 CMakeFiles/Basic_workflow.dir/cygdrive/c/ETAS/RTA-CAR_12.2.0/RTA-CAR/workspace/Basic_Workflow/src/vrta/target.cpp.o
                0x0000000100430510                .refptr.SysLogger
 .rdata$.refptr._ZN10__cxxabiv119__terminate_handlerE
                0x0000000100430520       0x10 /usr/lib/gcc/x86_64-pc-cygwin/11/libstdc++.a(eh_terminate.o)
                0x0000000100430520                .refptr._ZN10__cxxabiv119__terminate_handlerE
 .rdata$.refptr._ZN10__cxxabiv120__unexpected_handlerE
                0x0000000100430530       0x10 /usr/lib/gcc/x86_64-pc-cygwin/11/libstdc++.a(eh_terminate.o)
                0x0000000100430530                .refptr._ZN10__cxxabiv120__unexpected_handlerE
 .rdata$.refptr._ZN9__gnu_cxx27__verbose_terminate_handlerEv
                0x0000000100430540       0x10 /usr/lib/gcc/x86_64-pc-cygwin/11/libstdc++.a(eh_terminate.o)
                0x0000000100430540                .refptr._ZN9__gnu_cxx27__verbose_terminate_handlerEv
 .rdata$.refptr._ZNSt10bad_typeidD1Ev
                0x0000000100430550       0x10 /usr/lib/gcc/x86_64-pc-cygwin/11/libstdc++.a(eh_aux_runtime.o)
                0x0000000100430550                .refptr._ZNSt10bad_typeidD1Ev
 .rdata$.refptr._ZNSt13bad_exceptionD1Ev
                0x0000000100430560       0x10 /usr/lib/gcc/x86_64-pc-cygwin/11/libstdc++.a(eh_personality.o)
                0x0000000100430560                .refptr._ZNSt13bad_exceptionD1Ev
 .rdata$.refptr._ZNSt20bad_array_new_lengthD1Ev
                0x0000000100430570       0x10 /usr/lib/gcc/x86_64-pc-cygwin/11/libstdc++.a(eh_aux_runtime.o)
                0x0000000100430570                .refptr._ZNSt20bad_array_new_lengthD1Ev
 .rdata$.refptr._ZNSt8bad_castD1Ev
                0x0000000100430580       0x10 /usr/lib/gcc/x86_64-pc-cygwin/11/libstdc++.a(eh_aux_runtime.o)
                0x0000000100430580                .refptr._ZNSt8bad_castD1Ev
 .rdata$.refptr._ZNSt9bad_allocD1Ev
                0x0000000100430590       0x10 /usr/lib/gcc/x86_64-pc-cygwin/11/libstdc++.a(new_op.o)
                0x0000000100430590                .refptr._ZNSt9bad_allocD1Ev
 .rdata$.refptr._ZTV13vrtaUpCounter
                0x00000001004305a0       0x10 CMakeFiles/Basic_workflow.dir/cygdrive/c/ETAS/RTA-CAR_12.2.0/RTA-CAR/workspace/Basic_Workflow/src/vrta/VRTA_SystemClock.cpp.o
                0x00000001004305a0                .refptr._ZTV13vrtaUpCounter
 .rdata$.refptr._ZTV9vrtaClock
                0x00000001004305b0       0x10 CMakeFiles/Basic_workflow.dir/cygdrive/c/ETAS/RTA-CAR_12.2.0/RTA-CAR/workspace/Basic_Workflow/src/vrta/VRTA_SystemClock.cpp.o
                0x00000001004305b0                .refptr._ZTV9vrtaClock
 .rdata$.refptr._ZTVSt10bad_typeid
                0x00000001004305c0       0x10 /usr/lib/gcc/x86_64-pc-cygwin/11/libstdc++.a(eh_aux_runtime.o)
                0x00000001004305c0                .refptr._ZTVSt10bad_typeid
 .rdata$.refptr._ZTVSt13bad_exception
                0x00000001004305d0       0x10 /usr/lib/gcc/x86_64-pc-cygwin/11/libstdc++.a(eh_personality.o)
                0x00000001004305d0                .refptr._ZTVSt13bad_exception
 .rdata$.refptr._ZTVSt20bad_array_new_length
                0x00000001004305e0       0x10 /usr/lib/gcc/x86_64-pc-cygwin/11/libstdc++.a(eh_aux_runtime.o)
                0x00000001004305e0                .refptr._ZTVSt20bad_array_new_length
 .rdata$.refptr._ZTVSt8bad_cast
                0x00000001004305f0       0x10 /usr/lib/gcc/x86_64-pc-cygwin/11/libstdc++.a(eh_aux_runtime.o)
                0x00000001004305f0                .refptr._ZTVSt8bad_cast
 .rdata$.refptr._ZTVSt9bad_alloc
                0x0000000100430600       0x10 /usr/lib/gcc/x86_64-pc-cygwin/11/libstdc++.a(new_op.o)
                0x0000000100430600                .refptr._ZTVSt9bad_alloc
 .rdata$.refptr.__dso_handle
                0x0000000100430610       0x10 CMakeFiles/Basic_workflow.dir/cygdrive/c/ETAS/RTA-CAR_12.2.0/RTA-CAR/workspace/Basic_Workflow/src/mcal/Can_Device.cpp.o
                0x0000000100430610                .refptr.__dso_handle
 .rdata$.refptr.vrtaSystemClock
                0x0000000100430620       0x10 CMakeFiles/Basic_workflow.dir/cygdrive/c/ETAS/RTA-CAR_12.2.0/RTA-CAR/workspace/Basic_Workflow/src/vrta/VRTA_SystemClock.cpp.o
                0x0000000100430620                .refptr.vrtaSystemClock
 .rdata$_ZSt7nothrow
                0x0000000100430630       0x10 /usr/lib/gcc/x86_64-pc-cygwin/11/libstdc++.a(new_handler.o)
                0x0000000100430630                std::nothrow
 .rdata$_ZTI13Can_VirtualHw
                0x0000000100430640       0x20 CMakeFiles/Basic_workflow.dir/cygdrive/c/ETAS/RTA-CAR_12.2.0/RTA-CAR/workspace/Basic_Workflow/src/mcal/VirtualCan.cpp.o
                0x0000000100430640                typeinfo for Can_VirtualHw
 .rdata$_ZTI13VirtualDevice
                0x0000000100430660       0x10 CMakeFiles/Basic_workflow.dir/cygdrive/c/ETAS/RTA-CAR_12.2.0/RTA-CAR/workspace/Basic_Workflow/src/mcal/Can_Device.cpp.o
                0x0000000100430660                typeinfo for VirtualDevice
 .rdata$_ZTI14Can_HwProvider
                0x0000000100430670       0x20 CMakeFiles/Basic_workflow.dir/cygdrive/c/ETAS/RTA-CAR_12.2.0/RTA-CAR/workspace/Basic_Workflow/src/mcal/VirtualCan.cpp.o
                0x0000000100430670                typeinfo for Can_HwProvider
 .rdata$_ZTI15MCAL_HwProvider
                0x0000000100430690       0x10 CMakeFiles/Basic_workflow.dir/cygdrive/c/ETAS/RTA-CAR_12.2.0/RTA-CAR/workspace/Basic_Workflow/src/mcal/VirtualCan.cpp.o
                0x0000000100430690                typeinfo for MCAL_HwProvider
 .rdata$_ZTI19CanControllerDevice
                0x00000001004306a0       0x20 CMakeFiles/Basic_workflow.dir/cygdrive/c/ETAS/RTA-CAR_12.2.0/RTA-CAR/workspace/Basic_Workflow/src/mcal/Can_Device.cpp.o
                0x00000001004306a0                typeinfo for CanControllerDevice
 .rdata$_ZTI22Can_Virtual_HwProvider
                0x00000001004306c0       0x20 CMakeFiles/Basic_workflow.dir/cygdrive/c/ETAS/RTA-CAR_12.2.0/RTA-CAR/workspace/Basic_Workflow/src/mcal/VirtualCan.cpp.o
                0x00000001004306c0                typeinfo for Can_Virtual_HwProvider
 .rdata$_ZTI6Can_Hw
                0x00000001004306e0       0x10 CMakeFiles/Basic_workflow.dir/cygdrive/c/ETAS/RTA-CAR_12.2.0/RTA-CAR/workspace/Basic_Workflow/src/mcal/VirtualCan.cpp.o
                0x00000001004306e0                typeinfo for Can_Hw
 .rdata$_ZTI9CanDevice
                0x00000001004306f0       0x20 CMakeFiles/Basic_workflow.dir/cygdrive/c/ETAS/RTA-CAR_12.2.0/RTA-CAR/workspace/Basic_Workflow/src/mcal/Can_Device.cpp.o
                0x00000001004306f0                typeinfo for CanDevice
 .rdata$_ZTI9McuDevice
                0x0000000100430710       0x20 CMakeFiles/Basic_workflow.dir/cygdrive/c/ETAS/RTA-CAR_12.2.0/RTA-CAR/workspace/Basic_Workflow/src/mcal/Mcu_Device.cpp.o
                0x0000000100430710                typeinfo for McuDevice
 .rdata$_ZTIN10__cxxabiv115__forced_unwindE
                0x0000000100430730       0x10 /usr/lib/gcc/x86_64-pc-cygwin/11/libstdc++.a(eh_personality.o)
                0x0000000100430730                typeinfo for __cxxabiv1::__forced_unwind
 .rdata$_ZTIN10__cxxabiv117__class_type_infoE
                0x0000000100430740       0x20 /usr/lib/gcc/x86_64-pc-cygwin/11/libstdc++.a(class_type_info.o)
                0x0000000100430740                typeinfo for __cxxabiv1::__class_type_info
 .rdata$_ZTIN10__cxxabiv119__foreign_exceptionE
                0x0000000100430760       0x10 /usr/lib/gcc/x86_64-pc-cygwin/11/libstdc++.a(eh_personality.o)
                0x0000000100430760                typeinfo for __cxxabiv1::__foreign_exception
 .rdata$_ZTIN10__cxxabiv120__si_class_type_infoE
                0x0000000100430770       0x20 /usr/lib/gcc/x86_64-pc-cygwin/11/libstdc++.a(si_class_type_info.o)
                0x0000000100430770                typeinfo for __cxxabiv1::__si_class_type_info
 .rdata$_ZTIN9__gnu_cxx24__concurrence_lock_errorE
                0x0000000100430790       0x20 /usr/lib/gcc/x86_64-pc-cygwin/11/libstdc++.a(eh_alloc.o)
                0x0000000100430790                typeinfo for __gnu_cxx::__concurrence_lock_error
 .rdata$_ZTIN9__gnu_cxx26__concurrence_unlock_errorE
                0x00000001004307b0       0x20 /usr/lib/gcc/x86_64-pc-cygwin/11/libstdc++.a(eh_alloc.o)
                0x00000001004307b0                typeinfo for __gnu_cxx::__concurrence_unlock_error
 .rdata$_ZTISt10bad_typeid
                0x00000001004307d0       0x20 /usr/lib/gcc/x86_64-pc-cygwin/11/libstdc++.a(eh_aux_runtime.o)
                0x00000001004307d0                typeinfo for std::bad_typeid
 .rdata$_ZTISt13bad_exception
                0x00000001004307f0       0x20 /usr/lib/gcc/x86_64-pc-cygwin/11/libstdc++.a(eh_personality.o)
                0x00000001004307f0                typeinfo for std::bad_exception
 .rdata$_ZTISt20bad_array_new_length
                0x0000000100430810       0x20 /usr/lib/gcc/x86_64-pc-cygwin/11/libstdc++.a(eh_aux_runtime.o)
                0x0000000100430810                typeinfo for std::bad_array_new_length
 .rdata$_ZTISt8bad_cast
                0x0000000100430830       0x20 /usr/lib/gcc/x86_64-pc-cygwin/11/libstdc++.a(eh_aux_runtime.o)
                0x0000000100430830                typeinfo for std::bad_cast
 .rdata$_ZTISt9bad_alloc
                0x0000000100430850       0x20 /usr/lib/gcc/x86_64-pc-cygwin/11/libstdc++.a(eh_aux_runtime.o)
                0x0000000100430850                typeinfo for std::bad_alloc
 .rdata$_ZTISt9exception
                0x0000000100430870       0x10 /usr/lib/gcc/x86_64-pc-cygwin/11/libstdc++.a(eh_aux_runtime.o)
                0x0000000100430870                typeinfo for std::exception
 .rdata$_ZTISt9type_info
                0x0000000100430880       0x10 /usr/lib/gcc/x86_64-pc-cygwin/11/libstdc++.a(class_type_info.o)
                0x0000000100430880                typeinfo for std::type_info
 .rdata$_ZTS13Can_VirtualHw
                0x0000000100430890       0x10 CMakeFiles/Basic_workflow.dir/cygdrive/c/ETAS/RTA-CAR_12.2.0/RTA-CAR/workspace/Basic_Workflow/src/mcal/VirtualCan.cpp.o
                0x0000000100430890                typeinfo name for Can_VirtualHw
 .rdata$_ZTS13VirtualDevice
                0x00000001004308a0       0x10 CMakeFiles/Basic_workflow.dir/cygdrive/c/ETAS/RTA-CAR_12.2.0/RTA-CAR/workspace/Basic_Workflow/src/mcal/Can_Device.cpp.o
                0x00000001004308a0                typeinfo name for VirtualDevice
 .rdata$_ZTS14Can_HwProvider
                0x00000001004308b0       0x20 CMakeFiles/Basic_workflow.dir/cygdrive/c/ETAS/RTA-CAR_12.2.0/RTA-CAR/workspace/Basic_Workflow/src/mcal/VirtualCan.cpp.o
                0x00000001004308b0                typeinfo name for Can_HwProvider
 .rdata$_ZTS15MCAL_HwProvider
                0x00000001004308d0       0x20 CMakeFiles/Basic_workflow.dir/cygdrive/c/ETAS/RTA-CAR_12.2.0/RTA-CAR/workspace/Basic_Workflow/src/mcal/VirtualCan.cpp.o
                0x00000001004308d0                typeinfo name for MCAL_HwProvider
 .rdata$_ZTS19CanControllerDevice
                0x00000001004308f0       0x20 CMakeFiles/Basic_workflow.dir/cygdrive/c/ETAS/RTA-CAR_12.2.0/RTA-CAR/workspace/Basic_Workflow/src/mcal/Can_Device.cpp.o
                0x00000001004308f0                typeinfo name for CanControllerDevice
 .rdata$_ZTS22Can_Virtual_HwProvider
                0x0000000100430910       0x20 CMakeFiles/Basic_workflow.dir/cygdrive/c/ETAS/RTA-CAR_12.2.0/RTA-CAR/workspace/Basic_Workflow/src/mcal/VirtualCan.cpp.o
                0x0000000100430910                typeinfo name for Can_Virtual_HwProvider
 .rdata$_ZTS6Can_Hw
                0x0000000100430930       0x10 CMakeFiles/Basic_workflow.dir/cygdrive/c/ETAS/RTA-CAR_12.2.0/RTA-CAR/workspace/Basic_Workflow/src/mcal/VirtualCan.cpp.o
                0x0000000100430930                typeinfo name for Can_Hw
 .rdata$_ZTS9CanDevice
                0x0000000100430940       0x10 CMakeFiles/Basic_workflow.dir/cygdrive/c/ETAS/RTA-CAR_12.2.0/RTA-CAR/workspace/Basic_Workflow/src/mcal/Can_Device.cpp.o
                0x0000000100430940                typeinfo name for CanDevice
 .rdata$_ZTS9McuDevice
                0x0000000100430950       0x10 CMakeFiles/Basic_workflow.dir/cygdrive/c/ETAS/RTA-CAR_12.2.0/RTA-CAR/workspace/Basic_Workflow/src/mcal/Mcu_Device.cpp.o
                0x0000000100430950                typeinfo name for McuDevice
 .rdata$_ZTSN10__cxxabiv115__forced_unwindE
                0x0000000100430960       0x20 /usr/lib/gcc/x86_64-pc-cygwin/11/libstdc++.a(eh_personality.o)
                0x0000000100430960                typeinfo name for __cxxabiv1::__forced_unwind
 .rdata$_ZTSN10__cxxabiv117__class_type_infoE
                0x0000000100430980       0x40 /usr/lib/gcc/x86_64-pc-cygwin/11/libstdc++.a(class_type_info.o)
                0x0000000100430980                typeinfo name for __cxxabiv1::__class_type_info
 .rdata$_ZTSN10__cxxabiv119__foreign_exceptionE
                0x00000001004309c0       0x40 /usr/lib/gcc/x86_64-pc-cygwin/11/libstdc++.a(eh_personality.o)
                0x00000001004309c0                typeinfo name for __cxxabiv1::__foreign_exception
 .rdata$_ZTSN10__cxxabiv120__si_class_type_infoE
                0x0000000100430a00       0x40 /usr/lib/gcc/x86_64-pc-cygwin/11/libstdc++.a(si_class_type_info.o)
                0x0000000100430a00                typeinfo name for __cxxabiv1::__si_class_type_info
 .rdata$_ZTSN9__gnu_cxx24__concurrence_lock_errorE
                0x0000000100430a40       0x40 /usr/lib/gcc/x86_64-pc-cygwin/11/libstdc++.a(eh_alloc.o)
                0x0000000100430a40                typeinfo name for __gnu_cxx::__concurrence_lock_error
 .rdata$_ZTSN9__gnu_cxx26__concurrence_unlock_errorE
                0x0000000100430a80       0x40 /usr/lib/gcc/x86_64-pc-cygwin/11/libstdc++.a(eh_alloc.o)
                0x0000000100430a80                typeinfo name for __gnu_cxx::__concurrence_unlock_error
 .rdata$_ZTSSt10bad_typeid
                0x0000000100430ac0       0x10 /usr/lib/gcc/x86_64-pc-cygwin/11/libstdc++.a(eh_aux_runtime.o)
                0x0000000100430ac0                typeinfo name for std::bad_typeid
 .rdata$_ZTSSt13bad_exception
                0x0000000100430ad0       0x20 /usr/lib/gcc/x86_64-pc-cygwin/11/libstdc++.a(eh_personality.o)
                0x0000000100430ad0                typeinfo name for std::bad_exception
 .rdata$_ZTSSt20bad_array_new_length
                0x0000000100430af0       0x20 /usr/lib/gcc/x86_64-pc-cygwin/11/libstdc++.a(eh_aux_runtime.o)
                0x0000000100430af0                typeinfo name for std::bad_array_new_length
 .rdata$_ZTSSt8bad_cast
                0x0000000100430b10       0x10 /usr/lib/gcc/x86_64-pc-cygwin/11/libstdc++.a(eh_aux_runtime.o)
                0x0000000100430b10                typeinfo name for std::bad_cast
 .rdata$_ZTSSt9bad_alloc
                0x0000000100430b20       0x10 /usr/lib/gcc/x86_64-pc-cygwin/11/libstdc++.a(eh_aux_runtime.o)
                0x0000000100430b20                typeinfo name for std::bad_alloc
 .rdata$_ZTSSt9exception
                0x0000000100430b30       0x10 /usr/lib/gcc/x86_64-pc-cygwin/11/libstdc++.a(eh_aux_runtime.o)
                0x0000000100430b30                typeinfo name for std::exception
 .rdata$_ZTSSt9type_info
                0x0000000100430b40       0x10 /usr/lib/gcc/x86_64-pc-cygwin/11/libstdc++.a(class_type_info.o)
                0x0000000100430b40                typeinfo name for std::type_info
 .rdata$_ZTV13Can_VirtualHw
                0x0000000100430b50       0xe0 CMakeFiles/Basic_workflow.dir/cygdrive/c/ETAS/RTA-CAR_12.2.0/RTA-CAR/workspace/Basic_Workflow/src/mcal/VirtualCan.cpp.o
                0x0000000100430b50                vtable for Can_VirtualHw
 .rdata$_ZTV14Can_HwProvider
                0x0000000100430c30       0x40 CMakeFiles/Basic_workflow.dir/cygdrive/c/ETAS/RTA-CAR_12.2.0/RTA-CAR/workspace/Basic_Workflow/src/mcal/VirtualCan.cpp.o
                0x0000000100430c30                vtable for Can_HwProvider
 .rdata$_ZTV15MCAL_HwProvider
                0x0000000100430c70       0x30 CMakeFiles/Basic_workflow.dir/cygdrive/c/ETAS/RTA-CAR_12.2.0/RTA-CAR/workspace/Basic_Workflow/src/mcal/VirtualCan.cpp.o
                0x0000000100430c70                vtable for MCAL_HwProvider
 .rdata$_ZTV19CanControllerDevice
                0x0000000100430ca0       0x70 CMakeFiles/Basic_workflow.dir/cygdrive/c/ETAS/RTA-CAR_12.2.0/RTA-CAR/workspace/Basic_Workflow/src/mcal/Can_Device.cpp.o
                0x0000000100430ca0                vtable for CanControllerDevice
 .rdata$_ZTV22Can_Virtual_HwProvider
                0x0000000100430d10       0x40 CMakeFiles/Basic_workflow.dir/cygdrive/c/ETAS/RTA-CAR_12.2.0/RTA-CAR/workspace/Basic_Workflow/src/mcal/VirtualCan.cpp.o
                0x0000000100430d10                vtable for Can_Virtual_HwProvider
 .rdata$_ZTV6Can_Hw
                0x0000000100430d50       0xe0 CMakeFiles/Basic_workflow.dir/cygdrive/c/ETAS/RTA-CAR_12.2.0/RTA-CAR/workspace/Basic_Workflow/src/mcal/VirtualCan.cpp.o
                0x0000000100430d50                vtable for Can_Hw
 .rdata$_ZTV9CanDevice
                0x0000000100430e30       0x70 CMakeFiles/Basic_workflow.dir/cygdrive/c/ETAS/RTA-CAR_12.2.0/RTA-CAR/workspace/Basic_Workflow/src/mcal/Can_Device.cpp.o
                0x0000000100430e30                vtable for CanDevice
 .rdata$_ZTV9McuDevice
                0x0000000100430ea0       0x70 CMakeFiles/Basic_workflow.dir/cygdrive/c/ETAS/RTA-CAR_12.2.0/RTA-CAR/workspace/Basic_Workflow/src/mcal/Mcu_Device.cpp.o
                0x0000000100430ea0                vtable for McuDevice
 .rdata$_ZTVN10__cxxabiv115__forced_unwindE
                0x0000000100430f10       0x30 /usr/lib/gcc/x86_64-pc-cygwin/11/libstdc++.a(eh_exception.o)
                0x0000000100430f10                vtable for __cxxabiv1::__forced_unwind
 .rdata$_ZTVN10__cxxabiv117__class_type_infoE
                0x0000000100430f40       0x60 /usr/lib/gcc/x86_64-pc-cygwin/11/libstdc++.a(class_type_info.o)
                0x0000000100430f40                vtable for __cxxabiv1::__class_type_info
 .rdata$_ZTVN10__cxxabiv119__foreign_exceptionE
                0x0000000100430fa0       0x30 /usr/lib/gcc/x86_64-pc-cygwin/11/libstdc++.a(eh_exception.o)
                0x0000000100430fa0                vtable for __cxxabiv1::__foreign_exception
 .rdata$_ZTVN10__cxxabiv120__si_class_type_infoE
                0x0000000100430fd0       0x60 /usr/lib/gcc/x86_64-pc-cygwin/11/libstdc++.a(si_class_type_info.o)
                0x0000000100430fd0                vtable for __cxxabiv1::__si_class_type_info
 .rdata$_ZTVN9__gnu_cxx24__concurrence_lock_errorE
                0x0000000100431030       0x30 /usr/lib/gcc/x86_64-pc-cygwin/11/libstdc++.a(eh_alloc.o)
                0x0000000100431030                vtable for __gnu_cxx::__concurrence_lock_error
 .rdata$_ZTVN9__gnu_cxx26__concurrence_unlock_errorE
                0x0000000100431060       0x30 /usr/lib/gcc/x86_64-pc-cygwin/11/libstdc++.a(eh_alloc.o)
                0x0000000100431060                vtable for __gnu_cxx::__concurrence_unlock_error
 .rdata$_ZTVSt10bad_typeid
                0x0000000100431090       0x30 /usr/lib/gcc/x86_64-pc-cygwin/11/libstdc++.a(bad_typeid.o)
                0x0000000100431090                vtable for std::bad_typeid
 .rdata$_ZTVSt13bad_exception
                0x00000001004310c0       0x30 /usr/lib/gcc/x86_64-pc-cygwin/11/libstdc++.a(eh_exception.o)
                0x00000001004310c0                vtable for std::bad_exception
 .rdata$_ZTVSt20bad_array_new_length
                0x00000001004310f0       0x30 /usr/lib/gcc/x86_64-pc-cygwin/11/libstdc++.a(bad_array_new.o)
                0x00000001004310f0                vtable for std::bad_array_new_length
 .rdata$_ZTVSt8bad_cast
                0x0000000100431120       0x30 /usr/lib/gcc/x86_64-pc-cygwin/11/libstdc++.a(bad_cast.o)
                0x0000000100431120                vtable for std::bad_cast
 .rdata$_ZTVSt9bad_alloc
                0x0000000100431150       0x30 /usr/lib/gcc/x86_64-pc-cygwin/11/libstdc++.a(bad_alloc.o)
                0x0000000100431150                vtable for std::bad_alloc
 .rdata$_ZTVSt9exception
                0x0000000100431180       0x30 /usr/lib/gcc/x86_64-pc-cygwin/11/libstdc++.a(eh_exception.o)
                0x0000000100431180                vtable for std::exception
 .rdata$_ZTVSt9type_info
                0x00000001004311b0       0x40 /usr/lib/gcc/x86_64-pc-cygwin/11/libstdc++.a(tinfo.o)
                0x00000001004311b0                vtable for std::type_info
 .rdata$zzz     0x00000001004311f0       0x20 /usr/lib/gcc/x86_64-pc-cygwin/11/../../../../lib/crt0.o
 .rdata$zzz     0x0000000100431210       0x20 /usr/lib/gcc/x86_64-pc-cygwin/11/crtbegin.o
 .rdata$zzz     0x0000000100431230       0x20 CMakeFiles/Basic_workflow.dir/Unity/unity_4_c.c.o
 .rdata$zzz     0x0000000100431250       0x20 CMakeFiles/Basic_workflow.dir/Unity/unity_3_c.c.o
 .rdata$zzz     0x0000000100431270       0x20 CMakeFiles/Basic_workflow.dir/Unity/unity_2_c.c.o
 .rdata$zzz     0x0000000100431290       0x20 CMakeFiles/Basic_workflow.dir/Unity/unity_1_c.c.o
 .rdata$zzz     0x00000001004312b0       0x20 CMakeFiles/Basic_workflow.dir/Unity/unity_0_c.c.o
 .rdata$zzz     0x00000001004312d0       0x20 CMakeFiles/Basic_workflow.dir/cygdrive/c/ETAS/RTA-CAR_12.2.0/RTA-CAR/workspace/Basic_Workflow/src/asw/MySWC.c.o
 .rdata$zzz     0x00000001004312f0       0x20 CMakeFiles/Basic_workflow.dir/cygdrive/c/ETAS/RTA-CAR_12.2.0/RTA-CAR/workspace/Basic_Workflow/src/bsw/Det/src/Det.c.o
 .rdata$zzz     0x0000000100431310       0x20 CMakeFiles/Basic_workflow.dir/cygdrive/c/ETAS/RTA-CAR_12.2.0/RTA-CAR/workspace/Basic_Workflow/src/bsw/EcuM/EcuM_Cfg.c.o
 .rdata$zzz     0x0000000100431330       0x20 CMakeFiles/Basic_workflow.dir/cygdrive/c/ETAS/RTA-CAR_12.2.0/RTA-CAR/workspace/Basic_Workflow/src/bsw/EcuM/EcuM_Cfg_PbExt.c.o
 .rdata$zzz     0x0000000100431350       0x20 CMakeFiles/Basic_workflow.dir/cygdrive/c/ETAS/RTA-CAR_12.2.0/RTA-CAR/workspace/Basic_Workflow/src/bsw/EcuM/EcuM_Cfg_RbMo.c.o
 .rdata$zzz     0x0000000100431370       0x20 CMakeFiles/Basic_workflow.dir/cygdrive/c/ETAS/RTA-CAR_12.2.0/RTA-CAR/workspace/Basic_Workflow/src/bsw/EcuM/EcuM_Cfg_Shutdown.c.o
 .rdata$zzz     0x0000000100431390       0x20 CMakeFiles/Basic_workflow.dir/cygdrive/c/ETAS/RTA-CAR_12.2.0/RTA-CAR/workspace/Basic_Workflow/src/bsw/EcuM/EcuM_Cfg_Sleep.c.o
 .rdata$zzz     0x00000001004313b0       0x20 CMakeFiles/Basic_workflow.dir/cygdrive/c/ETAS/RTA-CAR_12.2.0/RTA-CAR/workspace/Basic_Workflow/src/bsw/EcuM/EcuM_Cfg_Startup.c.o
 .rdata$zzz     0x00000001004313d0       0x20 CMakeFiles/Basic_workflow.dir/cygdrive/c/ETAS/RTA-CAR_12.2.0/RTA-CAR/workspace/Basic_Workflow/src/bsw/EcuM/EcuM_Cfg_SynchPoint.c.o
 .rdata$zzz     0x00000001004313f0       0x20 CMakeFiles/Basic_workflow.dir/cygdrive/c/ETAS/RTA-CAR_12.2.0/RTA-CAR/workspace/Basic_Workflow/src/bsw/EcuM/EcuM_Lcfg.c.o
 .rdata$zzz     0x0000000100431410       0x20 CMakeFiles/Basic_workflow.dir/cygdrive/c/ETAS/RTA-CAR_12.2.0/RTA-CAR/workspace/Basic_Workflow/src/bsw/EcuM/EcuM_PBcfg.c.o
 .rdata$zzz     0x0000000100431430       0x20 CMakeFiles/Basic_workflow.dir/cygdrive/c/ETAS/RTA-CAR_12.2.0/RTA-CAR/workspace/Basic_Workflow/src/bsw/EcuM/integration/EcuM_Callout_Stubs.c.o
 .rdata$zzz     0x0000000100431450       0x20 CMakeFiles/Basic_workflow.dir/cygdrive/c/ETAS/RTA-CAR_12.2.0/RTA-CAR/workspace/Basic_Workflow/src/bsw/EcuM/src/EcuM_BootTarget.c.o
 .rdata$zzz     0x0000000100431470       0x20 CMakeFiles/Basic_workflow.dir/cygdrive/c/ETAS/RTA-CAR_12.2.0/RTA-CAR/workspace/Basic_Workflow/src/bsw/EcuM/src/EcuM_CurrentState.c.o
 .rdata$zzz     0x0000000100431490       0x20 CMakeFiles/Basic_workflow.dir/cygdrive/c/ETAS/RTA-CAR_12.2.0/RTA-CAR/workspace/Basic_Workflow/src/bsw/EcuM/src/EcuM_KillAllRequests.c.o
 .rdata$zzz     0x00000001004314b0       0x20 CMakeFiles/Basic_workflow.dir/cygdrive/c/ETAS/RTA-CAR_12.2.0/RTA-CAR/workspace/Basic_Workflow/src/bsw/EcuM/src/EcuM_MainFunction.c.o
 .rdata$zzz     0x00000001004314d0       0x20 CMakeFiles/Basic_workflow.dir/cygdrive/c/ETAS/RTA-CAR_12.2.0/RTA-CAR/workspace/Basic_Workflow/src/bsw/EcuM/src/EcuM_Misc.c.o
 .rdata$zzz     0x00000001004314f0       0x20 CMakeFiles/Basic_workflow.dir/cygdrive/c/ETAS/RTA-CAR_12.2.0/RTA-CAR/workspace/Basic_Workflow/src/bsw/EcuM/src/EcuM_Prv.c.o
 .rdata$zzz     0x0000000100431510       0x20 CMakeFiles/Basic_workflow.dir/cygdrive/c/ETAS/RTA-CAR_12.2.0/RTA-CAR/workspace/Basic_Workflow/src/bsw/EcuM/src/EcuM_Prv_RteActions.c.o
 .rdata$zzz     0x0000000100431530       0x20 CMakeFiles/Basic_workflow.dir/cygdrive/c/ETAS/RTA-CAR_12.2.0/RTA-CAR/workspace/Basic_Workflow/src/bsw/EcuM/src/EcuM_ReleasePOST_RUN.c.o
 .rdata$zzz     0x0000000100431550       0x20 CMakeFiles/Basic_workflow.dir/cygdrive/c/ETAS/RTA-CAR_12.2.0/RTA-CAR/workspace/Basic_Workflow/src/bsw/EcuM/src/EcuM_ReleaseRUN.c.o
 .rdata$zzz     0x0000000100431570       0x20 CMakeFiles/Basic_workflow.dir/cygdrive/c/ETAS/RTA-CAR_12.2.0/RTA-CAR/workspace/Basic_Workflow/src/bsw/EcuM/src/EcuM_RequestPOST_RUN.c.o
 .rdata$zzz     0x0000000100431590       0x20 CMakeFiles/Basic_workflow.dir/cygdrive/c/ETAS/RTA-CAR_12.2.0/RTA-CAR/workspace/Basic_Workflow/src/bsw/EcuM/src/EcuM_RequestRUN.c.o
 .rdata$zzz     0x00000001004315b0       0x20 CMakeFiles/Basic_workflow.dir/cygdrive/c/ETAS/RTA-CAR_12.2.0/RTA-CAR/workspace/Basic_Workflow/src/bsw/EcuM/src/EcuM_SetState.c.o
 .rdata$zzz     0x00000001004315d0       0x20 CMakeFiles/Basic_workflow.dir/cygdrive/c/ETAS/RTA-CAR_12.2.0/RTA-CAR/workspace/Basic_Workflow/src/bsw/EcuM/src/EcuM_Shutdown.c.o
 .rdata$zzz     0x00000001004315f0       0x20 CMakeFiles/Basic_workflow.dir/cygdrive/c/ETAS/RTA-CAR_12.2.0/RTA-CAR/workspace/Basic_Workflow/src/bsw/EcuM/src/EcuM_ShutdownServices.c.o
 .rdata$zzz     0x0000000100431610       0x20 CMakeFiles/Basic_workflow.dir/cygdrive/c/ETAS/RTA-CAR_12.2.0/RTA-CAR/workspace/Basic_Workflow/src/bsw/EcuM/src/EcuM_Sleep.c.o
 .rdata$zzz     0x0000000100431630       0x20 CMakeFiles/Basic_workflow.dir/cygdrive/c/ETAS/RTA-CAR_12.2.0/RTA-CAR/workspace/Basic_Workflow/src/bsw/EcuM/src/EcuM_Startup.c.o
 .rdata$zzz     0x0000000100431650       0x20 CMakeFiles/Basic_workflow.dir/cygdrive/c/ETAS/RTA-CAR_12.2.0/RTA-CAR/workspace/Basic_Workflow/src/bsw/EcuM/src/EcuM_WakeupServices.c.o
 .rdata$zzz     0x0000000100431670       0x20 CMakeFiles/Basic_workflow.dir/cygdrive/c/ETAS/RTA-CAR_12.2.0/RTA-CAR/workspace/Basic_Workflow/src/rte/Rte.c.o
 .rdata$zzz     0x0000000100431690       0x20 CMakeFiles/Basic_workflow.dir/cygdrive/c/ETAS/RTA-CAR_12.2.0/RTA-CAR/workspace/Basic_Workflow/src/rte/Rte_Lib.c.o
 .rdata$zzz     0x00000001004316b0       0x20 CMakeFiles/Basic_workflow.dir/cygdrive/c/ETAS/RTA-CAR_12.2.0/RTA-CAR/workspace/Basic_Workflow/src/mcal/Can_Device.cpp.o
 .rdata$zzz     0x00000001004316d0       0x20 CMakeFiles/Basic_workflow.dir/cygdrive/c/ETAS/RTA-CAR_12.2.0/RTA-CAR/workspace/Basic_Workflow/src/mcal/Can_HwProvider.cpp.o
 .rdata$zzz     0x00000001004316f0       0x20 CMakeFiles/Basic_workflow.dir/cygdrive/c/ETAS/RTA-CAR_12.2.0/RTA-CAR/workspace/Basic_Workflow/src/mcal/Can_Implementation.cpp.o
 .rdata$zzz     0x0000000100431710       0x20 CMakeFiles/Basic_workflow.dir/cygdrive/c/ETAS/RTA-CAR_12.2.0/RTA-CAR/workspace/Basic_Workflow/src/mcal/Mcu_Device.cpp.o
 .rdata$zzz     0x0000000100431730       0x20 CMakeFiles/Basic_workflow.dir/cygdrive/c/ETAS/RTA-CAR_12.2.0/RTA-CAR/workspace/Basic_Workflow/src/mcal/Mcu_Implementation.cpp.o
 .rdata$zzz     0x0000000100431750       0x20 CMakeFiles/Basic_workflow.dir/cygdrive/c/ETAS/RTA-CAR_12.2.0/RTA-CAR/workspace/Basic_Workflow/src/mcal/VirtualCan.cpp.o
 .rdata$zzz     0x0000000100431770       0x20 CMakeFiles/Basic_workflow.dir/cygdrive/c/ETAS/RTA-CAR_12.2.0/RTA-CAR/workspace/Basic_Workflow/src/vrta/VRTA_SystemClock.cpp.o
 .rdata$zzz     0x0000000100431790       0x20 CMakeFiles/Basic_workflow.dir/cygdrive/c/ETAS/RTA-CAR_12.2.0/RTA-CAR/workspace/Basic_Workflow/src/vrta/Vrta_Cfg.cpp.o
 .rdata$zzz     0x00000001004317b0       0x20 CMakeFiles/Basic_workflow.dir/cygdrive/c/ETAS/RTA-CAR_12.2.0/RTA-CAR/workspace/Basic_Workflow/src/vrta/target.cpp.o
 .rdata$zzz     0x00000001004317d0       0x20 /usr/lib/gcc/x86_64-pc-cygwin/11/libstdc++.a(class_type_info.o)
 .rdata$zzz     0x00000001004317f0       0x20 /usr/lib/gcc/x86_64-pc-cygwin/11/libstdc++.a(del_ops.o)
 .rdata$zzz     0x0000000100431810       0x20 /usr/lib/gcc/x86_64-pc-cygwin/11/libstdc++.a(del_opv.o)
 .rdata$zzz     0x0000000100431830       0x20 /usr/lib/gcc/x86_64-pc-cygwin/11/libstdc++.a(del_opvs.o)
 .rdata$zzz     0x0000000100431850       0x20 /usr/lib/gcc/x86_64-pc-cygwin/11/libstdc++.a(eh_aux_runtime.o)
 .rdata$zzz     0x0000000100431870       0x20 /usr/lib/gcc/x86_64-pc-cygwin/11/libstdc++.a(eh_personality.o)
 .rdata$zzz     0x0000000100431890       0x20 /usr/lib/gcc/x86_64-pc-cygwin/11/libstdc++.a(eh_terminate.o)
 .rdata$zzz     0x00000001004318b0       0x20 /usr/lib/gcc/x86_64-pc-cygwin/11/libstdc++.a(eh_throw.o)
 .rdata$zzz     0x00000001004318d0       0x20 /usr/lib/gcc/x86_64-pc-cygwin/11/libstdc++.a(eh_unex_handler.o)
 .rdata$zzz     0x00000001004318f0       0x20 /usr/lib/gcc/x86_64-pc-cygwin/11/libstdc++.a(new_op.o)
 .rdata$zzz     0x0000000100431910       0x20 /usr/lib/gcc/x86_64-pc-cygwin/11/libstdc++.a(new_opv.o)
 .rdata$zzz     0x0000000100431930       0x20 /usr/lib/gcc/x86_64-pc-cygwin/11/libstdc++.a(si_class_type_info.o)
 .rdata$zzz     0x0000000100431950       0x20 /usr/lib/gcc/x86_64-pc-cygwin/11/libstdc++.a(tinfo.o)
 .rdata$zzz     0x0000000100431970       0x20 /usr/lib/gcc/x86_64-pc-cygwin/11/libstdc++.a(vterminate.o)
 .rdata$zzz     0x0000000100431990       0x20 /usr/lib/gcc/x86_64-pc-cygwin/11/libstdc++.a(bad_alloc.o)
 .rdata$zzz     0x00000001004319b0       0x20 /usr/lib/gcc/x86_64-pc-cygwin/11/libstdc++.a(bad_array_new.o)
 .rdata$zzz     0x00000001004319d0       0x20 /usr/lib/gcc/x86_64-pc-cygwin/11/libstdc++.a(bad_cast.o)
 .rdata$zzz     0x00000001004319f0       0x20 /usr/lib/gcc/x86_64-pc-cygwin/11/libstdc++.a(bad_typeid.o)
 .rdata$zzz     0x0000000100431a10       0x20 /usr/lib/gcc/x86_64-pc-cygwin/11/libstdc++.a(cp-demangle.o)
 .rdata$zzz     0x0000000100431a30       0x20 /usr/lib/gcc/x86_64-pc-cygwin/11/libstdc++.a(del_op.o)
 .rdata$zzz     0x0000000100431a50       0x20 /usr/lib/gcc/x86_64-pc-cygwin/11/libstdc++.a(eh_alloc.o)
 .rdata$zzz     0x0000000100431a70       0x20 /usr/lib/gcc/x86_64-pc-cygwin/11/libstdc++.a(eh_call.o)
 .rdata$zzz     0x0000000100431a90       0x20 /usr/lib/gcc/x86_64-pc-cygwin/11/libstdc++.a(eh_catch.o)
 .rdata$zzz     0x0000000100431ab0       0x20 /usr/lib/gcc/x86_64-pc-cygwin/11/libstdc++.a(eh_exception.o)
 .rdata$zzz     0x0000000100431ad0       0x20 /usr/lib/gcc/x86_64-pc-cygwin/11/libstdc++.a(eh_globals.o)
 .rdata$zzz     0x0000000100431af0       0x20 /usr/lib/gcc/x86_64-pc-cygwin/11/libstdc++.a(eh_term_handler.o)
 .rdata$zzz     0x0000000100431b10       0x20 /usr/lib/gcc/x86_64-pc-cygwin/11/libstdc++.a(eh_type.o)
 .rdata$zzz     0x0000000100431b30       0x20 /usr/lib/gcc/x86_64-pc-cygwin/11/libstdc++.a(new_handler.o)
 .rdata$zzz     0x0000000100431b50       0x20 /usr/lib/gcc/x86_64-pc-cygwin/11/libgcc_eh.a(unwind-seh.o)
 .rdata$zzz     0x0000000100431b70       0x20 /usr/lib/gcc/x86_64-pc-cygwin/11/libgcc_eh.a(emutls.o)
 .rdata$zzz     0x0000000100431b90       0x20 /usr/lib/gcc/x86_64-pc-cygwin/11/../../../../lib/libcygwin.a(atexit.o)
 .rdata$zzz     0x0000000100431bb0       0x20 /usr/lib/gcc/x86_64-pc-cygwin/11/../../../../lib/libcygwin.a(cygwin_crt0.o)
 .rdata$zzz     0x0000000100431bd0       0x20 /usr/lib/gcc/x86_64-pc-cygwin/11/../../../../lib/libcygwin.a(libcmain.o)
 .rdata$zzz     0x0000000100431bf0       0x20 /usr/lib/gcc/x86_64-pc-cygwin/11/../../../../lib/libcygwin.a(premain0.o)
 .rdata$zzz     0x0000000100431c10       0x20 /usr/lib/gcc/x86_64-pc-cygwin/11/../../../../lib/libcygwin.a(premain1.o)
 .rdata$zzz     0x0000000100431c30       0x20 /usr/lib/gcc/x86_64-pc-cygwin/11/../../../../lib/libcygwin.a(premain2.o)
 .rdata$zzz     0x0000000100431c50       0x20 /usr/lib/gcc/x86_64-pc-cygwin/11/../../../../lib/libcygwin.a(premain3.o)
 .rdata$zzz     0x0000000100431c70       0x20 /usr/lib/gcc/x86_64-pc-cygwin/11/../../../../lib/libcygwin.a(_cygwin_crt0_common.o)
 .rdata$zzz     0x0000000100431c90       0x20 /usr/lib/gcc/x86_64-pc-cygwin/11/../../../../lib/libcygwin.a(dll_entry.o)
 .rdata$zzz     0x0000000100431cb0       0x20 /usr/lib/gcc/x86_64-pc-cygwin/11/../../../../lib/libcygwin.a(dll_main.o)
 .rdata$zzz     0x0000000100431cd0       0x20 /usr/lib/gcc/x86_64-pc-cygwin/11/../../../../lib/libcygwin.a(pseudo-reloc-dummy.o)
 .rdata$zzz     0x0000000100431cf0       0x20 /usr/lib/gcc/x86_64-pc-cygwin/11/../../../../lib/libcygwin.a(cygwin_attach_dll.o)
 .rdata$zzz     0x0000000100431d10       0x20 /usr/lib/gcc/x86_64-pc-cygwin/11/libgcc.a(_ctors.o)
 .rdata$zzz     0x0000000100431d30       0x20 /usr/lib/gcc/x86_64-pc-cygwin/11/crtend.o
                0x0000000100431d50                . = ALIGN (0x4)
                0x0000000100431d50                __rt_psrelocs_start = .
 *(.rdata_runtime_pseudo_reloc)
                0x0000000100431d50                __rt_psrelocs_end = .
                0x0000000000000000                __rt_psrelocs_size = (__rt_psrelocs_end - __rt_psrelocs_start)
                0x0000000100431d50                ___RUNTIME_PSEUDO_RELOC_LIST_END__ = .
                0x0000000100431d50                __RUNTIME_PSEUDO_RELOC_LIST_END__ = .
                0x0000000100431d50                ___RUNTIME_PSEUDO_RELOC_LIST__ = (. - __rt_psrelocs_size)
                0x0000000100431d50                __RUNTIME_PSEUDO_RELOC_LIST__ = (. - __rt_psrelocs_size)

.buildid        0x0000000100432000      0x200
 .buildid       0x0000000100432000       0x35 /usr/lib/gcc/x86_64-pc-cygwin/11/../../../../lib/crt0.o

.eh_frame
 *(.eh_frame*)

.pdata          0x0000000100433000     0x2a00
 *(.pdata*)
 .pdata         0x0000000100433000        0xc /usr/lib/gcc/x86_64-pc-cygwin/11/../../../../lib/crt0.o
 .pdata         0x000000010043300c       0x18 /usr/lib/gcc/x86_64-pc-cygwin/11/crtbegin.o
 .pdata         0x0000000100433024      0x300 CMakeFiles/Basic_workflow.dir/Unity/unity_4_c.c.o
 .pdata         0x0000000100433324      0x1bc CMakeFiles/Basic_workflow.dir/Unity/unity_3_c.c.o
 .pdata         0x00000001004334e0      0x180 CMakeFiles/Basic_workflow.dir/Unity/unity_2_c.c.o
 .pdata         0x0000000100433660      0x24c CMakeFiles/Basic_workflow.dir/Unity/unity_1_c.c.o
 .pdata         0x00000001004338ac      0x4e0 CMakeFiles/Basic_workflow.dir/Unity/unity_0_c.c.o
 .pdata         0x0000000100433d8c        0xc CMakeFiles/Basic_workflow.dir/cygdrive/c/ETAS/RTA-CAR_12.2.0/RTA-CAR/workspace/Basic_Workflow/src/asw/MySWC.c.o
 .pdata         0x0000000100433d98       0x3c CMakeFiles/Basic_workflow.dir/cygdrive/c/ETAS/RTA-CAR_12.2.0/RTA-CAR/workspace/Basic_Workflow/src/bsw/Det/src/Det.c.o
 .pdata         0x0000000100433dd4        0xc CMakeFiles/Basic_workflow.dir/cygdrive/c/ETAS/RTA-CAR_12.2.0/RTA-CAR/workspace/Basic_Workflow/src/bsw/EcuM/EcuM_Cfg_PbExt.c.o
 .pdata         0x0000000100433de0        0xc CMakeFiles/Basic_workflow.dir/cygdrive/c/ETAS/RTA-CAR_12.2.0/RTA-CAR/workspace/Basic_Workflow/src/bsw/EcuM/EcuM_Cfg_RbMo.c.o
 .pdata         0x0000000100433dec       0x18 CMakeFiles/Basic_workflow.dir/cygdrive/c/ETAS/RTA-CAR_12.2.0/RTA-CAR/workspace/Basic_Workflow/src/bsw/EcuM/EcuM_Cfg_Sleep.c.o
 .pdata         0x0000000100433e04       0x18 CMakeFiles/Basic_workflow.dir/cygdrive/c/ETAS/RTA-CAR_12.2.0/RTA-CAR/workspace/Basic_Workflow/src/bsw/EcuM/EcuM_Cfg_Startup.c.o
 .pdata         0x0000000100433e1c        0xc CMakeFiles/Basic_workflow.dir/cygdrive/c/ETAS/RTA-CAR_12.2.0/RTA-CAR/workspace/Basic_Workflow/src/bsw/EcuM/EcuM_Cfg_SynchPoint.c.o
 .pdata         0x0000000100433e28       0x84 CMakeFiles/Basic_workflow.dir/cygdrive/c/ETAS/RTA-CAR_12.2.0/RTA-CAR/workspace/Basic_Workflow/src/bsw/EcuM/integration/EcuM_Callout_Stubs.c.o
 .pdata         0x0000000100433eac       0x18 CMakeFiles/Basic_workflow.dir/cygdrive/c/ETAS/RTA-CAR_12.2.0/RTA-CAR/workspace/Basic_Workflow/src/bsw/EcuM/src/EcuM_BootTarget.c.o
 .pdata         0x0000000100433ec4       0x30 CMakeFiles/Basic_workflow.dir/cygdrive/c/ETAS/RTA-CAR_12.2.0/RTA-CAR/workspace/Basic_Workflow/src/bsw/EcuM/src/EcuM_MainFunction.c.o
 .pdata         0x0000000100433ef4       0x54 CMakeFiles/Basic_workflow.dir/cygdrive/c/ETAS/RTA-CAR_12.2.0/RTA-CAR/workspace/Basic_Workflow/src/bsw/EcuM/src/EcuM_Prv.c.o
 .pdata         0x0000000100433f48       0x24 CMakeFiles/Basic_workflow.dir/cygdrive/c/ETAS/RTA-CAR_12.2.0/RTA-CAR/workspace/Basic_Workflow/src/bsw/EcuM/src/EcuM_Shutdown.c.o
 .pdata         0x0000000100433f6c       0x3c CMakeFiles/Basic_workflow.dir/cygdrive/c/ETAS/RTA-CAR_12.2.0/RTA-CAR/workspace/Basic_Workflow/src/bsw/EcuM/src/EcuM_ShutdownServices.c.o
 .pdata         0x0000000100433fa8       0x18 CMakeFiles/Basic_workflow.dir/cygdrive/c/ETAS/RTA-CAR_12.2.0/RTA-CAR/workspace/Basic_Workflow/src/bsw/EcuM/src/EcuM_Startup.c.o
 .pdata         0x0000000100433fc0       0x48 CMakeFiles/Basic_workflow.dir/cygdrive/c/ETAS/RTA-CAR_12.2.0/RTA-CAR/workspace/Basic_Workflow/src/bsw/EcuM/src/EcuM_WakeupServices.c.o
 .pdata         0x0000000100434008       0x48 CMakeFiles/Basic_workflow.dir/cygdrive/c/ETAS/RTA-CAR_12.2.0/RTA-CAR/workspace/Basic_Workflow/src/rte/Rte.c.o
 .pdata         0x0000000100434050       0xb4 CMakeFiles/Basic_workflow.dir/cygdrive/c/ETAS/RTA-CAR_12.2.0/RTA-CAR/workspace/Basic_Workflow/src/rte/Rte_Lib.c.o
 .pdata$_ZN13VirtualDevice8StartingEv
                0x0000000100434104        0xc CMakeFiles/Basic_workflow.dir/cygdrive/c/ETAS/RTA-CAR_12.2.0/RTA-CAR/workspace/Basic_Workflow/src/mcal/Can_Device.cpp.o
 .pdata$_ZN13VirtualDevice8StoppingEv
                0x0000000100434110        0xc CMakeFiles/Basic_workflow.dir/cygdrive/c/ETAS/RTA-CAR_12.2.0/RTA-CAR/workspace/Basic_Workflow/src/mcal/Can_Device.cpp.o
 .pdata$_ZN19CanControllerDeviceC1EPKchht
                0x000000010043411c        0xc CMakeFiles/Basic_workflow.dir/cygdrive/c/ETAS/RTA-CAR_12.2.0/RTA-CAR/workspace/Basic_Workflow/src/mcal/Can_Device.cpp.o
 .pdata$_ZN19CanControllerDevice15RaiseStateEventEi14Can_EventStatePKc
                0x0000000100434128        0xc CMakeFiles/Basic_workflow.dir/cygdrive/c/ETAS/RTA-CAR_12.2.0/RTA-CAR/workspace/Basic_Workflow/src/mcal/Can_Device.cpp.o
 .pdata$_ZN19CanControllerDevice20RaiseErrorStateEventEj
                0x0000000100434134        0xc CMakeFiles/Basic_workflow.dir/cygdrive/c/ETAS/RTA-CAR_12.2.0/RTA-CAR/workspace/Basic_Workflow/src/mcal/Can_Device.cpp.o
 .pdata$_ZN19CanControllerDevice15RaiseWriteEventEihhtP13Can_Hwp_Frame
                0x0000000100434140        0xc CMakeFiles/Basic_workflow.dir/cygdrive/c/ETAS/RTA-CAR_12.2.0/RTA-CAR/workspace/Basic_Workflow/src/mcal/Can_Device.cpp.o
 .pdata$_ZN19CanControllerDevice12RaiseRxEventEitP13Can_Hwp_Frame
                0x000000010043414c        0xc CMakeFiles/Basic_workflow.dir/cygdrive/c/ETAS/RTA-CAR_12.2.0/RTA-CAR/workspace/Basic_Workflow/src/mcal/Can_Device.cpp.o
 .pdata$_ZN19CanControllerDevice12RaiseTxEventEitP13Can_Hwp_Frame
                0x0000000100434158        0xc CMakeFiles/Basic_workflow.dir/cygdrive/c/ETAS/RTA-CAR_12.2.0/RTA-CAR/workspace/Basic_Workflow/src/mcal/Can_Device.cpp.o
 .pdata$_ZN19CanControllerDevice24RaiseRxErrorCounterEventEh
                0x0000000100434164        0xc CMakeFiles/Basic_workflow.dir/cygdrive/c/ETAS/RTA-CAR_12.2.0/RTA-CAR/workspace/Basic_Workflow/src/mcal/Can_Device.cpp.o
 .pdata$_ZN19CanControllerDevice24RaiseTxErrorCounterEventEh
                0x0000000100434170        0xc CMakeFiles/Basic_workflow.dir/cygdrive/c/ETAS/RTA-CAR_12.2.0/RTA-CAR/workspace/Basic_Workflow/src/mcal/Can_Device.cpp.o
 .pdata$_ZN19CanControllerDevice15RaiseErrorEventEj
                0x000000010043417c        0xc CMakeFiles/Basic_workflow.dir/cygdrive/c/ETAS/RTA-CAR_12.2.0/RTA-CAR/workspace/Basic_Workflow/src/mcal/Can_Device.cpp.o
 .pdata$_ZN19CanControllerDevice21RaiseCurrentTimeEventE17Can_TimeStampType
                0x0000000100434188        0xc CMakeFiles/Basic_workflow.dir/cygdrive/c/ETAS/RTA-CAR_12.2.0/RTA-CAR/workspace/Basic_Workflow/src/mcal/Can_Device.cpp.o
 .pdata$_ZN19CanControllerDevice31RaiseEnableEgressTimeStampEventEtj
                0x0000000100434194        0xc CMakeFiles/Basic_workflow.dir/cygdrive/c/ETAS/RTA-CAR_12.2.0/RTA-CAR/workspace/Basic_Workflow/src/mcal/Can_Device.cpp.o
 .pdata$_ZN19CanControllerDevice25RaiseEgressTimeStampEventEtt17Can_TimeStampType
                0x00000001004341a0        0xc CMakeFiles/Basic_workflow.dir/cygdrive/c/ETAS/RTA-CAR_12.2.0/RTA-CAR/workspace/Basic_Workflow/src/mcal/Can_Device.cpp.o
 .pdata$_ZN19CanControllerDevice26RaiseIngressTimeStampEventEt17Can_TimeStampType
                0x00000001004341ac        0xc CMakeFiles/Basic_workflow.dir/cygdrive/c/ETAS/RTA-CAR_12.2.0/RTA-CAR/workspace/Basic_Workflow/src/mcal/Can_Device.cpp.o
 .pdata$_ZN19CanControllerDevice13GetDeviceInfoERN13VirtualDevice7OptListE
                0x00000001004341b8        0xc CMakeFiles/Basic_workflow.dir/cygdrive/c/ETAS/RTA-CAR_12.2.0/RTA-CAR/workspace/Basic_Workflow/src/mcal/Can_Device.cpp.o
 .pdata$_ZN19CanControllerDevice16GetDeviceActionsERN13VirtualDevice10ActionListE
                0x00000001004341c4        0xc CMakeFiles/Basic_workflow.dir/cygdrive/c/ETAS/RTA-CAR_12.2.0/RTA-CAR/workspace/Basic_Workflow/src/mcal/Can_Device.cpp.o
 .pdata$_ZN19CanControllerDevice15DropWriteActionERK10vrtaAction
                0x00000001004341d0        0xc CMakeFiles/Basic_workflow.dir/cygdrive/c/ETAS/RTA-CAR_12.2.0/RTA-CAR/workspace/Basic_Workflow/src/mcal/Can_Device.cpp.o
 .pdata$_ZN19CanControllerDevice17DropReceiveActionERK10vrtaAction
                0x00000001004341dc        0xc CMakeFiles/Basic_workflow.dir/cygdrive/c/ETAS/RTA-CAR_12.2.0/RTA-CAR/workspace/Basic_Workflow/src/mcal/Can_Device.cpp.o
 .pdata$_ZN19CanControllerDevice17InjectWriteActionERK10vrtaAction
                0x00000001004341e8        0xc CMakeFiles/Basic_workflow.dir/cygdrive/c/ETAS/RTA-CAR_12.2.0/RTA-CAR/workspace/Basic_Workflow/src/mcal/Can_Device.cpp.o
 .pdata$_ZN19CanControllerDevice14InjectRxActionERK10vrtaAction
                0x00000001004341f4        0xc CMakeFiles/Basic_workflow.dir/cygdrive/c/ETAS/RTA-CAR_12.2.0/RTA-CAR/workspace/Basic_Workflow/src/mcal/Can_Device.cpp.o
 .pdata$_ZN19CanControllerDevice22InjectErrorStateActionERK10vrtaAction
                0x0000000100434200        0xc CMakeFiles/Basic_workflow.dir/cygdrive/c/ETAS/RTA-CAR_12.2.0/RTA-CAR/workspace/Basic_Workflow/src/mcal/Can_Device.cpp.o
 .pdata$_ZN19CanControllerDevice34InjectControllerRxErrorCountActionERK10vrtaAction
                0x000000010043420c        0xc CMakeFiles/Basic_workflow.dir/cygdrive/c/ETAS/RTA-CAR_12.2.0/RTA-CAR/workspace/Basic_Workflow/src/mcal/Can_Device.cpp.o
 .pdata$_ZN19CanControllerDevice34InjectControllerTxErrorCountActionERK10vrtaAction
                0x0000000100434218        0xc CMakeFiles/Basic_workflow.dir/cygdrive/c/ETAS/RTA-CAR_12.2.0/RTA-CAR/workspace/Basic_Workflow/src/mcal/Can_Device.cpp.o
 .pdata$_ZN19CanControllerDevice17InjectErrorActionERK10vrtaAction
                0x0000000100434224        0xc CMakeFiles/Basic_workflow.dir/cygdrive/c/ETAS/RTA-CAR_12.2.0/RTA-CAR/workspace/Basic_Workflow/src/mcal/Can_Device.cpp.o
 .pdata$_ZN19CanControllerDevice23InjectCurrentTimeActionERK10vrtaAction
                0x0000000100434230        0xc CMakeFiles/Basic_workflow.dir/cygdrive/c/ETAS/RTA-CAR_12.2.0/RTA-CAR/workspace/Basic_Workflow/src/mcal/Can_Device.cpp.o
 .pdata$_ZN19CanControllerDevice33InjectEnableEgressTimeStampActionERK10vrtaAction
                0x000000010043423c        0xc CMakeFiles/Basic_workflow.dir/cygdrive/c/ETAS/RTA-CAR_12.2.0/RTA-CAR/workspace/Basic_Workflow/src/mcal/Can_Device.cpp.o
 .pdata$_ZN19CanControllerDevice27InjectEgressTimeStampActionERK10vrtaAction
                0x0000000100434248        0xc CMakeFiles/Basic_workflow.dir/cygdrive/c/ETAS/RTA-CAR_12.2.0/RTA-CAR/workspace/Basic_Workflow/src/mcal/Can_Device.cpp.o
 .pdata$_ZN19CanControllerDevice28InjectIngressTimeStampActionERK10vrtaAction
                0x0000000100434254        0xc CMakeFiles/Basic_workflow.dir/cygdrive/c/ETAS/RTA-CAR_12.2.0/RTA-CAR/workspace/Basic_Workflow/src/mcal/Can_Device.cpp.o
 .pdata$_ZN19CanControllerDevice17ForceWakeupActionERK10vrtaAction
                0x0000000100434260        0xc CMakeFiles/Basic_workflow.dir/cygdrive/c/ETAS/RTA-CAR_12.2.0/RTA-CAR/workspace/Basic_Workflow/src/mcal/Can_Device.cpp.o
 .pdata$_ZN19CanControllerDevice11StateActionERK10vrtaAction
                0x000000010043426c        0xc CMakeFiles/Basic_workflow.dir/cygdrive/c/ETAS/RTA-CAR_12.2.0/RTA-CAR/workspace/Basic_Workflow/src/mcal/Can_Device.cpp.o
 .pdata$_ZN19CanControllerDevice15GetDeviceEventsERN13VirtualDevice9EventListE
                0x0000000100434278        0xc CMakeFiles/Basic_workflow.dir/cygdrive/c/ETAS/RTA-CAR_12.2.0/RTA-CAR/workspace/Basic_Workflow/src/mcal/Can_Device.cpp.o
 .pdata$_ZN19CanControllerDevice6ParentER9vrtaEvent
                0x0000000100434284        0xc CMakeFiles/Basic_workflow.dir/cygdrive/c/ETAS/RTA-CAR_12.2.0/RTA-CAR/workspace/Basic_Workflow/src/mcal/Can_Device.cpp.o
 .pdata$_ZN19CanControllerDevice10StateEventER9vrtaEvent
                0x0000000100434290        0xc CMakeFiles/Basic_workflow.dir/cygdrive/c/ETAS/RTA-CAR_12.2.0/RTA-CAR/workspace/Basic_Workflow/src/mcal/Can_Device.cpp.o
 .pdata$_ZN19CanControllerDevice10WriteEventER9vrtaEvent
                0x000000010043429c        0xc CMakeFiles/Basic_workflow.dir/cygdrive/c/ETAS/RTA-CAR_12.2.0/RTA-CAR/workspace/Basic_Workflow/src/mcal/Can_Device.cpp.o
 .pdata$_ZN19CanControllerDevice7TxEventER9vrtaEvent
                0x00000001004342a8        0xc CMakeFiles/Basic_workflow.dir/cygdrive/c/ETAS/RTA-CAR_12.2.0/RTA-CAR/workspace/Basic_Workflow/src/mcal/Can_Device.cpp.o
 .pdata$_ZN19CanControllerDevice7RxEventER9vrtaEvent
                0x00000001004342b4        0xc CMakeFiles/Basic_workflow.dir/cygdrive/c/ETAS/RTA-CAR_12.2.0/RTA-CAR/workspace/Basic_Workflow/src/mcal/Can_Device.cpp.o
 .pdata$_ZN19CanControllerDevice15ErrorStateEventER9vrtaEvent
                0x00000001004342c0        0xc CMakeFiles/Basic_workflow.dir/cygdrive/c/ETAS/RTA-CAR_12.2.0/RTA-CAR/workspace/Basic_Workflow/src/mcal/Can_Device.cpp.o
 .pdata$_ZN19CanControllerDevice19RxErrorCounterEventER9vrtaEvent
                0x00000001004342cc        0xc CMakeFiles/Basic_workflow.dir/cygdrive/c/ETAS/RTA-CAR_12.2.0/RTA-CAR/workspace/Basic_Workflow/src/mcal/Can_Device.cpp.o
 .pdata$_ZN19CanControllerDevice19TxErrorCounterEventER9vrtaEvent
                0x00000001004342d8        0xc CMakeFiles/Basic_workflow.dir/cygdrive/c/ETAS/RTA-CAR_12.2.0/RTA-CAR/workspace/Basic_Workflow/src/mcal/Can_Device.cpp.o
 .pdata$_ZN19CanControllerDevice10ErrorEventER9vrtaEvent
                0x00000001004342e4        0xc CMakeFiles/Basic_workflow.dir/cygdrive/c/ETAS/RTA-CAR_12.2.0/RTA-CAR/workspace/Basic_Workflow/src/mcal/Can_Device.cpp.o
 .pdata$_ZN19CanControllerDevice16CurrentTimeEventER9vrtaEvent
                0x00000001004342f0        0xc CMakeFiles/Basic_workflow.dir/cygdrive/c/ETAS/RTA-CAR_12.2.0/RTA-CAR/workspace/Basic_Workflow/src/mcal/Can_Device.cpp.o
 .pdata$_ZN19CanControllerDevice26EnableEgressTimeStampEventER9vrtaEvent
                0x00000001004342fc        0xc CMakeFiles/Basic_workflow.dir/cygdrive/c/ETAS/RTA-CAR_12.2.0/RTA-CAR/workspace/Basic_Workflow/src/mcal/Can_Device.cpp.o
 .pdata$_ZN19CanControllerDevice20EgressTimeStampEventER9vrtaEvent
                0x0000000100434308        0xc CMakeFiles/Basic_workflow.dir/cygdrive/c/ETAS/RTA-CAR_12.2.0/RTA-CAR/workspace/Basic_Workflow/src/mcal/Can_Device.cpp.o
 .pdata$_ZN19CanControllerDevice21IngressTimeStampEventER9vrtaEvent
                0x0000000100434314        0xc CMakeFiles/Basic_workflow.dir/cygdrive/c/ETAS/RTA-CAR_12.2.0/RTA-CAR/workspace/Basic_Workflow/src/mcal/Can_Device.cpp.o
 .pdata$_ZN9CanDeviceC1EPKc
                0x0000000100434320        0xc CMakeFiles/Basic_workflow.dir/cygdrive/c/ETAS/RTA-CAR_12.2.0/RTA-CAR/workspace/Basic_Workflow/src/mcal/Can_Device.cpp.o
 .pdata$_ZN9CanDevice13RaiseCanStateE16Can_DriverStatus
                0x000000010043432c        0xc CMakeFiles/Basic_workflow.dir/cygdrive/c/ETAS/RTA-CAR_12.2.0/RTA-CAR/workspace/Basic_Workflow/src/mcal/Can_Device.cpp.o
 .pdata$_ZN9CanDevice8RaiseIsrEv
                0x0000000100434338        0xc CMakeFiles/Basic_workflow.dir/cygdrive/c/ETAS/RTA-CAR_12.2.0/RTA-CAR/workspace/Basic_Workflow/src/mcal/Can_Device.cpp.o
 .pdata$_ZN9CanDevice16UpdateStateEventEi14Can_EventStatePKc
                0x0000000100434344        0xc CMakeFiles/Basic_workflow.dir/cygdrive/c/ETAS/RTA-CAR_12.2.0/RTA-CAR/workspace/Basic_Workflow/src/mcal/Can_Device.cpp.o
 .pdata$_ZN9CanDevice16UpdateErrorStateEij
                0x0000000100434350        0xc CMakeFiles/Basic_workflow.dir/cygdrive/c/ETAS/RTA-CAR_12.2.0/RTA-CAR/workspace/Basic_Workflow/src/mcal/Can_Device.cpp.o
 .pdata$_ZN9CanDevice16UpdateWriteEventEihhtP13Can_Hwp_Frame
                0x000000010043435c        0xc CMakeFiles/Basic_workflow.dir/cygdrive/c/ETAS/RTA-CAR_12.2.0/RTA-CAR/workspace/Basic_Workflow/src/mcal/Can_Device.cpp.o
 .pdata$_ZN9CanDevice13UpdateRxEventEitP13Can_Hwp_Frame
                0x0000000100434368        0xc CMakeFiles/Basic_workflow.dir/cygdrive/c/ETAS/RTA-CAR_12.2.0/RTA-CAR/workspace/Basic_Workflow/src/mcal/Can_Device.cpp.o
 .pdata$_ZN9CanDevice13UpdateTxEventEitP13Can_Hwp_Frame
                0x0000000100434374        0xc CMakeFiles/Basic_workflow.dir/cygdrive/c/ETAS/RTA-CAR_12.2.0/RTA-CAR/workspace/Basic_Workflow/src/mcal/Can_Device.cpp.o
 .pdata$_ZN9CanDevice30UpdateControllerRxErrorCounterEih
                0x0000000100434380        0xc CMakeFiles/Basic_workflow.dir/cygdrive/c/ETAS/RTA-CAR_12.2.0/RTA-CAR/workspace/Basic_Workflow/src/mcal/Can_Device.cpp.o
 .pdata$_ZN9CanDevice30UpdateControllerTxErrorCounterEih
                0x000000010043438c        0xc CMakeFiles/Basic_workflow.dir/cygdrive/c/ETAS/RTA-CAR_12.2.0/RTA-CAR/workspace/Basic_Workflow/src/mcal/Can_Device.cpp.o
 .pdata$_ZN9CanDevice11UpdateErrorEij
                0x0000000100434398        0xc CMakeFiles/Basic_workflow.dir/cygdrive/c/ETAS/RTA-CAR_12.2.0/RTA-CAR/workspace/Basic_Workflow/src/mcal/Can_Device.cpp.o
 .pdata$_ZN9CanDevice17UpdateCurrentTimeEi17Can_TimeStampType
                0x00000001004343a4        0xc CMakeFiles/Basic_workflow.dir/cygdrive/c/ETAS/RTA-CAR_12.2.0/RTA-CAR/workspace/Basic_Workflow/src/mcal/Can_Device.cpp.o
 .pdata$_ZN9CanDevice27UpdateEnableEgressTimeStampEith
                0x00000001004343b0        0xc CMakeFiles/Basic_workflow.dir/cygdrive/c/ETAS/RTA-CAR_12.2.0/RTA-CAR/workspace/Basic_Workflow/src/mcal/Can_Device.cpp.o
 .pdata$_ZN9CanDevice26UpdateEgressTimeStampEventEitt17Can_TimeStampType
                0x00000001004343bc        0xc CMakeFiles/Basic_workflow.dir/cygdrive/c/ETAS/RTA-CAR_12.2.0/RTA-CAR/workspace/Basic_Workflow/src/mcal/Can_Device.cpp.o
 .pdata$_ZN9CanDevice22UpdateIngressTimeStampEit17Can_TimeStampType
                0x00000001004343c8        0xc CMakeFiles/Basic_workflow.dir/cygdrive/c/ETAS/RTA-CAR_12.2.0/RTA-CAR/workspace/Basic_Workflow/src/mcal/Can_Device.cpp.o
 .pdata$_ZN9CanDevice13GetDeviceInfoERN13VirtualDevice7OptListE
                0x00000001004343d4        0xc CMakeFiles/Basic_workflow.dir/cygdrive/c/ETAS/RTA-CAR_12.2.0/RTA-CAR/workspace/Basic_Workflow/src/mcal/Can_Device.cpp.o
 .pdata$_ZN9CanDevice16GetDeviceActionsERN13VirtualDevice10ActionListE
                0x00000001004343e0        0xc CMakeFiles/Basic_workflow.dir/cygdrive/c/ETAS/RTA-CAR_12.2.0/RTA-CAR/workspace/Basic_Workflow/src/mcal/Can_Device.cpp.o
 .pdata$_ZN9CanDevice15GetDeviceEventsERN13VirtualDevice9EventListE
                0x00000001004343ec        0xc CMakeFiles/Basic_workflow.dir/cygdrive/c/ETAS/RTA-CAR_12.2.0/RTA-CAR/workspace/Basic_Workflow/src/mcal/Can_Device.cpp.o
 .pdata$_ZN9CanDevice10StateEventER9vrtaEvent
                0x00000001004343f8        0xc CMakeFiles/Basic_workflow.dir/cygdrive/c/ETAS/RTA-CAR_12.2.0/RTA-CAR/workspace/Basic_Workflow/src/mcal/Can_Device.cpp.o
 .pdata         0x0000000100434404       0xd8 CMakeFiles/Basic_workflow.dir/cygdrive/c/ETAS/RTA-CAR_12.2.0/RTA-CAR/workspace/Basic_Workflow/src/mcal/Can_Device.cpp.o
 .pdata$_ZN13VirtualDevice10UnpackDataIjEEvRK10vrtaActionRT_
                0x00000001004344dc        0xc CMakeFiles/Basic_workflow.dir/cygdrive/c/ETAS/RTA-CAR_12.2.0/RTA-CAR/workspace/Basic_Workflow/src/mcal/Can_Device.cpp.o
 .pdata$_ZN13VirtualDevice10UnpackDataIN19CanControllerDevice15WriteActionTypeEEEvRK10vrtaActionRT_
                0x00000001004344e8        0xc CMakeFiles/Basic_workflow.dir/cygdrive/c/ETAS/RTA-CAR_12.2.0/RTA-CAR/workspace/Basic_Workflow/src/mcal/Can_Device.cpp.o
 .pdata$_ZN13VirtualDevice10UnpackDataIN19CanControllerDevice12RxActionTypeEEEvRK10vrtaActionRT_
                0x00000001004344f4        0xc CMakeFiles/Basic_workflow.dir/cygdrive/c/ETAS/RTA-CAR_12.2.0/RTA-CAR/workspace/Basic_Workflow/src/mcal/Can_Device.cpp.o
 .pdata$_ZN13VirtualDevice10UnpackDataI18Can_ErrorStateTypeEEvRK10vrtaActionRT_
                0x0000000100434500        0xc CMakeFiles/Basic_workflow.dir/cygdrive/c/ETAS/RTA-CAR_12.2.0/RTA-CAR/workspace/Basic_Workflow/src/mcal/Can_Device.cpp.o
 .pdata$_ZN13VirtualDevice10UnpackDataIhEEvRK10vrtaActionRT_
                0x000000010043450c        0xc CMakeFiles/Basic_workflow.dir/cygdrive/c/ETAS/RTA-CAR_12.2.0/RTA-CAR/workspace/Basic_Workflow/src/mcal/Can_Device.cpp.o
 .pdata$_ZN13VirtualDevice10UnpackDataIN19CanControllerDevice27InjectCurrentTimeActionTypeEEEvRK10vrtaActionRT_
                0x0000000100434518        0xc CMakeFiles/Basic_workflow.dir/cygdrive/c/ETAS/RTA-CAR_12.2.0/RTA-CAR/workspace/Basic_Workflow/src/mcal/Can_Device.cpp.o
 .pdata$_ZN13VirtualDevice10UnpackDataIN19CanControllerDevice37InjectEnableEgressTimeStampActionTypeEEEvRK10vrtaActionRT_
                0x0000000100434524        0xc CMakeFiles/Basic_workflow.dir/cygdrive/c/ETAS/RTA-CAR_12.2.0/RTA-CAR/workspace/Basic_Workflow/src/mcal/Can_Device.cpp.o
 .pdata$_ZN13VirtualDevice10UnpackDataIN19CanControllerDevice31InjectEgressTimeStampActionTypeEEEvRK10vrtaActionRT_
                0x0000000100434530        0xc CMakeFiles/Basic_workflow.dir/cygdrive/c/ETAS/RTA-CAR_12.2.0/RTA-CAR/workspace/Basic_Workflow/src/mcal/Can_Device.cpp.o
 .pdata$_ZN13VirtualDevice10UnpackDataIN19CanControllerDevice32InjectIngressTimeStampActionTypeEEEvRK10vrtaActionRT_
                0x000000010043453c        0xc CMakeFiles/Basic_workflow.dir/cygdrive/c/ETAS/RTA-CAR_12.2.0/RTA-CAR/workspace/Basic_Workflow/src/mcal/Can_Device.cpp.o
 .pdata$_ZN13VirtualDevice8SetValueItEEvR9vrtaEventT_
                0x0000000100434548        0xc CMakeFiles/Basic_workflow.dir/cygdrive/c/ETAS/RTA-CAR_12.2.0/RTA-CAR/workspace/Basic_Workflow/src/mcal/Can_Device.cpp.o
 .pdata$_ZN13VirtualDevice8PackDataIN19CanControllerDevice15StatusEventTypeEEEvR9vrtaEventRT_i
                0x0000000100434554        0xc CMakeFiles/Basic_workflow.dir/cygdrive/c/ETAS/RTA-CAR_12.2.0/RTA-CAR/workspace/Basic_Workflow/src/mcal/Can_Device.cpp.o
 .pdata$_ZN13VirtualDevice8PackDataIN19CanControllerDevice14WriteEventTypeEEEvR9vrtaEventRT_i
                0x0000000100434560        0xc CMakeFiles/Basic_workflow.dir/cygdrive/c/ETAS/RTA-CAR_12.2.0/RTA-CAR/workspace/Basic_Workflow/src/mcal/Can_Device.cpp.o
 .pdata$_ZN13VirtualDevice8PackDataIN19CanControllerDevice11TxEventTypeEEEvR9vrtaEventRT_i
                0x000000010043456c        0xc CMakeFiles/Basic_workflow.dir/cygdrive/c/ETAS/RTA-CAR_12.2.0/RTA-CAR/workspace/Basic_Workflow/src/mcal/Can_Device.cpp.o
 .pdata$_ZN13VirtualDevice8PackDataIN19CanControllerDevice11RxEventTypeEEEvR9vrtaEventRT_i
                0x0000000100434578        0xc CMakeFiles/Basic_workflow.dir/cygdrive/c/ETAS/RTA-CAR_12.2.0/RTA-CAR/workspace/Basic_Workflow/src/mcal/Can_Device.cpp.o
 .pdata$_ZN13VirtualDevice8PackDataIjEEvR9vrtaEventRT_i
                0x0000000100434584        0xc CMakeFiles/Basic_workflow.dir/cygdrive/c/ETAS/RTA-CAR_12.2.0/RTA-CAR/workspace/Basic_Workflow/src/mcal/Can_Device.cpp.o
 .pdata$_ZN13VirtualDevice8PackDataIN19CanControllerDevice15CurrentTimeTypeEEEvR9vrtaEventRT_i
                0x0000000100434590        0xc CMakeFiles/Basic_workflow.dir/cygdrive/c/ETAS/RTA-CAR_12.2.0/RTA-CAR/workspace/Basic_Workflow/src/mcal/Can_Device.cpp.o
 .pdata$_ZN13VirtualDevice8PackDataIN19CanControllerDevice25EnableEgressTimeStampTypeEEEvR9vrtaEventRT_i
                0x000000010043459c        0xc CMakeFiles/Basic_workflow.dir/cygdrive/c/ETAS/RTA-CAR_12.2.0/RTA-CAR/workspace/Basic_Workflow/src/mcal/Can_Device.cpp.o
 .pdata$_ZN13VirtualDevice8PackDataIN19CanControllerDevice19EgressTimeStampTypeEEEvR9vrtaEventRT_i
                0x00000001004345a8        0xc CMakeFiles/Basic_workflow.dir/cygdrive/c/ETAS/RTA-CAR_12.2.0/RTA-CAR/workspace/Basic_Workflow/src/mcal/Can_Device.cpp.o
 .pdata$_ZN13VirtualDevice8PackDataIN19CanControllerDevice20IngressTimeStampTypeEEEvR9vrtaEventRT_i
                0x00000001004345b4        0xc CMakeFiles/Basic_workflow.dir/cygdrive/c/ETAS/RTA-CAR_12.2.0/RTA-CAR/workspace/Basic_Workflow/src/mcal/Can_Device.cpp.o
 .pdata$_ZN13VirtualDevice8SetValueIhEEvR9vrtaEventT_
                0x00000001004345c0        0xc CMakeFiles/Basic_workflow.dir/cygdrive/c/ETAS/RTA-CAR_12.2.0/RTA-CAR/workspace/Basic_Workflow/src/mcal/Can_Device.cpp.o
 .pdata$_ZN9CanDeviceD1Ev
                0x00000001004345cc        0xc CMakeFiles/Basic_workflow.dir/cygdrive/c/ETAS/RTA-CAR_12.2.0/RTA-CAR/workspace/Basic_Workflow/src/mcal/Can_Device.cpp.o
 .pdata$_ZN9CanDeviceD0Ev
                0x00000001004345d8        0xc CMakeFiles/Basic_workflow.dir/cygdrive/c/ETAS/RTA-CAR_12.2.0/RTA-CAR/workspace/Basic_Workflow/src/mcal/Can_Device.cpp.o
 .pdata$_ZN19CanControllerDeviceD1Ev
                0x00000001004345e4        0xc CMakeFiles/Basic_workflow.dir/cygdrive/c/ETAS/RTA-CAR_12.2.0/RTA-CAR/workspace/Basic_Workflow/src/mcal/Can_Device.cpp.o
 .pdata$_ZN19CanControllerDeviceD0Ev
                0x00000001004345f0        0xc CMakeFiles/Basic_workflow.dir/cygdrive/c/ETAS/RTA-CAR_12.2.0/RTA-CAR/workspace/Basic_Workflow/src/mcal/Can_Device.cpp.o
 .pdata         0x00000001004345fc       0x30 CMakeFiles/Basic_workflow.dir/cygdrive/c/ETAS/RTA-CAR_12.2.0/RTA-CAR/workspace/Basic_Workflow/src/mcal/Can_HwProvider.cpp.o
 .pdata$_ZN6Can_Hw4NameEv
                0x000000010043462c        0xc CMakeFiles/Basic_workflow.dir/cygdrive/c/ETAS/RTA-CAR_12.2.0/RTA-CAR/workspace/Basic_Workflow/src/mcal/Can_Implementation.cpp.o
 .pdata$_ZN20Can_ChannelStateTypeC1Ev
                0x0000000100434638        0xc CMakeFiles/Basic_workflow.dir/cygdrive/c/ETAS/RTA-CAR_12.2.0/RTA-CAR/workspace/Basic_Workflow/src/mcal/Can_Implementation.cpp.o
 .pdata$_ZN19Can_RxHwObjFifoTypeC1Ev
                0x0000000100434644        0xc CMakeFiles/Basic_workflow.dir/cygdrive/c/ETAS/RTA-CAR_12.2.0/RTA-CAR/workspace/Basic_Workflow/src/mcal/Can_Implementation.cpp.o
 .pdata$_ZN19Can_RxHwObjFifoType7enqueueEPK13Can_Hwp_Framet
                0x0000000100434650        0xc CMakeFiles/Basic_workflow.dir/cygdrive/c/ETAS/RTA-CAR_12.2.0/RTA-CAR/workspace/Basic_Workflow/src/mcal/Can_Implementation.cpp.o
 .pdata$_ZN19Can_RxHwObjFifoType7dequeueER11PduInfoTypeR10Can_HwTypej
                0x000000010043465c        0xc CMakeFiles/Basic_workflow.dir/cygdrive/c/ETAS/RTA-CAR_12.2.0/RTA-CAR/workspace/Basic_Workflow/src/mcal/Can_Implementation.cpp.o
 .pdata$_ZNK19Can_RxHwObjFifoType7isEmptyEv
                0x0000000100434668        0xc CMakeFiles/Basic_workflow.dir/cygdrive/c/ETAS/RTA-CAR_12.2.0/RTA-CAR/workspace/Basic_Workflow/src/mcal/Can_Implementation.cpp.o
 .pdata$_ZN19Can_RxHwObjFifoType5clearEv
                0x0000000100434674        0xc CMakeFiles/Basic_workflow.dir/cygdrive/c/ETAS/RTA-CAR_12.2.0/RTA-CAR/workspace/Basic_Workflow/src/mcal/Can_Implementation.cpp.o
 .pdata$_ZN18Can_HwobjStateTypeC1Ev
                0x0000000100434680        0xc CMakeFiles/Basic_workflow.dir/cygdrive/c/ETAS/RTA-CAR_12.2.0/RTA-CAR/workspace/Basic_Workflow/src/mcal/Can_Implementation.cpp.o
 .pdata$_ZN18Can_HwobjStateType5resetEv
                0x000000010043468c        0xc CMakeFiles/Basic_workflow.dir/cygdrive/c/ETAS/RTA-CAR_12.2.0/RTA-CAR/workspace/Basic_Workflow/src/mcal/Can_Implementation.cpp.o
 .pdata         0x0000000100434698      0x2a0 CMakeFiles/Basic_workflow.dir/cygdrive/c/ETAS/RTA-CAR_12.2.0/RTA-CAR/workspace/Basic_Workflow/src/mcal/Can_Implementation.cpp.o
 .pdata$_ZN13VirtualDevice16UnsignedValueForERK10vrtaAction
                0x0000000100434938        0xc CMakeFiles/Basic_workflow.dir/cygdrive/c/ETAS/RTA-CAR_12.2.0/RTA-CAR/workspace/Basic_Workflow/src/mcal/Mcu_Device.cpp.o
 .pdata$_ZN13VirtualDevice6NoDataER10vrtaAction
                0x0000000100434944        0xc CMakeFiles/Basic_workflow.dir/cygdrive/c/ETAS/RTA-CAR_12.2.0/RTA-CAR/workspace/Basic_Workflow/src/mcal/Mcu_Device.cpp.o
 .pdata$_ZN9McuDeviceC1EPKc
                0x0000000100434950        0xc CMakeFiles/Basic_workflow.dir/cygdrive/c/ETAS/RTA-CAR_12.2.0/RTA-CAR/workspace/Basic_Workflow/src/mcal/Mcu_Device.cpp.o
 .pdata$_ZN9McuDevice11ResetReasonE13Mcu_ResetType
                0x000000010043495c        0xc CMakeFiles/Basic_workflow.dir/cygdrive/c/ETAS/RTA-CAR_12.2.0/RTA-CAR/workspace/Basic_Workflow/src/mcal/Mcu_Device.cpp.o
 .pdata$_ZN9McuDevice11Reset_countEv
                0x0000000100434968        0xc CMakeFiles/Basic_workflow.dir/cygdrive/c/ETAS/RTA-CAR_12.2.0/RTA-CAR/workspace/Basic_Workflow/src/mcal/Mcu_Device.cpp.o
 .pdata$_ZN9McuDevice21GetPersistentDataSizeEv
                0x0000000100434974        0xc CMakeFiles/Basic_workflow.dir/cygdrive/c/ETAS/RTA-CAR_12.2.0/RTA-CAR/workspace/Basic_Workflow/src/mcal/Mcu_Device.cpp.o
 .pdata$_ZN9McuDevice17GetPersistentDataEv
                0x0000000100434980        0xc CMakeFiles/Basic_workflow.dir/cygdrive/c/ETAS/RTA-CAR_12.2.0/RTA-CAR/workspace/Basic_Workflow/src/mcal/Mcu_Device.cpp.o
 .pdata$_ZN9McuDevice17SetPersistentDataEPht
                0x000000010043498c        0xc CMakeFiles/Basic_workflow.dir/cygdrive/c/ETAS/RTA-CAR_12.2.0/RTA-CAR/workspace/Basic_Workflow/src/mcal/Mcu_Device.cpp.o
 .pdata$_ZN9McuDevice13GetDeviceInfoERN13VirtualDevice7OptListE
                0x0000000100434998        0xc CMakeFiles/Basic_workflow.dir/cygdrive/c/ETAS/RTA-CAR_12.2.0/RTA-CAR/workspace/Basic_Workflow/src/mcal/Mcu_Device.cpp.o
 .pdata$_ZN9McuDevice16GetDeviceActionsERN13VirtualDevice10ActionListE
                0x00000001004349a4        0xc CMakeFiles/Basic_workflow.dir/cygdrive/c/ETAS/RTA-CAR_12.2.0/RTA-CAR/workspace/Basic_Workflow/src/mcal/Mcu_Device.cpp.o
 .pdata$_ZN9McuDevice17InjectResetActionERK10vrtaAction
                0x00000001004349b0        0xc CMakeFiles/Basic_workflow.dir/cygdrive/c/ETAS/RTA-CAR_12.2.0/RTA-CAR/workspace/Basic_Workflow/src/mcal/Mcu_Device.cpp.o
 .pdata$_ZN9McuDevice15GetDeviceEventsERN13VirtualDevice9EventListE
                0x00000001004349bc        0xc CMakeFiles/Basic_workflow.dir/cygdrive/c/ETAS/RTA-CAR_12.2.0/RTA-CAR/workspace/Basic_Workflow/src/mcal/Mcu_Device.cpp.o
 .pdata$_ZN9McuDevice16ResetReasonEventER9vrtaEvent
                0x00000001004349c8        0xc CMakeFiles/Basic_workflow.dir/cygdrive/c/ETAS/RTA-CAR_12.2.0/RTA-CAR/workspace/Basic_Workflow/src/mcal/Mcu_Device.cpp.o
 .pdata$_ZN9McuDevice15ResetCountEventER9vrtaEvent
                0x00000001004349d4        0xc CMakeFiles/Basic_workflow.dir/cygdrive/c/ETAS/RTA-CAR_12.2.0/RTA-CAR/workspace/Basic_Workflow/src/mcal/Mcu_Device.cpp.o
 .pdata         0x00000001004349e0       0x3c CMakeFiles/Basic_workflow.dir/cygdrive/c/ETAS/RTA-CAR_12.2.0/RTA-CAR/workspace/Basic_Workflow/src/mcal/Mcu_Device.cpp.o
 .pdata$_ZN13VirtualDevice8SetValueIjEEvR9vrtaEventT_
                0x0000000100434a1c        0xc CMakeFiles/Basic_workflow.dir/cygdrive/c/ETAS/RTA-CAR_12.2.0/RTA-CAR/workspace/Basic_Workflow/src/mcal/Mcu_Device.cpp.o
 .pdata$_ZN9McuDeviceD1Ev
                0x0000000100434a28        0xc CMakeFiles/Basic_workflow.dir/cygdrive/c/ETAS/RTA-CAR_12.2.0/RTA-CAR/workspace/Basic_Workflow/src/mcal/Mcu_Device.cpp.o
 .pdata$_ZN9McuDeviceD0Ev
                0x0000000100434a34        0xc CMakeFiles/Basic_workflow.dir/cygdrive/c/ETAS/RTA-CAR_12.2.0/RTA-CAR/workspace/Basic_Workflow/src/mcal/Mcu_Device.cpp.o
 .pdata         0x0000000100434a40       0xa8 CMakeFiles/Basic_workflow.dir/cygdrive/c/ETAS/RTA-CAR_12.2.0/RTA-CAR/workspace/Basic_Workflow/src/mcal/Mcu_Implementation.cpp.o
 .pdata$_ZN15MCAL_HwProviderD2Ev
                0x0000000100434ae8        0xc CMakeFiles/Basic_workflow.dir/cygdrive/c/ETAS/RTA-CAR_12.2.0/RTA-CAR/workspace/Basic_Workflow/src/mcal/VirtualCan.cpp.o
 .pdata$_ZN6Can_HwC2EPFvj13Can_Hwp_EventtP13Can_Hwp_FrameEj
                0x0000000100434af4        0xc CMakeFiles/Basic_workflow.dir/cygdrive/c/ETAS/RTA-CAR_12.2.0/RTA-CAR/workspace/Basic_Workflow/src/mcal/VirtualCan.cpp.o
 .pdata$_ZN6Can_HwD2Ev
                0x0000000100434b00        0xc CMakeFiles/Basic_workflow.dir/cygdrive/c/ETAS/RTA-CAR_12.2.0/RTA-CAR/workspace/Basic_Workflow/src/mcal/VirtualCan.cpp.o
 .pdata$_ZN6Can_Hw24EnableTransmitProcessingEb
                0x0000000100434b0c        0xc CMakeFiles/Basic_workflow.dir/cygdrive/c/ETAS/RTA-CAR_12.2.0/RTA-CAR/workspace/Basic_Workflow/src/mcal/VirtualCan.cpp.o
 .pdata$_ZN20Can_Virtual_TxObjectC1Ev
                0x0000000100434b18        0xc CMakeFiles/Basic_workflow.dir/cygdrive/c/ETAS/RTA-CAR_12.2.0/RTA-CAR/workspace/Basic_Workflow/src/mcal/VirtualCan.cpp.o
 .pdata$_ZN22Can_Virtual_ControllerC1Ev
                0x0000000100434b24        0xc CMakeFiles/Basic_workflow.dir/cygdrive/c/ETAS/RTA-CAR_12.2.0/RTA-CAR/workspace/Basic_Workflow/src/mcal/VirtualCan.cpp.o
 .pdata$_ZN22Can_Virtual_ControllerD1Ev
                0x0000000100434b30        0xc CMakeFiles/Basic_workflow.dir/cygdrive/c/ETAS/RTA-CAR_12.2.0/RTA-CAR/workspace/Basic_Workflow/src/mcal/VirtualCan.cpp.o
 .pdata$_ZN22Can_Virtual_Controller6UpCallE13Can_Hwp_EventtP13Can_Hwp_Frame
                0x0000000100434b3c        0xc CMakeFiles/Basic_workflow.dir/cygdrive/c/ETAS/RTA-CAR_12.2.0/RTA-CAR/workspace/Basic_Workflow/src/mcal/VirtualCan.cpp.o
 .pdata$_ZN18Can_Virtual_DriverC1Ev
                0x0000000100434b48        0xc CMakeFiles/Basic_workflow.dir/cygdrive/c/ETAS/RTA-CAR_12.2.0/RTA-CAR/workspace/Basic_Workflow/src/mcal/VirtualCan.cpp.o
 .pdata$_ZN18Can_Virtual_DriverD1Ev
                0x0000000100434b54        0xc CMakeFiles/Basic_workflow.dir/cygdrive/c/ETAS/RTA-CAR_12.2.0/RTA-CAR/workspace/Basic_Workflow/src/mcal/VirtualCan.cpp.o
 .pdata$_ZN18Can_Virtual_Driver10InitialiseEv
                0x0000000100434b60        0xc CMakeFiles/Basic_workflow.dir/cygdrive/c/ETAS/RTA-CAR_12.2.0/RTA-CAR/workspace/Basic_Workflow/src/mcal/VirtualCan.cpp.o
 .pdata$_ZN18Can_Virtual_Driver12DeInitialiseEv
                0x0000000100434b6c        0xc CMakeFiles/Basic_workflow.dir/cygdrive/c/ETAS/RTA-CAR_12.2.0/RTA-CAR/workspace/Basic_Workflow/src/mcal/VirtualCan.cpp.o
 .pdata$_ZN18Can_Virtual_Driver8TeardownEv
                0x0000000100434b78        0xc CMakeFiles/Basic_workflow.dir/cygdrive/c/ETAS/RTA-CAR_12.2.0/RTA-CAR/workspace/Basic_Workflow/src/mcal/VirtualCan.cpp.o
 .pdata$_ZN18Can_Virtual_Driver19IsControllerPresentEj
                0x0000000100434b84        0xc CMakeFiles/Basic_workflow.dir/cygdrive/c/ETAS/RTA-CAR_12.2.0/RTA-CAR/workspace/Basic_Workflow/src/mcal/VirtualCan.cpp.o
 .pdata$_ZN18Can_Virtual_Driver13AddControllerEjPKcPFvj13Can_Hwp_EventtP13Can_Hwp_FrameEj
                0x0000000100434b90        0xc CMakeFiles/Basic_workflow.dir/cygdrive/c/ETAS/RTA-CAR_12.2.0/RTA-CAR/workspace/Basic_Workflow/src/mcal/VirtualCan.cpp.o
 .pdata$_ZN18Can_Virtual_Driver19ConfigureControllerEjPK21Can_Hwp_ChannelConfig
                0x0000000100434b9c        0xc CMakeFiles/Basic_workflow.dir/cygdrive/c/ETAS/RTA-CAR_12.2.0/RTA-CAR/workspace/Basic_Workflow/src/mcal/VirtualCan.cpp.o
 .pdata$_ZN18Can_Virtual_Driver21SetControllerBaudrateEjPK22Can_Hwp_BaudrateConfig
                0x0000000100434ba8        0xc CMakeFiles/Basic_workflow.dir/cygdrive/c/ETAS/RTA-CAR_12.2.0/RTA-CAR/workspace/Basic_Workflow/src/mcal/VirtualCan.cpp.o
 .pdata$_ZN18Can_Virtual_Driver15StartControllerEj
                0x0000000100434bb4        0xc CMakeFiles/Basic_workflow.dir/cygdrive/c/ETAS/RTA-CAR_12.2.0/RTA-CAR/workspace/Basic_Workflow/src/mcal/VirtualCan.cpp.o
 .pdata$_ZN18Can_Virtual_Driver15SleepControllerEj
                0x0000000100434bc0        0xc CMakeFiles/Basic_workflow.dir/cygdrive/c/ETAS/RTA-CAR_12.2.0/RTA-CAR/workspace/Basic_Workflow/src/mcal/VirtualCan.cpp.o
 .pdata$_ZN18Can_Virtual_Driver14StopControllerEj
                0x0000000100434bcc        0xc CMakeFiles/Basic_workflow.dir/cygdrive/c/ETAS/RTA-CAR_12.2.0/RTA-CAR/workspace/Basic_Workflow/src/mcal/VirtualCan.cpp.o
 .pdata$_ZN18Can_Virtual_Driver22ControllerCausedWakeupEj
                0x0000000100434bd8        0xc CMakeFiles/Basic_workflow.dir/cygdrive/c/ETAS/RTA-CAR_12.2.0/RTA-CAR/workspace/Basic_Workflow/src/mcal/VirtualCan.cpp.o
 .pdata$_ZN18Can_Virtual_Driver5StateEj
                0x0000000100434be4        0xc CMakeFiles/Basic_workflow.dir/cygdrive/c/ETAS/RTA-CAR_12.2.0/RTA-CAR/workspace/Basic_Workflow/src/mcal/VirtualCan.cpp.o
 .pdata$_ZN18Can_Virtual_Driver11ForceBusOffEj
                0x0000000100434bf0        0xc CMakeFiles/Basic_workflow.dir/cygdrive/c/ETAS/RTA-CAR_12.2.0/RTA-CAR/workspace/Basic_Workflow/src/mcal/VirtualCan.cpp.o
 .pdata$_ZN18Can_Virtual_Driver11ForceWakeupEj
                0x0000000100434bfc        0xc CMakeFiles/Basic_workflow.dir/cygdrive/c/ETAS/RTA-CAR_12.2.0/RTA-CAR/workspace/Basic_Workflow/src/mcal/VirtualCan.cpp.o
 .pdata$_ZN18Can_Virtual_Driver5WriteEjtP13Can_Hwp_Frame
                0x0000000100434c08        0xc CMakeFiles/Basic_workflow.dir/cygdrive/c/ETAS/RTA-CAR_12.2.0/RTA-CAR/workspace/Basic_Workflow/src/mcal/VirtualCan.cpp.o
 .pdata$_ZN18Can_Virtual_Driver27GetControllerTxErrorCounterEhPh
                0x0000000100434c14        0xc CMakeFiles/Basic_workflow.dir/cygdrive/c/ETAS/RTA-CAR_12.2.0/RTA-CAR/workspace/Basic_Workflow/src/mcal/VirtualCan.cpp.o
 .pdata$_ZN18Can_Virtual_Driver28InjectControllerTxErrorCountEhh
                0x0000000100434c20        0xc CMakeFiles/Basic_workflow.dir/cygdrive/c/ETAS/RTA-CAR_12.2.0/RTA-CAR/workspace/Basic_Workflow/src/mcal/VirtualCan.cpp.o
 .pdata$_ZN18Can_Virtual_Driver27GetControllerRxErrorCounterEhPh
                0x0000000100434c2c        0xc CMakeFiles/Basic_workflow.dir/cygdrive/c/ETAS/RTA-CAR_12.2.0/RTA-CAR/workspace/Basic_Workflow/src/mcal/VirtualCan.cpp.o
 .pdata$_ZN18Can_Virtual_Driver28InjectControllerRxErrorCountEhh
                0x0000000100434c38        0xc CMakeFiles/Basic_workflow.dir/cygdrive/c/ETAS/RTA-CAR_12.2.0/RTA-CAR/workspace/Basic_Workflow/src/mcal/VirtualCan.cpp.o
 .pdata$_ZN18Can_Virtual_Driver11CurrentTimeEhP17Can_TimeStampTypeh
                0x0000000100434c44        0xc CMakeFiles/Basic_workflow.dir/cygdrive/c/ETAS/RTA-CAR_12.2.0/RTA-CAR/workspace/Basic_Workflow/src/mcal/VirtualCan.cpp.o
 .pdata$_ZN18Can_Virtual_Driver17InjectCurrentTimeEh17Can_TimeStampType
                0x0000000100434c50        0xc CMakeFiles/Basic_workflow.dir/cygdrive/c/ETAS/RTA-CAR_12.2.0/RTA-CAR/workspace/Basic_Workflow/src/mcal/VirtualCan.cpp.o
 .pdata$_ZN18Can_Virtual_Driver21EnableEgressTimeStampEht
                0x0000000100434c5c        0xc CMakeFiles/Basic_workflow.dir/cygdrive/c/ETAS/RTA-CAR_12.2.0/RTA-CAR/workspace/Basic_Workflow/src/mcal/VirtualCan.cpp.o
 .pdata$_ZN18Can_Virtual_Driver27InjectEnableEgressTimeStampEhth
                0x0000000100434c68        0xc CMakeFiles/Basic_workflow.dir/cygdrive/c/ETAS/RTA-CAR_12.2.0/RTA-CAR/workspace/Basic_Workflow/src/mcal/VirtualCan.cpp.o
 .pdata$_ZN18Can_Virtual_Driver18GetEgressTimeStampEhttP17Can_TimeStampType
                0x0000000100434c74        0xc CMakeFiles/Basic_workflow.dir/cygdrive/c/ETAS/RTA-CAR_12.2.0/RTA-CAR/workspace/Basic_Workflow/src/mcal/VirtualCan.cpp.o
 .pdata$_ZN18Can_Virtual_Driver21InjectEgressTimeStampEhtt17Can_TimeStampType
                0x0000000100434c80        0xc CMakeFiles/Basic_workflow.dir/cygdrive/c/ETAS/RTA-CAR_12.2.0/RTA-CAR/workspace/Basic_Workflow/src/mcal/VirtualCan.cpp.o
 .pdata$_ZN18Can_Virtual_Driver19GetIngressTimeStampEhtP17Can_TimeStampType
                0x0000000100434c8c        0xc CMakeFiles/Basic_workflow.dir/cygdrive/c/ETAS/RTA-CAR_12.2.0/RTA-CAR/workspace/Basic_Workflow/src/mcal/VirtualCan.cpp.o
 .pdata$_ZN18Can_Virtual_Driver22InjectIngressTimeStampEht17Can_TimeStampType
                0x0000000100434c98        0xc CMakeFiles/Basic_workflow.dir/cygdrive/c/ETAS/RTA-CAR_12.2.0/RTA-CAR/workspace/Basic_Workflow/src/mcal/VirtualCan.cpp.o
 .pdata$_ZN18Can_Virtual_Driver12WorkerThreadEv
                0x0000000100434ca4        0xc CMakeFiles/Basic_workflow.dir/cygdrive/c/ETAS/RTA-CAR_12.2.0/RTA-CAR/workspace/Basic_Workflow/src/mcal/VirtualCan.cpp.o
 .pdata$_ZN18Can_Virtual_Driver24EnableTransmitProcessingEjb
                0x0000000100434cb0        0xc CMakeFiles/Basic_workflow.dir/cygdrive/c/ETAS/RTA-CAR_12.2.0/RTA-CAR/workspace/Basic_Workflow/src/mcal/VirtualCan.cpp.o
 .pdata$_ZN18Can_Virtual_Driver12HandleBusOffEP22Can_Virtual_Controller
                0x0000000100434cbc        0xc CMakeFiles/Basic_workflow.dir/cygdrive/c/ETAS/RTA-CAR_12.2.0/RTA-CAR/workspace/Basic_Workflow/src/mcal/VirtualCan.cpp.o
 .pdata$_ZN18Can_Virtual_Driver12HandleWakeupEP22Can_Virtual_Controller
                0x0000000100434cc8        0xc CMakeFiles/Basic_workflow.dir/cygdrive/c/ETAS/RTA-CAR_12.2.0/RTA-CAR/workspace/Basic_Workflow/src/mcal/VirtualCan.cpp.o
 .pdata$_ZN18Can_Virtual_Driver11HandleErrorEP22Can_Virtual_Controller
                0x0000000100434cd4        0xc CMakeFiles/Basic_workflow.dir/cygdrive/c/ETAS/RTA-CAR_12.2.0/RTA-CAR/workspace/Basic_Workflow/src/mcal/VirtualCan.cpp.o
 .pdata$_ZN18Can_Virtual_Driver21ChangeControllerStateEP22Can_Virtual_Controller
                0x0000000100434ce0        0xc CMakeFiles/Basic_workflow.dir/cygdrive/c/ETAS/RTA-CAR_12.2.0/RTA-CAR/workspace/Basic_Workflow/src/mcal/VirtualCan.cpp.o
 .pdata$_ZN18Can_Virtual_Driver20ResetTransmitObjectsEP22Can_Virtual_Controller
                0x0000000100434cec        0xc CMakeFiles/Basic_workflow.dir/cygdrive/c/ETAS/RTA-CAR_12.2.0/RTA-CAR/workspace/Basic_Workflow/src/mcal/VirtualCan.cpp.o
 .pdata$_ZN18Can_Virtual_Driver14TransmitFramesEP22Can_Virtual_Controllerj
                0x0000000100434cf8        0xc CMakeFiles/Basic_workflow.dir/cygdrive/c/ETAS/RTA-CAR_12.2.0/RTA-CAR/workspace/Basic_Workflow/src/mcal/VirtualCan.cpp.o
 .pdata$_ZN18Can_Virtual_Driver12ReceiveFrameEP22Can_Virtual_ControllerS1_P13Can_Hwp_Frame
                0x0000000100434d04        0xc CMakeFiles/Basic_workflow.dir/cygdrive/c/ETAS/RTA-CAR_12.2.0/RTA-CAR/workspace/Basic_Workflow/src/mcal/VirtualCan.cpp.o
 .pdata$_ZN18Can_Virtual_Driver10SetupEventEPi
                0x0000000100434d10        0xc CMakeFiles/Basic_workflow.dir/cygdrive/c/ETAS/RTA-CAR_12.2.0/RTA-CAR/workspace/Basic_Workflow/src/mcal/VirtualCan.cpp.o
 .pdata$_ZN18Can_Virtual_Driver12WaitForEventEPi
                0x0000000100434d1c        0xc CMakeFiles/Basic_workflow.dir/cygdrive/c/ETAS/RTA-CAR_12.2.0/RTA-CAR/workspace/Basic_Workflow/src/mcal/VirtualCan.cpp.o
 .pdata$_ZN18Can_Virtual_Driver9SendEventEPi
                0x0000000100434d28        0xc CMakeFiles/Basic_workflow.dir/cygdrive/c/ETAS/RTA-CAR_12.2.0/RTA-CAR/workspace/Basic_Workflow/src/mcal/VirtualCan.cpp.o
 .pdata         0x0000000100434d34       0x30 CMakeFiles/Basic_workflow.dir/cygdrive/c/ETAS/RTA-CAR_12.2.0/RTA-CAR/workspace/Basic_Workflow/src/mcal/VirtualCan.cpp.o
 .pdata$_ZN13Can_VirtualHwC1EPFvj13Can_Hwp_EventtP13Can_Hwp_FrameEjj
                0x0000000100434d64        0xc CMakeFiles/Basic_workflow.dir/cygdrive/c/ETAS/RTA-CAR_12.2.0/RTA-CAR/workspace/Basic_Workflow/src/mcal/VirtualCan.cpp.o
 .pdata$_ZN13Can_VirtualHw9ConfigureEPK21Can_Hwp_ChannelConfig
                0x0000000100434d70        0xc CMakeFiles/Basic_workflow.dir/cygdrive/c/ETAS/RTA-CAR_12.2.0/RTA-CAR/workspace/Basic_Workflow/src/mcal/VirtualCan.cpp.o
 .pdata$_ZN13Can_VirtualHw11SetBaudrateEPK22Can_Hwp_BaudrateConfig
                0x0000000100434d7c        0xc CMakeFiles/Basic_workflow.dir/cygdrive/c/ETAS/RTA-CAR_12.2.0/RTA-CAR/workspace/Basic_Workflow/src/mcal/VirtualCan.cpp.o
 .pdata$_ZN13Can_VirtualHw5StartEv
                0x0000000100434d88        0xc CMakeFiles/Basic_workflow.dir/cygdrive/c/ETAS/RTA-CAR_12.2.0/RTA-CAR/workspace/Basic_Workflow/src/mcal/VirtualCan.cpp.o
 .pdata$_ZN13Can_VirtualHw5SleepEv
                0x0000000100434d94        0xc CMakeFiles/Basic_workflow.dir/cygdrive/c/ETAS/RTA-CAR_12.2.0/RTA-CAR/workspace/Basic_Workflow/src/mcal/VirtualCan.cpp.o
 .pdata$_ZN13Can_VirtualHw4StopEv
                0x0000000100434da0        0xc CMakeFiles/Basic_workflow.dir/cygdrive/c/ETAS/RTA-CAR_12.2.0/RTA-CAR/workspace/Basic_Workflow/src/mcal/VirtualCan.cpp.o
 .pdata$_ZN13Can_VirtualHw5WriteEtP13Can_Hwp_Frame
                0x0000000100434dac        0xc CMakeFiles/Basic_workflow.dir/cygdrive/c/ETAS/RTA-CAR_12.2.0/RTA-CAR/workspace/Basic_Workflow/src/mcal/VirtualCan.cpp.o
 .pdata$_ZN13Can_VirtualHw12CausedWakeupEv
                0x0000000100434db8        0xc CMakeFiles/Basic_workflow.dir/cygdrive/c/ETAS/RTA-CAR_12.2.0/RTA-CAR/workspace/Basic_Workflow/src/mcal/VirtualCan.cpp.o
 .pdata$_ZN13Can_VirtualHw5StateEv
                0x0000000100434dc4        0xc CMakeFiles/Basic_workflow.dir/cygdrive/c/ETAS/RTA-CAR_12.2.0/RTA-CAR/workspace/Basic_Workflow/src/mcal/VirtualCan.cpp.o
 .pdata$_ZN13Can_VirtualHw11ForceBusOffEv
                0x0000000100434dd0        0xc CMakeFiles/Basic_workflow.dir/cygdrive/c/ETAS/RTA-CAR_12.2.0/RTA-CAR/workspace/Basic_Workflow/src/mcal/VirtualCan.cpp.o
 .pdata$_ZN13Can_VirtualHw11ForceWakeupEv
                0x0000000100434ddc        0xc CMakeFiles/Basic_workflow.dir/cygdrive/c/ETAS/RTA-CAR_12.2.0/RTA-CAR/workspace/Basic_Workflow/src/mcal/VirtualCan.cpp.o
 .pdata$_ZN13Can_VirtualHw24EnableTransmitProcessingEb
                0x0000000100434de8        0xc CMakeFiles/Basic_workflow.dir/cygdrive/c/ETAS/RTA-CAR_12.2.0/RTA-CAR/workspace/Basic_Workflow/src/mcal/VirtualCan.cpp.o
 .pdata$_ZN13Can_VirtualHw6DeInitEv
                0x0000000100434df4        0xc CMakeFiles/Basic_workflow.dir/cygdrive/c/ETAS/RTA-CAR_12.2.0/RTA-CAR/workspace/Basic_Workflow/src/mcal/VirtualCan.cpp.o
 .pdata$_ZN13Can_VirtualHw27GetControllerRxErrorCounterEPh
                0x0000000100434e00        0xc CMakeFiles/Basic_workflow.dir/cygdrive/c/ETAS/RTA-CAR_12.2.0/RTA-CAR/workspace/Basic_Workflow/src/mcal/VirtualCan.cpp.o
 .pdata$_ZN13Can_VirtualHw28InjectControllerRxErrorCountEh
                0x0000000100434e0c        0xc CMakeFiles/Basic_workflow.dir/cygdrive/c/ETAS/RTA-CAR_12.2.0/RTA-CAR/workspace/Basic_Workflow/src/mcal/VirtualCan.cpp.o
 .pdata$_ZN13Can_VirtualHw27GetControllerTxErrorCounterEPh
                0x0000000100434e18        0xc CMakeFiles/Basic_workflow.dir/cygdrive/c/ETAS/RTA-CAR_12.2.0/RTA-CAR/workspace/Basic_Workflow/src/mcal/VirtualCan.cpp.o
 .pdata$_ZN13Can_VirtualHw28InjectControllerTxErrorCountEh
                0x0000000100434e24        0xc CMakeFiles/Basic_workflow.dir/cygdrive/c/ETAS/RTA-CAR_12.2.0/RTA-CAR/workspace/Basic_Workflow/src/mcal/VirtualCan.cpp.o
 .pdata$_ZN13Can_VirtualHw15ReadCurrentTimeEP17Can_TimeStampTypeh
                0x0000000100434e30        0xc CMakeFiles/Basic_workflow.dir/cygdrive/c/ETAS/RTA-CAR_12.2.0/RTA-CAR/workspace/Basic_Workflow/src/mcal/VirtualCan.cpp.o
 .pdata$_ZN13Can_VirtualHw17InjectCurrentTimeE17Can_TimeStampType
                0x0000000100434e3c        0xc CMakeFiles/Basic_workflow.dir/cygdrive/c/ETAS/RTA-CAR_12.2.0/RTA-CAR/workspace/Basic_Workflow/src/mcal/VirtualCan.cpp.o
 .pdata$_ZN13Can_VirtualHw21EnableEgressTimeStampEt
                0x0000000100434e48        0xc CMakeFiles/Basic_workflow.dir/cygdrive/c/ETAS/RTA-CAR_12.2.0/RTA-CAR/workspace/Basic_Workflow/src/mcal/VirtualCan.cpp.o
 .pdata$_ZN13Can_VirtualHw27InjectEnableEgressTimeStampEth
                0x0000000100434e54        0xc CMakeFiles/Basic_workflow.dir/cygdrive/c/ETAS/RTA-CAR_12.2.0/RTA-CAR/workspace/Basic_Workflow/src/mcal/VirtualCan.cpp.o
 .pdata$_ZN13Can_VirtualHw18GetEgressTimeStampEttP17Can_TimeStampType
                0x0000000100434e60        0xc CMakeFiles/Basic_workflow.dir/cygdrive/c/ETAS/RTA-CAR_12.2.0/RTA-CAR/workspace/Basic_Workflow/src/mcal/VirtualCan.cpp.o
 .pdata$_ZN13Can_VirtualHw21InjectEgressTimeStampEtt17Can_TimeStampType
                0x0000000100434e6c        0xc CMakeFiles/Basic_workflow.dir/cygdrive/c/ETAS/RTA-CAR_12.2.0/RTA-CAR/workspace/Basic_Workflow/src/mcal/VirtualCan.cpp.o
 .pdata$_ZN13Can_VirtualHw19GetIngressTimeStampEtP17Can_TimeStampType
                0x0000000100434e78        0xc CMakeFiles/Basic_workflow.dir/cygdrive/c/ETAS/RTA-CAR_12.2.0/RTA-CAR/workspace/Basic_Workflow/src/mcal/VirtualCan.cpp.o
 .pdata$_ZN13Can_VirtualHw22InjectIngressTimeStampEt17Can_TimeStampType
                0x0000000100434e84        0xc CMakeFiles/Basic_workflow.dir/cygdrive/c/ETAS/RTA-CAR_12.2.0/RTA-CAR/workspace/Basic_Workflow/src/mcal/VirtualCan.cpp.o
 .pdata$_ZN22Can_Virtual_HwProvider14IsHardwareHereEj
                0x0000000100434e90        0xc CMakeFiles/Basic_workflow.dir/cygdrive/c/ETAS/RTA-CAR_12.2.0/RTA-CAR/workspace/Basic_Workflow/src/mcal/VirtualCan.cpp.o
 .pdata$_ZN22Can_Virtual_HwProvider17IsHardwarePresentEj
                0x0000000100434e9c        0xc CMakeFiles/Basic_workflow.dir/cygdrive/c/ETAS/RTA-CAR_12.2.0/RTA-CAR/workspace/Basic_Workflow/src/mcal/VirtualCan.cpp.o
 .pdata$_ZN22Can_Virtual_HwProvider11GetHardwareEPFvj13Can_Hwp_EventtP13Can_Hwp_FrameEjj
                0x0000000100434ea8        0xc CMakeFiles/Basic_workflow.dir/cygdrive/c/ETAS/RTA-CAR_12.2.0/RTA-CAR/workspace/Basic_Workflow/src/mcal/VirtualCan.cpp.o
 .pdata$_ZN14Can_HwProviderD2Ev
                0x0000000100434eb4        0xc CMakeFiles/Basic_workflow.dir/cygdrive/c/ETAS/RTA-CAR_12.2.0/RTA-CAR/workspace/Basic_Workflow/src/mcal/VirtualCan.cpp.o
 .pdata$_ZN22Can_Virtual_HwProviderD1Ev
                0x0000000100434ec0        0xc CMakeFiles/Basic_workflow.dir/cygdrive/c/ETAS/RTA-CAR_12.2.0/RTA-CAR/workspace/Basic_Workflow/src/mcal/VirtualCan.cpp.o
 .pdata$_ZN22Can_Virtual_HwProviderD0Ev
                0x0000000100434ecc        0xc CMakeFiles/Basic_workflow.dir/cygdrive/c/ETAS/RTA-CAR_12.2.0/RTA-CAR/workspace/Basic_Workflow/src/mcal/VirtualCan.cpp.o
 .pdata$_ZN13Can_VirtualHwD1Ev
                0x0000000100434ed8        0xc CMakeFiles/Basic_workflow.dir/cygdrive/c/ETAS/RTA-CAR_12.2.0/RTA-CAR/workspace/Basic_Workflow/src/mcal/VirtualCan.cpp.o
 .pdata$_ZN13Can_VirtualHwD0Ev
                0x0000000100434ee4        0xc CMakeFiles/Basic_workflow.dir/cygdrive/c/ETAS/RTA-CAR_12.2.0/RTA-CAR/workspace/Basic_Workflow/src/mcal/VirtualCan.cpp.o
 .pdata$_ZN14vrtaComparable5ValueEv
                0x0000000100434ef0        0xc CMakeFiles/Basic_workflow.dir/cygdrive/c/ETAS/RTA-CAR_12.2.0/RTA-CAR/workspace/Basic_Workflow/src/vrta/VRTA_SystemClock.cpp.o
 .pdata$_ZN13vrtaUpCounterC1EPcR13vrtaBaseClock
                0x0000000100434efc        0xc CMakeFiles/Basic_workflow.dir/cygdrive/c/ETAS/RTA-CAR_12.2.0/RTA-CAR/workspace/Basic_Workflow/src/vrta/VRTA_SystemClock.cpp.o
 .pdata         0x0000000100434f08       0x3c CMakeFiles/Basic_workflow.dir/cygdrive/c/ETAS/RTA-CAR_12.2.0/RTA-CAR/workspace/Basic_Workflow/src/vrta/VRTA_SystemClock.cpp.o
 .pdata$_ZN9vrtaClockD1Ev
                0x0000000100434f44        0xc CMakeFiles/Basic_workflow.dir/cygdrive/c/ETAS/RTA-CAR_12.2.0/RTA-CAR/workspace/Basic_Workflow/src/vrta/VRTA_SystemClock.cpp.o
 .pdata         0x0000000100434f50       0x60 CMakeFiles/Basic_workflow.dir/cygdrive/c/ETAS/RTA-CAR_12.2.0/RTA-CAR/workspace/Basic_Workflow/src/vrta/Vrta_Cfg.cpp.o
 .pdata         0x0000000100434fb0       0x30 CMakeFiles/Basic_workflow.dir/cygdrive/c/ETAS/RTA-CAR_12.2.0/RTA-CAR/workspace/Basic_Workflow/src/vrta/target.cpp.o
 .pdata$_ZNK10__cxxabiv117__class_type_info11__do_upcastEPKS0_PPv
                0x0000000100434fe0        0xc /usr/lib/gcc/x86_64-pc-cygwin/11/libstdc++.a(class_type_info.o)
 .pdata$_ZNK10__cxxabiv117__class_type_info20__do_find_public_srcElPKvPKS0_S2_
                0x0000000100434fec        0xc /usr/lib/gcc/x86_64-pc-cygwin/11/libstdc++.a(class_type_info.o)
 .pdata$_ZN10__cxxabiv117__class_type_infoD2Ev
                0x0000000100434ff8        0xc /usr/lib/gcc/x86_64-pc-cygwin/11/libstdc++.a(class_type_info.o)
 .pdata$_ZN10__cxxabiv117__class_type_infoD0Ev
                0x0000000100435004        0xc /usr/lib/gcc/x86_64-pc-cygwin/11/libstdc++.a(class_type_info.o)
 .pdata$_ZNK10__cxxabiv117__class_type_info12__do_dyncastElNS0_10__sub_kindEPKS0_PKvS3_S5_RNS0_16__dyncast_resultE
                0x0000000100435010        0xc /usr/lib/gcc/x86_64-pc-cygwin/11/libstdc++.a(class_type_info.o)
 .pdata$_ZNK10__cxxabiv117__class_type_info11__do_upcastEPKS0_PKvRNS0_15__upcast_resultE
                0x000000010043501c        0xc /usr/lib/gcc/x86_64-pc-cygwin/11/libstdc++.a(class_type_info.o)
 .pdata$_ZNK10__cxxabiv117__class_type_info10__do_catchEPKSt9type_infoPPvj
                0x0000000100435028        0xc /usr/lib/gcc/x86_64-pc-cygwin/11/libstdc++.a(class_type_info.o)
 .pdata$_ZdlPvm
                0x0000000100435034        0xc /usr/lib/gcc/x86_64-pc-cygwin/11/libstdc++.a(del_ops.o)
 .pdata$_ZdaPv  0x0000000100435040        0xc /usr/lib/gcc/x86_64-pc-cygwin/11/libstdc++.a(del_opv.o)
 .pdata$_ZdaPvm
                0x000000010043504c        0xc /usr/lib/gcc/x86_64-pc-cygwin/11/libstdc++.a(del_opvs.o)
 .pdata.unlikely.__cxa_bad_cast
                0x0000000100435058        0xc /usr/lib/gcc/x86_64-pc-cygwin/11/libstdc++.a(eh_aux_runtime.o)
 .pdata.unlikely.__cxa_bad_typeid
                0x0000000100435064        0xc /usr/lib/gcc/x86_64-pc-cygwin/11/libstdc++.a(eh_aux_runtime.o)
 .pdata.unlikely.__cxa_throw_bad_array_new_length
                0x0000000100435070        0xc /usr/lib/gcc/x86_64-pc-cygwin/11/libstdc++.a(eh_aux_runtime.o)
 .pdata$_ZL16get_adjusted_ptrPKSt9type_infoS1_PPv
                0x000000010043507c        0xc /usr/lib/gcc/x86_64-pc-cygwin/11/libstdc++.a(eh_personality.o)
 .pdata$_ZL21base_of_encoded_valuehP15_Unwind_Context
                0x0000000100435088        0xc /usr/lib/gcc/x86_64-pc-cygwin/11/libstdc++.a(eh_personality.o)
 .pdata$_ZL28read_encoded_value_with_basehmPKhPm
                0x0000000100435094        0xc /usr/lib/gcc/x86_64-pc-cygwin/11/libstdc++.a(eh_personality.o)
 .pdata$_ZL20check_exception_specP16lsda_header_infoPKSt9type_infoPvl
                0x00000001004350a0        0xc /usr/lib/gcc/x86_64-pc-cygwin/11/libstdc++.a(eh_personality.o)
 .pdata$_ZL17parse_lsda_headerP15_Unwind_ContextPKhP16lsda_header_info
                0x00000001004350ac        0xc /usr/lib/gcc/x86_64-pc-cygwin/11/libstdc++.a(eh_personality.o)
 .pdata$_ZN10__cxxabiv1L21__gxx_personality_impEiimP17_Unwind_ExceptionP15_Unwind_Context
                0x00000001004350b8        0xc /usr/lib/gcc/x86_64-pc-cygwin/11/libstdc++.a(eh_personality.o)
 .pdata$__cxa_call_unexpected
                0x00000001004350c4        0xc /usr/lib/gcc/x86_64-pc-cygwin/11/libstdc++.a(eh_personality.o)
 .pdata$__gxx_personality_seh0
                0x00000001004350d0        0xc /usr/lib/gcc/x86_64-pc-cygwin/11/libstdc++.a(eh_personality.o)
 .pdata$_ZN10__cxxabiv111__terminateEPFvvE
                0x00000001004350dc        0xc /usr/lib/gcc/x86_64-pc-cygwin/11/libstdc++.a(eh_terminate.o)
 .pdata$_ZSt9terminatev
                0x00000001004350e8        0xc /usr/lib/gcc/x86_64-pc-cygwin/11/libstdc++.a(eh_terminate.o)
 .pdata$_ZN10__cxxabiv112__unexpectedEPFvvE
                0x00000001004350f4        0xc /usr/lib/gcc/x86_64-pc-cygwin/11/libstdc++.a(eh_terminate.o)
 .pdata$_ZSt10unexpectedv
                0x0000000100435100        0xc /usr/lib/gcc/x86_64-pc-cygwin/11/libstdc++.a(eh_terminate.o)
 .pdata$_ZSt13set_terminatePFvvE
                0x000000010043510c        0xc /usr/lib/gcc/x86_64-pc-cygwin/11/libstdc++.a(eh_terminate.o)
 .pdata$_ZSt13get_terminatev
                0x0000000100435118        0xc /usr/lib/gcc/x86_64-pc-cygwin/11/libstdc++.a(eh_terminate.o)
 .pdata$_ZSt14set_unexpectedPFvvE
                0x0000000100435124        0xc /usr/lib/gcc/x86_64-pc-cygwin/11/libstdc++.a(eh_terminate.o)
 .pdata$_ZSt14get_unexpectedv
                0x0000000100435130        0xc /usr/lib/gcc/x86_64-pc-cygwin/11/libstdc++.a(eh_terminate.o)
 .pdata$_ZL23__gxx_exception_cleanup19_Unwind_Reason_CodeP17_Unwind_Exception
                0x000000010043513c        0xc /usr/lib/gcc/x86_64-pc-cygwin/11/libstdc++.a(eh_throw.o)
 .pdata$__cxa_init_primary_exception
                0x0000000100435148        0xc /usr/lib/gcc/x86_64-pc-cygwin/11/libstdc++.a(eh_throw.o)
 .pdata$__cxa_throw
                0x0000000100435154        0xc /usr/lib/gcc/x86_64-pc-cygwin/11/libstdc++.a(eh_throw.o)
 .pdata$__cxa_rethrow
                0x0000000100435160        0xc /usr/lib/gcc/x86_64-pc-cygwin/11/libstdc++.a(eh_throw.o)
 .pdata$_Znwm   0x000000010043516c        0xc /usr/lib/gcc/x86_64-pc-cygwin/11/libstdc++.a(new_op.o)
 .pdata$_Znam   0x0000000100435178        0xc /usr/lib/gcc/x86_64-pc-cygwin/11/libstdc++.a(new_opv.o)
 .pdata$_ZN10__cxxabiv120__si_class_type_infoD2Ev
                0x0000000100435184        0xc /usr/lib/gcc/x86_64-pc-cygwin/11/libstdc++.a(si_class_type_info.o)
 .pdata$_ZN10__cxxabiv120__si_class_type_infoD0Ev
                0x0000000100435190        0xc /usr/lib/gcc/x86_64-pc-cygwin/11/libstdc++.a(si_class_type_info.o)
 .pdata$_ZNK10__cxxabiv120__si_class_type_info20__do_find_public_srcElPKvPKNS_17__class_type_infoES2_
                0x000000010043519c        0xc /usr/lib/gcc/x86_64-pc-cygwin/11/libstdc++.a(si_class_type_info.o)
 .pdata$_ZNK10__cxxabiv120__si_class_type_info12__do_dyncastElNS_17__class_type_info10__sub_kindEPKS1_PKvS4_S6_RNS1_16__dyncast_resultE
                0x00000001004351a8        0xc /usr/lib/gcc/x86_64-pc-cygwin/11/libstdc++.a(si_class_type_info.o)
 .pdata$_ZNK10__cxxabiv120__si_class_type_info11__do_upcastEPKNS_17__class_type_infoEPKvRNS1_15__upcast_resultE
                0x00000001004351b4        0xc /usr/lib/gcc/x86_64-pc-cygwin/11/libstdc++.a(si_class_type_info.o)
 .pdata$_ZNSt9type_infoD2Ev
                0x00000001004351c0        0xc /usr/lib/gcc/x86_64-pc-cygwin/11/libstdc++.a(tinfo.o)
 .pdata$_ZNKSt9type_info14__is_pointer_pEv
                0x00000001004351cc        0xc /usr/lib/gcc/x86_64-pc-cygwin/11/libstdc++.a(tinfo.o)
 .pdata$_ZNKSt9type_info11__do_upcastEPKN10__cxxabiv117__class_type_infoEPPv
                0x00000001004351d8        0xc /usr/lib/gcc/x86_64-pc-cygwin/11/libstdc++.a(tinfo.o)
 .pdata$_ZNSt9type_infoD0Ev
                0x00000001004351e4        0xc /usr/lib/gcc/x86_64-pc-cygwin/11/libstdc++.a(tinfo.o)
 .pdata$_ZNKSt9type_info10__do_catchEPKS_PPvj
                0x00000001004351f0        0xc /usr/lib/gcc/x86_64-pc-cygwin/11/libstdc++.a(tinfo.o)
 .pdata$_ZNKSt9type_infoeqERKS_
                0x00000001004351fc        0xc /usr/lib/gcc/x86_64-pc-cygwin/11/libstdc++.a(tinfo.o)
 .pdata$_ZN9__gnu_cxx27__verbose_terminate_handlerEv
                0x0000000100435208        0xc /usr/lib/gcc/x86_64-pc-cygwin/11/libstdc++.a(vterminate.o)
 .pdata$_ZNKSt9bad_alloc4whatEv
                0x0000000100435214        0xc /usr/lib/gcc/x86_64-pc-cygwin/11/libstdc++.a(bad_alloc.o)
 .pdata$_ZNSt9bad_allocD2Ev
                0x0000000100435220        0xc /usr/lib/gcc/x86_64-pc-cygwin/11/libstdc++.a(bad_alloc.o)
 .pdata$_ZNSt9bad_allocD0Ev
                0x000000010043522c        0xc /usr/lib/gcc/x86_64-pc-cygwin/11/libstdc++.a(bad_alloc.o)
 .pdata$_ZNKSt20bad_array_new_length4whatEv
                0x0000000100435238        0xc /usr/lib/gcc/x86_64-pc-cygwin/11/libstdc++.a(bad_array_new.o)
 .pdata$_ZNSt20bad_array_new_lengthD2Ev
                0x0000000100435244        0xc /usr/lib/gcc/x86_64-pc-cygwin/11/libstdc++.a(bad_array_new.o)
 .pdata$_ZNSt20bad_array_new_lengthD0Ev
                0x0000000100435250        0xc /usr/lib/gcc/x86_64-pc-cygwin/11/libstdc++.a(bad_array_new.o)
 .pdata$_ZNKSt8bad_cast4whatEv
                0x000000010043525c        0xc /usr/lib/gcc/x86_64-pc-cygwin/11/libstdc++.a(bad_cast.o)
 .pdata$_ZNSt8bad_castD2Ev
                0x0000000100435268        0xc /usr/lib/gcc/x86_64-pc-cygwin/11/libstdc++.a(bad_cast.o)
 .pdata$_ZNSt8bad_castD0Ev
                0x0000000100435274        0xc /usr/lib/gcc/x86_64-pc-cygwin/11/libstdc++.a(bad_cast.o)
 .pdata$_ZNKSt10bad_typeid4whatEv
                0x0000000100435280        0xc /usr/lib/gcc/x86_64-pc-cygwin/11/libstdc++.a(bad_typeid.o)
 .pdata$_ZNSt10bad_typeidD2Ev
                0x000000010043528c        0xc /usr/lib/gcc/x86_64-pc-cygwin/11/libstdc++.a(bad_typeid.o)
 .pdata$_ZNSt10bad_typeidD0Ev
                0x0000000100435298        0xc /usr/lib/gcc/x86_64-pc-cygwin/11/libstdc++.a(bad_typeid.o)
 .pdata         0x00000001004352a4      0x234 /usr/lib/gcc/x86_64-pc-cygwin/11/libstdc++.a(cp-demangle.o)
 .pdata.unlikely
                0x00000001004354d8        0xc /usr/lib/gcc/x86_64-pc-cygwin/11/libstdc++.a(cp-demangle.o)
 .pdata$_ZdlPv  0x00000001004354e4        0xc /usr/lib/gcc/x86_64-pc-cygwin/11/libstdc++.a(del_op.o)
 .pdata$_ZNK9__gnu_cxx24__concurrence_lock_error4whatEv
                0x00000001004354f0        0xc /usr/lib/gcc/x86_64-pc-cygwin/11/libstdc++.a(eh_alloc.o)
 .pdata$_ZNK9__gnu_cxx26__concurrence_unlock_error4whatEv
                0x00000001004354fc        0xc /usr/lib/gcc/x86_64-pc-cygwin/11/libstdc++.a(eh_alloc.o)
 .pdata$_ZN9__gnu_cxx24__concurrence_lock_errorD1Ev
                0x0000000100435508        0xc /usr/lib/gcc/x86_64-pc-cygwin/11/libstdc++.a(eh_alloc.o)
 .pdata$_ZN9__gnu_cxx26__concurrence_unlock_errorD1Ev
                0x0000000100435514        0xc /usr/lib/gcc/x86_64-pc-cygwin/11/libstdc++.a(eh_alloc.o)
 .pdata$_ZN9__gnu_cxx24__concurrence_lock_errorD0Ev
                0x0000000100435520        0xc /usr/lib/gcc/x86_64-pc-cygwin/11/libstdc++.a(eh_alloc.o)
 .pdata$_ZN9__gnu_cxx26__concurrence_unlock_errorD0Ev
                0x000000010043552c        0xc /usr/lib/gcc/x86_64-pc-cygwin/11/libstdc++.a(eh_alloc.o)
 .pdata$_ZN9__gnu_cxx30__throw_concurrence_lock_errorEv
                0x0000000100435538        0xc /usr/lib/gcc/x86_64-pc-cygwin/11/libstdc++.a(eh_alloc.o)
 .pdata$_ZN9__gnu_cxx32__throw_concurrence_unlock_errorEv
                0x0000000100435544        0xc /usr/lib/gcc/x86_64-pc-cygwin/11/libstdc++.a(eh_alloc.o)
 .pdata$_ZN12_GLOBAL__N_14pool4freeEPv.constprop.0
                0x0000000100435550        0xc /usr/lib/gcc/x86_64-pc-cygwin/11/libstdc++.a(eh_alloc.o)
 .pdata$_ZN12_GLOBAL__N_14pool8allocateEm.constprop.0
                0x000000010043555c        0xc /usr/lib/gcc/x86_64-pc-cygwin/11/libstdc++.a(eh_alloc.o)
 .pdata$_ZN9__gnu_cxx9__freeresEv
                0x0000000100435568        0xc /usr/lib/gcc/x86_64-pc-cygwin/11/libstdc++.a(eh_alloc.o)
 .pdata$__cxa_allocate_exception
                0x0000000100435574        0xc /usr/lib/gcc/x86_64-pc-cygwin/11/libstdc++.a(eh_alloc.o)
 .pdata$__cxa_free_exception
                0x0000000100435580        0xc /usr/lib/gcc/x86_64-pc-cygwin/11/libstdc++.a(eh_alloc.o)
 .pdata$__cxa_allocate_dependent_exception
                0x000000010043558c        0xc /usr/lib/gcc/x86_64-pc-cygwin/11/libstdc++.a(eh_alloc.o)
 .pdata$__cxa_free_dependent_exception
                0x0000000100435598        0xc /usr/lib/gcc/x86_64-pc-cygwin/11/libstdc++.a(eh_alloc.o)
 .pdata.startup._GLOBAL__sub_I__ZN9__gnu_cxx9__freeresEv
                0x00000001004355a4        0xc /usr/lib/gcc/x86_64-pc-cygwin/11/libstdc++.a(eh_alloc.o)
 .pdata$__cxa_call_terminate
                0x00000001004355b0        0xc /usr/lib/gcc/x86_64-pc-cygwin/11/libstdc++.a(eh_call.o)
 .pdata$__cxa_get_exception_ptr
                0x00000001004355bc        0xc /usr/lib/gcc/x86_64-pc-cygwin/11/libstdc++.a(eh_catch.o)
 .pdata$__cxa_begin_catch
                0x00000001004355c8        0xc /usr/lib/gcc/x86_64-pc-cygwin/11/libstdc++.a(eh_catch.o)
 .pdata$__cxa_end_catch
                0x00000001004355d4        0xc /usr/lib/gcc/x86_64-pc-cygwin/11/libstdc++.a(eh_catch.o)
 .pdata$_ZSt18uncaught_exceptionv
                0x00000001004355e0        0xc /usr/lib/gcc/x86_64-pc-cygwin/11/libstdc++.a(eh_catch.o)
 .pdata$_ZSt19uncaught_exceptionsv
                0x00000001004355ec        0xc /usr/lib/gcc/x86_64-pc-cygwin/11/libstdc++.a(eh_catch.o)
 .pdata$_ZNSt9exceptionD2Ev
                0x00000001004355f8        0xc /usr/lib/gcc/x86_64-pc-cygwin/11/libstdc++.a(eh_exception.o)
 .pdata$_ZNSt13bad_exceptionD2Ev
                0x0000000100435604        0xc /usr/lib/gcc/x86_64-pc-cygwin/11/libstdc++.a(eh_exception.o)
 .pdata$_ZNKSt9exception4whatEv
                0x0000000100435610        0xc /usr/lib/gcc/x86_64-pc-cygwin/11/libstdc++.a(eh_exception.o)
 .pdata$_ZNKSt13bad_exception4whatEv
                0x000000010043561c        0xc /usr/lib/gcc/x86_64-pc-cygwin/11/libstdc++.a(eh_exception.o)
 .pdata$_ZNSt9exceptionD0Ev
                0x0000000100435628        0xc /usr/lib/gcc/x86_64-pc-cygwin/11/libstdc++.a(eh_exception.o)
 .pdata$_ZNSt13bad_exceptionD0Ev
                0x0000000100435634        0xc /usr/lib/gcc/x86_64-pc-cygwin/11/libstdc++.a(eh_exception.o)
 .pdata$_ZN10__cxxabiv115__forced_unwindD2Ev
                0x0000000100435640        0xc /usr/lib/gcc/x86_64-pc-cygwin/11/libstdc++.a(eh_exception.o)
 .pdata$_ZN10__cxxabiv115__forced_unwindD0Ev
                0x000000010043564c        0xc /usr/lib/gcc/x86_64-pc-cygwin/11/libstdc++.a(eh_exception.o)
 .pdata$_ZN10__cxxabiv119__foreign_exceptionD2Ev
                0x0000000100435658        0xc /usr/lib/gcc/x86_64-pc-cygwin/11/libstdc++.a(eh_exception.o)
 .pdata$_ZN10__cxxabiv119__foreign_exceptionD0Ev
                0x0000000100435664        0xc /usr/lib/gcc/x86_64-pc-cygwin/11/libstdc++.a(eh_exception.o)
 .pdata$_ZGTtNKSt9exceptionD1Ev
                0x0000000100435670        0xc /usr/lib/gcc/x86_64-pc-cygwin/11/libstdc++.a(eh_exception.o)
 .pdata$_ZGTtNKSt13bad_exceptionD1Ev
                0x000000010043567c        0xc /usr/lib/gcc/x86_64-pc-cygwin/11/libstdc++.a(eh_exception.o)
 .pdata$__cxa_get_globals_fast
                0x0000000100435688        0xc /usr/lib/gcc/x86_64-pc-cygwin/11/libstdc++.a(eh_globals.o)
 .pdata$__cxa_get_globals
                0x0000000100435694        0xc /usr/lib/gcc/x86_64-pc-cygwin/11/libstdc++.a(eh_globals.o)
 .pdata$__cxa_current_exception_type
                0x00000001004356a0        0xc /usr/lib/gcc/x86_64-pc-cygwin/11/libstdc++.a(eh_type.o)
 .pdata$_ZSt15set_new_handlerPFvvE
                0x00000001004356ac        0xc /usr/lib/gcc/x86_64-pc-cygwin/11/libstdc++.a(new_handler.o)
 .pdata$_ZSt15get_new_handlerv
                0x00000001004356b8        0xc /usr/lib/gcc/x86_64-pc-cygwin/11/libstdc++.a(new_handler.o)
 .pdata         0x00000001004356c4       0xe4 /usr/lib/gcc/x86_64-pc-cygwin/11/libgcc_eh.a(unwind-seh.o)
 .pdata         0x00000001004357a8       0x30 /usr/lib/gcc/x86_64-pc-cygwin/11/libgcc_eh.a(emutls.o)
 .pdata         0x00000001004357d8        0xc /usr/lib/gcc/x86_64-pc-cygwin/11/../../../../lib/libcygwin.a(atexit.o)
 .pdata         0x00000001004357e4        0xc /usr/lib/gcc/x86_64-pc-cygwin/11/../../../../lib/libcygwin.a(cygwin_crt0.o)
 .pdata.startup
                0x00000001004357f0        0xc /usr/lib/gcc/x86_64-pc-cygwin/11/../../../../lib/libcygwin.a(libcmain.o)
 .pdata         0x00000001004357fc        0xc /usr/lib/gcc/x86_64-pc-cygwin/11/../../../../lib/libcygwin.a(premain0.o)
 .pdata         0x0000000100435808        0xc /usr/lib/gcc/x86_64-pc-cygwin/11/../../../../lib/libcygwin.a(premain1.o)
 .pdata         0x0000000100435814        0xc /usr/lib/gcc/x86_64-pc-cygwin/11/../../../../lib/libcygwin.a(premain2.o)
 .pdata         0x0000000100435820        0xc /usr/lib/gcc/x86_64-pc-cygwin/11/../../../../lib/libcygwin.a(premain3.o)
 .pdata         0x000000010043582c        0xc /usr/lib/gcc/x86_64-pc-cygwin/11/../../../../lib/libcygwin.a(_cygwin_crt0_common.o)
 .pdata         0x0000000100435838       0x18 /usr/lib/gcc/x86_64-pc-cygwin/11/../../../../lib/libcygwin.a(dll_entry.o)
 .pdata         0x0000000100435850        0xc /usr/lib/gcc/x86_64-pc-cygwin/11/../../../../lib/libcygwin.a(dll_main.o)
 .pdata         0x000000010043585c        0xc /usr/lib/gcc/x86_64-pc-cygwin/11/../../../../lib/libcygwin.a(pseudo-reloc-dummy.o)
 .pdata         0x0000000100435868        0xc /usr/lib/gcc/x86_64-pc-cygwin/11/../../../../lib/libcygwin.a(cygwin_attach_dll.o)
 .pdata.startup
                0x0000000100435874        0xc /usr/lib/gcc/x86_64-pc-cygwin/11/crtend.o

.xdata          0x0000000100436000     0x2600
 *(.xdata*)
 .xdata         0x0000000100436000        0x8 /usr/lib/gcc/x86_64-pc-cygwin/11/../../../../lib/crt0.o
 .xdata         0x0000000100436008        0x8 /usr/lib/gcc/x86_64-pc-cygwin/11/crtbegin.o
 .xdata         0x0000000100436010      0x2d4 CMakeFiles/Basic_workflow.dir/Unity/unity_4_c.c.o
 .xdata         0x00000001004362e4      0x194 CMakeFiles/Basic_workflow.dir/Unity/unity_3_c.c.o
 .xdata         0x0000000100436478      0x16c CMakeFiles/Basic_workflow.dir/Unity/unity_2_c.c.o
 .xdata         0x00000001004365e4      0x240 CMakeFiles/Basic_workflow.dir/Unity/unity_1_c.c.o
 .xdata         0x0000000100436824      0x430 CMakeFiles/Basic_workflow.dir/Unity/unity_0_c.c.o
 .xdata         0x0000000100436c54        0xc CMakeFiles/Basic_workflow.dir/cygdrive/c/ETAS/RTA-CAR_12.2.0/RTA-CAR/workspace/Basic_Workflow/src/asw/MySWC.c.o
 .xdata         0x0000000100436c60       0x30 CMakeFiles/Basic_workflow.dir/cygdrive/c/ETAS/RTA-CAR_12.2.0/RTA-CAR/workspace/Basic_Workflow/src/bsw/Det/src/Det.c.o
 .xdata         0x0000000100436c90        0x8 CMakeFiles/Basic_workflow.dir/cygdrive/c/ETAS/RTA-CAR_12.2.0/RTA-CAR/workspace/Basic_Workflow/src/bsw/EcuM/EcuM_Cfg_PbExt.c.o
 .xdata         0x0000000100436c98        0x8 CMakeFiles/Basic_workflow.dir/cygdrive/c/ETAS/RTA-CAR_12.2.0/RTA-CAR/workspace/Basic_Workflow/src/bsw/EcuM/EcuM_Cfg_RbMo.c.o
 .xdata         0x0000000100436ca0       0x10 CMakeFiles/Basic_workflow.dir/cygdrive/c/ETAS/RTA-CAR_12.2.0/RTA-CAR/workspace/Basic_Workflow/src/bsw/EcuM/EcuM_Cfg_Sleep.c.o
 .xdata         0x0000000100436cb0       0x14 CMakeFiles/Basic_workflow.dir/cygdrive/c/ETAS/RTA-CAR_12.2.0/RTA-CAR/workspace/Basic_Workflow/src/bsw/EcuM/EcuM_Cfg_Startup.c.o
 .xdata         0x0000000100436cc4        0x8 CMakeFiles/Basic_workflow.dir/cygdrive/c/ETAS/RTA-CAR_12.2.0/RTA-CAR/workspace/Basic_Workflow/src/bsw/EcuM/EcuM_Cfg_SynchPoint.c.o
 .xdata         0x0000000100436ccc       0x58 CMakeFiles/Basic_workflow.dir/cygdrive/c/ETAS/RTA-CAR_12.2.0/RTA-CAR/workspace/Basic_Workflow/src/bsw/EcuM/integration/EcuM_Callout_Stubs.c.o
 .xdata         0x0000000100436d24       0x18 CMakeFiles/Basic_workflow.dir/cygdrive/c/ETAS/RTA-CAR_12.2.0/RTA-CAR/workspace/Basic_Workflow/src/bsw/EcuM/src/EcuM_BootTarget.c.o
 .xdata         0x0000000100436d3c       0x30 CMakeFiles/Basic_workflow.dir/cygdrive/c/ETAS/RTA-CAR_12.2.0/RTA-CAR/workspace/Basic_Workflow/src/bsw/EcuM/src/EcuM_MainFunction.c.o
 .xdata         0x0000000100436d6c       0x50 CMakeFiles/Basic_workflow.dir/cygdrive/c/ETAS/RTA-CAR_12.2.0/RTA-CAR/workspace/Basic_Workflow/src/bsw/EcuM/src/EcuM_Prv.c.o
 .xdata         0x0000000100436dbc       0x24 CMakeFiles/Basic_workflow.dir/cygdrive/c/ETAS/RTA-CAR_12.2.0/RTA-CAR/workspace/Basic_Workflow/src/bsw/EcuM/src/EcuM_Shutdown.c.o
 .xdata         0x0000000100436de0       0x3c CMakeFiles/Basic_workflow.dir/cygdrive/c/ETAS/RTA-CAR_12.2.0/RTA-CAR/workspace/Basic_Workflow/src/bsw/EcuM/src/EcuM_ShutdownServices.c.o
 .xdata         0x0000000100436e1c       0x18 CMakeFiles/Basic_workflow.dir/cygdrive/c/ETAS/RTA-CAR_12.2.0/RTA-CAR/workspace/Basic_Workflow/src/bsw/EcuM/src/EcuM_Startup.c.o
 .xdata         0x0000000100436e34       0x48 CMakeFiles/Basic_workflow.dir/cygdrive/c/ETAS/RTA-CAR_12.2.0/RTA-CAR/workspace/Basic_Workflow/src/bsw/EcuM/src/EcuM_WakeupServices.c.o
 .xdata         0x0000000100436e7c       0x48 CMakeFiles/Basic_workflow.dir/cygdrive/c/ETAS/RTA-CAR_12.2.0/RTA-CAR/workspace/Basic_Workflow/src/rte/Rte.c.o
 .xdata         0x0000000100436ec4       0x9c CMakeFiles/Basic_workflow.dir/cygdrive/c/ETAS/RTA-CAR_12.2.0/RTA-CAR/workspace/Basic_Workflow/src/rte/Rte_Lib.c.o
 .xdata$_ZN13VirtualDevice8StartingEv
                0x0000000100436f60        0x8 CMakeFiles/Basic_workflow.dir/cygdrive/c/ETAS/RTA-CAR_12.2.0/RTA-CAR/workspace/Basic_Workflow/src/mcal/Can_Device.cpp.o
 .xdata$_ZN13VirtualDevice8StoppingEv
                0x0000000100436f68        0x8 CMakeFiles/Basic_workflow.dir/cygdrive/c/ETAS/RTA-CAR_12.2.0/RTA-CAR/workspace/Basic_Workflow/src/mcal/Can_Device.cpp.o
 .xdata$_ZN19CanControllerDeviceC1EPKchht
                0x0000000100436f70       0x24 CMakeFiles/Basic_workflow.dir/cygdrive/c/ETAS/RTA-CAR_12.2.0/RTA-CAR/workspace/Basic_Workflow/src/mcal/Can_Device.cpp.o
 .xdata$_ZN19CanControllerDevice15RaiseStateEventEi14Can_EventStatePKc
                0x0000000100436f94       0x10 CMakeFiles/Basic_workflow.dir/cygdrive/c/ETAS/RTA-CAR_12.2.0/RTA-CAR/workspace/Basic_Workflow/src/mcal/Can_Device.cpp.o
 .xdata$_ZN19CanControllerDevice20RaiseErrorStateEventEj
                0x0000000100436fa4        0xc CMakeFiles/Basic_workflow.dir/cygdrive/c/ETAS/RTA-CAR_12.2.0/RTA-CAR/workspace/Basic_Workflow/src/mcal/Can_Device.cpp.o
 .xdata$_ZN19CanControllerDevice15RaiseWriteEventEihhtP13Can_Hwp_Frame
                0x0000000100436fb0       0x10 CMakeFiles/Basic_workflow.dir/cygdrive/c/ETAS/RTA-CAR_12.2.0/RTA-CAR/workspace/Basic_Workflow/src/mcal/Can_Device.cpp.o
 .xdata$_ZN19CanControllerDevice12RaiseRxEventEitP13Can_Hwp_Frame
                0x0000000100436fc0       0x10 CMakeFiles/Basic_workflow.dir/cygdrive/c/ETAS/RTA-CAR_12.2.0/RTA-CAR/workspace/Basic_Workflow/src/mcal/Can_Device.cpp.o
 .xdata$_ZN19CanControllerDevice12RaiseTxEventEitP13Can_Hwp_Frame
                0x0000000100436fd0       0x10 CMakeFiles/Basic_workflow.dir/cygdrive/c/ETAS/RTA-CAR_12.2.0/RTA-CAR/workspace/Basic_Workflow/src/mcal/Can_Device.cpp.o
 .xdata$_ZN19CanControllerDevice24RaiseRxErrorCounterEventEh
                0x0000000100436fe0        0xc CMakeFiles/Basic_workflow.dir/cygdrive/c/ETAS/RTA-CAR_12.2.0/RTA-CAR/workspace/Basic_Workflow/src/mcal/Can_Device.cpp.o
 .xdata$_ZN19CanControllerDevice24RaiseTxErrorCounterEventEh
                0x0000000100436fec        0xc CMakeFiles/Basic_workflow.dir/cygdrive/c/ETAS/RTA-CAR_12.2.0/RTA-CAR/workspace/Basic_Workflow/src/mcal/Can_Device.cpp.o
 .xdata$_ZN19CanControllerDevice15RaiseErrorEventEj
                0x0000000100436ff8        0xc CMakeFiles/Basic_workflow.dir/cygdrive/c/ETAS/RTA-CAR_12.2.0/RTA-CAR/workspace/Basic_Workflow/src/mcal/Can_Device.cpp.o
 .xdata$_ZN19CanControllerDevice21RaiseCurrentTimeEventE17Can_TimeStampType
                0x0000000100437004        0xc CMakeFiles/Basic_workflow.dir/cygdrive/c/ETAS/RTA-CAR_12.2.0/RTA-CAR/workspace/Basic_Workflow/src/mcal/Can_Device.cpp.o
 .xdata$_ZN19CanControllerDevice31RaiseEnableEgressTimeStampEventEtj
                0x0000000100437010        0xc CMakeFiles/Basic_workflow.dir/cygdrive/c/ETAS/RTA-CAR_12.2.0/RTA-CAR/workspace/Basic_Workflow/src/mcal/Can_Device.cpp.o
 .xdata$_ZN19CanControllerDevice25RaiseEgressTimeStampEventEtt17Can_TimeStampType
                0x000000010043701c        0xc CMakeFiles/Basic_workflow.dir/cygdrive/c/ETAS/RTA-CAR_12.2.0/RTA-CAR/workspace/Basic_Workflow/src/mcal/Can_Device.cpp.o
 .xdata$_ZN19CanControllerDevice26RaiseIngressTimeStampEventEt17Can_TimeStampType
                0x0000000100437028        0xc CMakeFiles/Basic_workflow.dir/cygdrive/c/ETAS/RTA-CAR_12.2.0/RTA-CAR/workspace/Basic_Workflow/src/mcal/Can_Device.cpp.o
 .xdata$_ZN19CanControllerDevice13GetDeviceInfoERN13VirtualDevice7OptListE
                0x0000000100437034        0xc CMakeFiles/Basic_workflow.dir/cygdrive/c/ETAS/RTA-CAR_12.2.0/RTA-CAR/workspace/Basic_Workflow/src/mcal/Can_Device.cpp.o
 .xdata$_ZN19CanControllerDevice16GetDeviceActionsERN13VirtualDevice10ActionListE
                0x0000000100437040       0x18 CMakeFiles/Basic_workflow.dir/cygdrive/c/ETAS/RTA-CAR_12.2.0/RTA-CAR/workspace/Basic_Workflow/src/mcal/Can_Device.cpp.o
 .xdata$_ZN19CanControllerDevice15DropWriteActionERK10vrtaAction
                0x0000000100437058        0xc CMakeFiles/Basic_workflow.dir/cygdrive/c/ETAS/RTA-CAR_12.2.0/RTA-CAR/workspace/Basic_Workflow/src/mcal/Can_Device.cpp.o
 .xdata$_ZN19CanControllerDevice17DropReceiveActionERK10vrtaAction
                0x0000000100437064        0xc CMakeFiles/Basic_workflow.dir/cygdrive/c/ETAS/RTA-CAR_12.2.0/RTA-CAR/workspace/Basic_Workflow/src/mcal/Can_Device.cpp.o
 .xdata$_ZN19CanControllerDevice17InjectWriteActionERK10vrtaAction
                0x0000000100437070        0xc CMakeFiles/Basic_workflow.dir/cygdrive/c/ETAS/RTA-CAR_12.2.0/RTA-CAR/workspace/Basic_Workflow/src/mcal/Can_Device.cpp.o
 .xdata$_ZN19CanControllerDevice14InjectRxActionERK10vrtaAction
                0x000000010043707c        0xc CMakeFiles/Basic_workflow.dir/cygdrive/c/ETAS/RTA-CAR_12.2.0/RTA-CAR/workspace/Basic_Workflow/src/mcal/Can_Device.cpp.o
 .xdata$_ZN19CanControllerDevice22InjectErrorStateActionERK10vrtaAction
                0x0000000100437088        0xc CMakeFiles/Basic_workflow.dir/cygdrive/c/ETAS/RTA-CAR_12.2.0/RTA-CAR/workspace/Basic_Workflow/src/mcal/Can_Device.cpp.o
 .xdata$_ZN19CanControllerDevice34InjectControllerRxErrorCountActionERK10vrtaAction
                0x0000000100437094        0xc CMakeFiles/Basic_workflow.dir/cygdrive/c/ETAS/RTA-CAR_12.2.0/RTA-CAR/workspace/Basic_Workflow/src/mcal/Can_Device.cpp.o
 .xdata$_ZN19CanControllerDevice34InjectControllerTxErrorCountActionERK10vrtaAction
                0x00000001004370a0        0xc CMakeFiles/Basic_workflow.dir/cygdrive/c/ETAS/RTA-CAR_12.2.0/RTA-CAR/workspace/Basic_Workflow/src/mcal/Can_Device.cpp.o
 .xdata$_ZN19CanControllerDevice17InjectErrorActionERK10vrtaAction
                0x00000001004370ac        0xc CMakeFiles/Basic_workflow.dir/cygdrive/c/ETAS/RTA-CAR_12.2.0/RTA-CAR/workspace/Basic_Workflow/src/mcal/Can_Device.cpp.o
 .xdata$_ZN19CanControllerDevice23InjectCurrentTimeActionERK10vrtaAction
                0x00000001004370b8        0xc CMakeFiles/Basic_workflow.dir/cygdrive/c/ETAS/RTA-CAR_12.2.0/RTA-CAR/workspace/Basic_Workflow/src/mcal/Can_Device.cpp.o
 .xdata$_ZN19CanControllerDevice33InjectEnableEgressTimeStampActionERK10vrtaAction
                0x00000001004370c4        0xc CMakeFiles/Basic_workflow.dir/cygdrive/c/ETAS/RTA-CAR_12.2.0/RTA-CAR/workspace/Basic_Workflow/src/mcal/Can_Device.cpp.o
 .xdata$_ZN19CanControllerDevice27InjectEgressTimeStampActionERK10vrtaAction
                0x00000001004370d0        0xc CMakeFiles/Basic_workflow.dir/cygdrive/c/ETAS/RTA-CAR_12.2.0/RTA-CAR/workspace/Basic_Workflow/src/mcal/Can_Device.cpp.o
 .xdata$_ZN19CanControllerDevice28InjectIngressTimeStampActionERK10vrtaAction
                0x00000001004370dc        0xc CMakeFiles/Basic_workflow.dir/cygdrive/c/ETAS/RTA-CAR_12.2.0/RTA-CAR/workspace/Basic_Workflow/src/mcal/Can_Device.cpp.o
 .xdata$_ZN19CanControllerDevice17ForceWakeupActionERK10vrtaAction
                0x00000001004370e8        0xc CMakeFiles/Basic_workflow.dir/cygdrive/c/ETAS/RTA-CAR_12.2.0/RTA-CAR/workspace/Basic_Workflow/src/mcal/Can_Device.cpp.o
 .xdata$_ZN19CanControllerDevice11StateActionERK10vrtaAction
                0x00000001004370f4        0xc CMakeFiles/Basic_workflow.dir/cygdrive/c/ETAS/RTA-CAR_12.2.0/RTA-CAR/workspace/Basic_Workflow/src/mcal/Can_Device.cpp.o
 .xdata$_ZN19CanControllerDevice15GetDeviceEventsERN13VirtualDevice9EventListE
                0x0000000100437100       0x18 CMakeFiles/Basic_workflow.dir/cygdrive/c/ETAS/RTA-CAR_12.2.0/RTA-CAR/workspace/Basic_Workflow/src/mcal/Can_Device.cpp.o
 .xdata$_ZN19CanControllerDevice6ParentER9vrtaEvent
                0x0000000100437118        0xc CMakeFiles/Basic_workflow.dir/cygdrive/c/ETAS/RTA-CAR_12.2.0/RTA-CAR/workspace/Basic_Workflow/src/mcal/Can_Device.cpp.o
 .xdata$_ZN19CanControllerDevice10StateEventER9vrtaEvent
                0x0000000100437124        0xc CMakeFiles/Basic_workflow.dir/cygdrive/c/ETAS/RTA-CAR_12.2.0/RTA-CAR/workspace/Basic_Workflow/src/mcal/Can_Device.cpp.o
 .xdata$_ZN19CanControllerDevice10WriteEventER9vrtaEvent
                0x0000000100437130        0xc CMakeFiles/Basic_workflow.dir/cygdrive/c/ETAS/RTA-CAR_12.2.0/RTA-CAR/workspace/Basic_Workflow/src/mcal/Can_Device.cpp.o
 .xdata$_ZN19CanControllerDevice7TxEventER9vrtaEvent
                0x000000010043713c        0xc CMakeFiles/Basic_workflow.dir/cygdrive/c/ETAS/RTA-CAR_12.2.0/RTA-CAR/workspace/Basic_Workflow/src/mcal/Can_Device.cpp.o
 .xdata$_ZN19CanControllerDevice7RxEventER9vrtaEvent
                0x0000000100437148        0xc CMakeFiles/Basic_workflow.dir/cygdrive/c/ETAS/RTA-CAR_12.2.0/RTA-CAR/workspace/Basic_Workflow/src/mcal/Can_Device.cpp.o
 .xdata$_ZN19CanControllerDevice15ErrorStateEventER9vrtaEvent
                0x0000000100437154        0xc CMakeFiles/Basic_workflow.dir/cygdrive/c/ETAS/RTA-CAR_12.2.0/RTA-CAR/workspace/Basic_Workflow/src/mcal/Can_Device.cpp.o
 .xdata$_ZN19CanControllerDevice19RxErrorCounterEventER9vrtaEvent
                0x0000000100437160        0xc CMakeFiles/Basic_workflow.dir/cygdrive/c/ETAS/RTA-CAR_12.2.0/RTA-CAR/workspace/Basic_Workflow/src/mcal/Can_Device.cpp.o
 .xdata$_ZN19CanControllerDevice19TxErrorCounterEventER9vrtaEvent
                0x000000010043716c        0xc CMakeFiles/Basic_workflow.dir/cygdrive/c/ETAS/RTA-CAR_12.2.0/RTA-CAR/workspace/Basic_Workflow/src/mcal/Can_Device.cpp.o
 .xdata$_ZN19CanControllerDevice10ErrorEventER9vrtaEvent
                0x0000000100437178        0xc CMakeFiles/Basic_workflow.dir/cygdrive/c/ETAS/RTA-CAR_12.2.0/RTA-CAR/workspace/Basic_Workflow/src/mcal/Can_Device.cpp.o
 .xdata$_ZN19CanControllerDevice16CurrentTimeEventER9vrtaEvent
                0x0000000100437184        0xc CMakeFiles/Basic_workflow.dir/cygdrive/c/ETAS/RTA-CAR_12.2.0/RTA-CAR/workspace/Basic_Workflow/src/mcal/Can_Device.cpp.o
 .xdata$_ZN19CanControllerDevice26EnableEgressTimeStampEventER9vrtaEvent
                0x0000000100437190        0xc CMakeFiles/Basic_workflow.dir/cygdrive/c/ETAS/RTA-CAR_12.2.0/RTA-CAR/workspace/Basic_Workflow/src/mcal/Can_Device.cpp.o
 .xdata$_ZN19CanControllerDevice20EgressTimeStampEventER9vrtaEvent
                0x000000010043719c        0xc CMakeFiles/Basic_workflow.dir/cygdrive/c/ETAS/RTA-CAR_12.2.0/RTA-CAR/workspace/Basic_Workflow/src/mcal/Can_Device.cpp.o
 .xdata$_ZN19CanControllerDevice21IngressTimeStampEventER9vrtaEvent
                0x00000001004371a8        0xc CMakeFiles/Basic_workflow.dir/cygdrive/c/ETAS/RTA-CAR_12.2.0/RTA-CAR/workspace/Basic_Workflow/src/mcal/Can_Device.cpp.o
 .xdata$_ZN9CanDeviceC1EPKc
                0x00000001004371b4       0x2c CMakeFiles/Basic_workflow.dir/cygdrive/c/ETAS/RTA-CAR_12.2.0/RTA-CAR/workspace/Basic_Workflow/src/mcal/Can_Device.cpp.o
 .xdata$_ZN9CanDevice13RaiseCanStateE16Can_DriverStatus
                0x00000001004371e0        0xc CMakeFiles/Basic_workflow.dir/cygdrive/c/ETAS/RTA-CAR_12.2.0/RTA-CAR/workspace/Basic_Workflow/src/mcal/Can_Device.cpp.o
 .xdata$_ZN9CanDevice8RaiseIsrEv
                0x00000001004371ec        0x8 CMakeFiles/Basic_workflow.dir/cygdrive/c/ETAS/RTA-CAR_12.2.0/RTA-CAR/workspace/Basic_Workflow/src/mcal/Can_Device.cpp.o
 .xdata$_ZN9CanDevice16UpdateStateEventEi14Can_EventStatePKc
                0x00000001004371f4        0xc CMakeFiles/Basic_workflow.dir/cygdrive/c/ETAS/RTA-CAR_12.2.0/RTA-CAR/workspace/Basic_Workflow/src/mcal/Can_Device.cpp.o
 .xdata$_ZN9CanDevice16UpdateErrorStateEij
                0x0000000100437200        0xc CMakeFiles/Basic_workflow.dir/cygdrive/c/ETAS/RTA-CAR_12.2.0/RTA-CAR/workspace/Basic_Workflow/src/mcal/Can_Device.cpp.o
 .xdata$_ZN9CanDevice16UpdateWriteEventEihhtP13Can_Hwp_Frame
                0x000000010043720c        0xc CMakeFiles/Basic_workflow.dir/cygdrive/c/ETAS/RTA-CAR_12.2.0/RTA-CAR/workspace/Basic_Workflow/src/mcal/Can_Device.cpp.o
 .xdata$_ZN9CanDevice13UpdateRxEventEitP13Can_Hwp_Frame
                0x0000000100437218        0xc CMakeFiles/Basic_workflow.dir/cygdrive/c/ETAS/RTA-CAR_12.2.0/RTA-CAR/workspace/Basic_Workflow/src/mcal/Can_Device.cpp.o
 .xdata$_ZN9CanDevice13UpdateTxEventEitP13Can_Hwp_Frame
                0x0000000100437224        0xc CMakeFiles/Basic_workflow.dir/cygdrive/c/ETAS/RTA-CAR_12.2.0/RTA-CAR/workspace/Basic_Workflow/src/mcal/Can_Device.cpp.o
 .xdata$_ZN9CanDevice30UpdateControllerRxErrorCounterEih
                0x0000000100437230        0xc CMakeFiles/Basic_workflow.dir/cygdrive/c/ETAS/RTA-CAR_12.2.0/RTA-CAR/workspace/Basic_Workflow/src/mcal/Can_Device.cpp.o
 .xdata$_ZN9CanDevice30UpdateControllerTxErrorCounterEih
                0x000000010043723c        0xc CMakeFiles/Basic_workflow.dir/cygdrive/c/ETAS/RTA-CAR_12.2.0/RTA-CAR/workspace/Basic_Workflow/src/mcal/Can_Device.cpp.o
 .xdata$_ZN9CanDevice11UpdateErrorEij
                0x0000000100437248        0xc CMakeFiles/Basic_workflow.dir/cygdrive/c/ETAS/RTA-CAR_12.2.0/RTA-CAR/workspace/Basic_Workflow/src/mcal/Can_Device.cpp.o
 .xdata$_ZN9CanDevice17UpdateCurrentTimeEi17Can_TimeStampType
                0x0000000100437254        0xc CMakeFiles/Basic_workflow.dir/cygdrive/c/ETAS/RTA-CAR_12.2.0/RTA-CAR/workspace/Basic_Workflow/src/mcal/Can_Device.cpp.o
 .xdata$_ZN9CanDevice27UpdateEnableEgressTimeStampEith
                0x0000000100437260        0xc CMakeFiles/Basic_workflow.dir/cygdrive/c/ETAS/RTA-CAR_12.2.0/RTA-CAR/workspace/Basic_Workflow/src/mcal/Can_Device.cpp.o
 .xdata$_ZN9CanDevice26UpdateEgressTimeStampEventEitt17Can_TimeStampType
                0x000000010043726c        0xc CMakeFiles/Basic_workflow.dir/cygdrive/c/ETAS/RTA-CAR_12.2.0/RTA-CAR/workspace/Basic_Workflow/src/mcal/Can_Device.cpp.o
 .xdata$_ZN9CanDevice22UpdateIngressTimeStampEit17Can_TimeStampType
                0x0000000100437278        0xc CMakeFiles/Basic_workflow.dir/cygdrive/c/ETAS/RTA-CAR_12.2.0/RTA-CAR/workspace/Basic_Workflow/src/mcal/Can_Device.cpp.o
 .xdata$_ZN9CanDevice13GetDeviceInfoERN13VirtualDevice7OptListE
                0x0000000100437284        0xc CMakeFiles/Basic_workflow.dir/cygdrive/c/ETAS/RTA-CAR_12.2.0/RTA-CAR/workspace/Basic_Workflow/src/mcal/Can_Device.cpp.o
 .xdata$_ZN9CanDevice16GetDeviceActionsERN13VirtualDevice10ActionListE
                0x0000000100437290        0x8 CMakeFiles/Basic_workflow.dir/cygdrive/c/ETAS/RTA-CAR_12.2.0/RTA-CAR/workspace/Basic_Workflow/src/mcal/Can_Device.cpp.o
 .xdata$_ZN9CanDevice15GetDeviceEventsERN13VirtualDevice9EventListE
                0x0000000100437298        0xc CMakeFiles/Basic_workflow.dir/cygdrive/c/ETAS/RTA-CAR_12.2.0/RTA-CAR/workspace/Basic_Workflow/src/mcal/Can_Device.cpp.o
 .xdata$_ZN9CanDevice10StateEventER9vrtaEvent
                0x00000001004372a4        0xc CMakeFiles/Basic_workflow.dir/cygdrive/c/ETAS/RTA-CAR_12.2.0/RTA-CAR/workspace/Basic_Workflow/src/mcal/Can_Device.cpp.o
 .xdata         0x00000001004372b0       0xd0 CMakeFiles/Basic_workflow.dir/cygdrive/c/ETAS/RTA-CAR_12.2.0/RTA-CAR/workspace/Basic_Workflow/src/mcal/Can_Device.cpp.o
 .xdata$_ZN13VirtualDevice10UnpackDataIjEEvRK10vrtaActionRT_
                0x0000000100437380        0xc CMakeFiles/Basic_workflow.dir/cygdrive/c/ETAS/RTA-CAR_12.2.0/RTA-CAR/workspace/Basic_Workflow/src/mcal/Can_Device.cpp.o
 .xdata$_ZN13VirtualDevice10UnpackDataIN19CanControllerDevice15WriteActionTypeEEEvRK10vrtaActionRT_
                0x000000010043738c        0xc CMakeFiles/Basic_workflow.dir/cygdrive/c/ETAS/RTA-CAR_12.2.0/RTA-CAR/workspace/Basic_Workflow/src/mcal/Can_Device.cpp.o
 .xdata$_ZN13VirtualDevice10UnpackDataIN19CanControllerDevice12RxActionTypeEEEvRK10vrtaActionRT_
                0x0000000100437398        0xc CMakeFiles/Basic_workflow.dir/cygdrive/c/ETAS/RTA-CAR_12.2.0/RTA-CAR/workspace/Basic_Workflow/src/mcal/Can_Device.cpp.o
 .xdata$_ZN13VirtualDevice10UnpackDataI18Can_ErrorStateTypeEEvRK10vrtaActionRT_
                0x00000001004373a4        0xc CMakeFiles/Basic_workflow.dir/cygdrive/c/ETAS/RTA-CAR_12.2.0/RTA-CAR/workspace/Basic_Workflow/src/mcal/Can_Device.cpp.o
 .xdata$_ZN13VirtualDevice10UnpackDataIhEEvRK10vrtaActionRT_
                0x00000001004373b0        0xc CMakeFiles/Basic_workflow.dir/cygdrive/c/ETAS/RTA-CAR_12.2.0/RTA-CAR/workspace/Basic_Workflow/src/mcal/Can_Device.cpp.o
 .xdata$_ZN13VirtualDevice10UnpackDataIN19CanControllerDevice27InjectCurrentTimeActionTypeEEEvRK10vrtaActionRT_
                0x00000001004373bc        0xc CMakeFiles/Basic_workflow.dir/cygdrive/c/ETAS/RTA-CAR_12.2.0/RTA-CAR/workspace/Basic_Workflow/src/mcal/Can_Device.cpp.o
 .xdata$_ZN13VirtualDevice10UnpackDataIN19CanControllerDevice37InjectEnableEgressTimeStampActionTypeEEEvRK10vrtaActionRT_
                0x00000001004373c8        0xc CMakeFiles/Basic_workflow.dir/cygdrive/c/ETAS/RTA-CAR_12.2.0/RTA-CAR/workspace/Basic_Workflow/src/mcal/Can_Device.cpp.o
 .xdata$_ZN13VirtualDevice10UnpackDataIN19CanControllerDevice31InjectEgressTimeStampActionTypeEEEvRK10vrtaActionRT_
                0x00000001004373d4        0xc CMakeFiles/Basic_workflow.dir/cygdrive/c/ETAS/RTA-CAR_12.2.0/RTA-CAR/workspace/Basic_Workflow/src/mcal/Can_Device.cpp.o
 .xdata$_ZN13VirtualDevice10UnpackDataIN19CanControllerDevice32InjectIngressTimeStampActionTypeEEEvRK10vrtaActionRT_
                0x00000001004373e0        0xc CMakeFiles/Basic_workflow.dir/cygdrive/c/ETAS/RTA-CAR_12.2.0/RTA-CAR/workspace/Basic_Workflow/src/mcal/Can_Device.cpp.o
 .xdata$_ZN13VirtualDevice8SetValueItEEvR9vrtaEventT_
                0x00000001004373ec        0x8 CMakeFiles/Basic_workflow.dir/cygdrive/c/ETAS/RTA-CAR_12.2.0/RTA-CAR/workspace/Basic_Workflow/src/mcal/Can_Device.cpp.o
 .xdata$_ZN13VirtualDevice8PackDataIN19CanControllerDevice15StatusEventTypeEEEvR9vrtaEventRT_i
                0x00000001004373f4        0xc CMakeFiles/Basic_workflow.dir/cygdrive/c/ETAS/RTA-CAR_12.2.0/RTA-CAR/workspace/Basic_Workflow/src/mcal/Can_Device.cpp.o
 .xdata$_ZN13VirtualDevice8PackDataIN19CanControllerDevice14WriteEventTypeEEEvR9vrtaEventRT_i
                0x0000000100437400        0xc CMakeFiles/Basic_workflow.dir/cygdrive/c/ETAS/RTA-CAR_12.2.0/RTA-CAR/workspace/Basic_Workflow/src/mcal/Can_Device.cpp.o
 .xdata$_ZN13VirtualDevice8PackDataIN19CanControllerDevice11TxEventTypeEEEvR9vrtaEventRT_i
                0x000000010043740c        0xc CMakeFiles/Basic_workflow.dir/cygdrive/c/ETAS/RTA-CAR_12.2.0/RTA-CAR/workspace/Basic_Workflow/src/mcal/Can_Device.cpp.o
 .xdata$_ZN13VirtualDevice8PackDataIN19CanControllerDevice11RxEventTypeEEEvR9vrtaEventRT_i
                0x0000000100437418        0xc CMakeFiles/Basic_workflow.dir/cygdrive/c/ETAS/RTA-CAR_12.2.0/RTA-CAR/workspace/Basic_Workflow/src/mcal/Can_Device.cpp.o
 .xdata$_ZN13VirtualDevice8PackDataIjEEvR9vrtaEventRT_i
                0x0000000100437424        0xc CMakeFiles/Basic_workflow.dir/cygdrive/c/ETAS/RTA-CAR_12.2.0/RTA-CAR/workspace/Basic_Workflow/src/mcal/Can_Device.cpp.o
 .xdata$_ZN13VirtualDevice8PackDataIN19CanControllerDevice15CurrentTimeTypeEEEvR9vrtaEventRT_i
                0x0000000100437430        0xc CMakeFiles/Basic_workflow.dir/cygdrive/c/ETAS/RTA-CAR_12.2.0/RTA-CAR/workspace/Basic_Workflow/src/mcal/Can_Device.cpp.o
 .xdata$_ZN13VirtualDevice8PackDataIN19CanControllerDevice25EnableEgressTimeStampTypeEEEvR9vrtaEventRT_i
                0x000000010043743c        0xc CMakeFiles/Basic_workflow.dir/cygdrive/c/ETAS/RTA-CAR_12.2.0/RTA-CAR/workspace/Basic_Workflow/src/mcal/Can_Device.cpp.o
 .xdata$_ZN13VirtualDevice8PackDataIN19CanControllerDevice19EgressTimeStampTypeEEEvR9vrtaEventRT_i
                0x0000000100437448        0xc CMakeFiles/Basic_workflow.dir/cygdrive/c/ETAS/RTA-CAR_12.2.0/RTA-CAR/workspace/Basic_Workflow/src/mcal/Can_Device.cpp.o
 .xdata$_ZN13VirtualDevice8PackDataIN19CanControllerDevice20IngressTimeStampTypeEEEvR9vrtaEventRT_i
                0x0000000100437454        0xc CMakeFiles/Basic_workflow.dir/cygdrive/c/ETAS/RTA-CAR_12.2.0/RTA-CAR/workspace/Basic_Workflow/src/mcal/Can_Device.cpp.o
 .xdata$_ZN13VirtualDevice8SetValueIhEEvR9vrtaEventT_
                0x0000000100437460        0x8 CMakeFiles/Basic_workflow.dir/cygdrive/c/ETAS/RTA-CAR_12.2.0/RTA-CAR/workspace/Basic_Workflow/src/mcal/Can_Device.cpp.o
 .xdata$_ZN9CanDeviceD1Ev
                0x0000000100437468        0xc CMakeFiles/Basic_workflow.dir/cygdrive/c/ETAS/RTA-CAR_12.2.0/RTA-CAR/workspace/Basic_Workflow/src/mcal/Can_Device.cpp.o
 .xdata$_ZN9CanDeviceD0Ev
                0x0000000100437474        0xc CMakeFiles/Basic_workflow.dir/cygdrive/c/ETAS/RTA-CAR_12.2.0/RTA-CAR/workspace/Basic_Workflow/src/mcal/Can_Device.cpp.o
 .xdata$_ZN19CanControllerDeviceD1Ev
                0x0000000100437480        0xc CMakeFiles/Basic_workflow.dir/cygdrive/c/ETAS/RTA-CAR_12.2.0/RTA-CAR/workspace/Basic_Workflow/src/mcal/Can_Device.cpp.o
 .xdata$_ZN19CanControllerDeviceD0Ev
                0x000000010043748c        0xc CMakeFiles/Basic_workflow.dir/cygdrive/c/ETAS/RTA-CAR_12.2.0/RTA-CAR/workspace/Basic_Workflow/src/mcal/Can_Device.cpp.o
 .xdata         0x0000000100437498       0x2c CMakeFiles/Basic_workflow.dir/cygdrive/c/ETAS/RTA-CAR_12.2.0/RTA-CAR/workspace/Basic_Workflow/src/mcal/Can_HwProvider.cpp.o
 .xdata$_ZN6Can_Hw4NameEv
                0x00000001004374c4        0x8 CMakeFiles/Basic_workflow.dir/cygdrive/c/ETAS/RTA-CAR_12.2.0/RTA-CAR/workspace/Basic_Workflow/src/mcal/Can_Implementation.cpp.o
 .xdata$_ZN20Can_ChannelStateTypeC1Ev
                0x00000001004374cc        0x8 CMakeFiles/Basic_workflow.dir/cygdrive/c/ETAS/RTA-CAR_12.2.0/RTA-CAR/workspace/Basic_Workflow/src/mcal/Can_Implementation.cpp.o
 .xdata$_ZN19Can_RxHwObjFifoTypeC1Ev
                0x00000001004374d4        0xc CMakeFiles/Basic_workflow.dir/cygdrive/c/ETAS/RTA-CAR_12.2.0/RTA-CAR/workspace/Basic_Workflow/src/mcal/Can_Implementation.cpp.o
 .xdata$_ZN19Can_RxHwObjFifoType7enqueueEPK13Can_Hwp_Framet
                0x00000001004374e0        0xc CMakeFiles/Basic_workflow.dir/cygdrive/c/ETAS/RTA-CAR_12.2.0/RTA-CAR/workspace/Basic_Workflow/src/mcal/Can_Implementation.cpp.o
 .xdata$_ZN19Can_RxHwObjFifoType7dequeueER11PduInfoTypeR10Can_HwTypej
                0x00000001004374ec        0xc CMakeFiles/Basic_workflow.dir/cygdrive/c/ETAS/RTA-CAR_12.2.0/RTA-CAR/workspace/Basic_Workflow/src/mcal/Can_Implementation.cpp.o
 .xdata$_ZNK19Can_RxHwObjFifoType7isEmptyEv
                0x00000001004374f8        0x8 CMakeFiles/Basic_workflow.dir/cygdrive/c/ETAS/RTA-CAR_12.2.0/RTA-CAR/workspace/Basic_Workflow/src/mcal/Can_Implementation.cpp.o
 .xdata$_ZN19Can_RxHwObjFifoType5clearEv
                0x0000000100437500        0xc CMakeFiles/Basic_workflow.dir/cygdrive/c/ETAS/RTA-CAR_12.2.0/RTA-CAR/workspace/Basic_Workflow/src/mcal/Can_Implementation.cpp.o
 .xdata$_ZN18Can_HwobjStateTypeC1Ev
                0x000000010043750c        0xc CMakeFiles/Basic_workflow.dir/cygdrive/c/ETAS/RTA-CAR_12.2.0/RTA-CAR/workspace/Basic_Workflow/src/mcal/Can_Implementation.cpp.o
 .xdata$_ZN18Can_HwobjStateType5resetEv
                0x0000000100437518        0xc CMakeFiles/Basic_workflow.dir/cygdrive/c/ETAS/RTA-CAR_12.2.0/RTA-CAR/workspace/Basic_Workflow/src/mcal/Can_Implementation.cpp.o
 .xdata         0x0000000100437524      0x298 CMakeFiles/Basic_workflow.dir/cygdrive/c/ETAS/RTA-CAR_12.2.0/RTA-CAR/workspace/Basic_Workflow/src/mcal/Can_Implementation.cpp.o
 .xdata$_ZN13VirtualDevice16UnsignedValueForERK10vrtaAction
                0x00000001004377bc        0x8 CMakeFiles/Basic_workflow.dir/cygdrive/c/ETAS/RTA-CAR_12.2.0/RTA-CAR/workspace/Basic_Workflow/src/mcal/Mcu_Device.cpp.o
 .xdata$_ZN13VirtualDevice6NoDataER10vrtaAction
                0x00000001004377c4        0x8 CMakeFiles/Basic_workflow.dir/cygdrive/c/ETAS/RTA-CAR_12.2.0/RTA-CAR/workspace/Basic_Workflow/src/mcal/Mcu_Device.cpp.o
 .xdata$_ZN9McuDeviceC1EPKc
                0x00000001004377cc       0x24 CMakeFiles/Basic_workflow.dir/cygdrive/c/ETAS/RTA-CAR_12.2.0/RTA-CAR/workspace/Basic_Workflow/src/mcal/Mcu_Device.cpp.o
 .xdata$_ZN9McuDevice11ResetReasonE13Mcu_ResetType
                0x00000001004377f0       0x10 CMakeFiles/Basic_workflow.dir/cygdrive/c/ETAS/RTA-CAR_12.2.0/RTA-CAR/workspace/Basic_Workflow/src/mcal/Mcu_Device.cpp.o
 .xdata$_ZN9McuDevice11Reset_countEv
                0x0000000100437800        0x8 CMakeFiles/Basic_workflow.dir/cygdrive/c/ETAS/RTA-CAR_12.2.0/RTA-CAR/workspace/Basic_Workflow/src/mcal/Mcu_Device.cpp.o
 .xdata$_ZN9McuDevice21GetPersistentDataSizeEv
                0x0000000100437808        0x8 CMakeFiles/Basic_workflow.dir/cygdrive/c/ETAS/RTA-CAR_12.2.0/RTA-CAR/workspace/Basic_Workflow/src/mcal/Mcu_Device.cpp.o
 .xdata$_ZN9McuDevice17GetPersistentDataEv
                0x0000000100437810        0x8 CMakeFiles/Basic_workflow.dir/cygdrive/c/ETAS/RTA-CAR_12.2.0/RTA-CAR/workspace/Basic_Workflow/src/mcal/Mcu_Device.cpp.o
 .xdata$_ZN9McuDevice17SetPersistentDataEPht
                0x0000000100437818        0x8 CMakeFiles/Basic_workflow.dir/cygdrive/c/ETAS/RTA-CAR_12.2.0/RTA-CAR/workspace/Basic_Workflow/src/mcal/Mcu_Device.cpp.o
 .xdata$_ZN9McuDevice13GetDeviceInfoERN13VirtualDevice7OptListE
                0x0000000100437820        0xc CMakeFiles/Basic_workflow.dir/cygdrive/c/ETAS/RTA-CAR_12.2.0/RTA-CAR/workspace/Basic_Workflow/src/mcal/Mcu_Device.cpp.o
 .xdata$_ZN9McuDevice16GetDeviceActionsERN13VirtualDevice10ActionListE
                0x000000010043782c        0xc CMakeFiles/Basic_workflow.dir/cygdrive/c/ETAS/RTA-CAR_12.2.0/RTA-CAR/workspace/Basic_Workflow/src/mcal/Mcu_Device.cpp.o
 .xdata$_ZN9McuDevice17InjectResetActionERK10vrtaAction
                0x0000000100437838        0xc CMakeFiles/Basic_workflow.dir/cygdrive/c/ETAS/RTA-CAR_12.2.0/RTA-CAR/workspace/Basic_Workflow/src/mcal/Mcu_Device.cpp.o
 .xdata$_ZN9McuDevice15GetDeviceEventsERN13VirtualDevice9EventListE
                0x0000000100437844       0x10 CMakeFiles/Basic_workflow.dir/cygdrive/c/ETAS/RTA-CAR_12.2.0/RTA-CAR/workspace/Basic_Workflow/src/mcal/Mcu_Device.cpp.o
 .xdata$_ZN9McuDevice16ResetReasonEventER9vrtaEvent
                0x0000000100437854        0xc CMakeFiles/Basic_workflow.dir/cygdrive/c/ETAS/RTA-CAR_12.2.0/RTA-CAR/workspace/Basic_Workflow/src/mcal/Mcu_Device.cpp.o
 .xdata$_ZN9McuDevice15ResetCountEventER9vrtaEvent
                0x0000000100437860        0xc CMakeFiles/Basic_workflow.dir/cygdrive/c/ETAS/RTA-CAR_12.2.0/RTA-CAR/workspace/Basic_Workflow/src/mcal/Mcu_Device.cpp.o
 .xdata         0x000000010043786c       0x38 CMakeFiles/Basic_workflow.dir/cygdrive/c/ETAS/RTA-CAR_12.2.0/RTA-CAR/workspace/Basic_Workflow/src/mcal/Mcu_Device.cpp.o
 .xdata$_ZN13VirtualDevice8SetValueIjEEvR9vrtaEventT_
                0x00000001004378a4        0x8 CMakeFiles/Basic_workflow.dir/cygdrive/c/ETAS/RTA-CAR_12.2.0/RTA-CAR/workspace/Basic_Workflow/src/mcal/Mcu_Device.cpp.o
 .xdata$_ZN9McuDeviceD1Ev
                0x00000001004378ac        0xc CMakeFiles/Basic_workflow.dir/cygdrive/c/ETAS/RTA-CAR_12.2.0/RTA-CAR/workspace/Basic_Workflow/src/mcal/Mcu_Device.cpp.o
 .xdata$_ZN9McuDeviceD0Ev
                0x00000001004378b8        0xc CMakeFiles/Basic_workflow.dir/cygdrive/c/ETAS/RTA-CAR_12.2.0/RTA-CAR/workspace/Basic_Workflow/src/mcal/Mcu_Device.cpp.o
 .xdata         0x00000001004378c4       0xa0 CMakeFiles/Basic_workflow.dir/cygdrive/c/ETAS/RTA-CAR_12.2.0/RTA-CAR/workspace/Basic_Workflow/src/mcal/Mcu_Implementation.cpp.o
 .xdata$_ZN15MCAL_HwProviderD2Ev
                0x0000000100437964        0x8 CMakeFiles/Basic_workflow.dir/cygdrive/c/ETAS/RTA-CAR_12.2.0/RTA-CAR/workspace/Basic_Workflow/src/mcal/VirtualCan.cpp.o
 .xdata$_ZN6Can_HwC2EPFvj13Can_Hwp_EventtP13Can_Hwp_FrameEj
                0x000000010043796c        0x8 CMakeFiles/Basic_workflow.dir/cygdrive/c/ETAS/RTA-CAR_12.2.0/RTA-CAR/workspace/Basic_Workflow/src/mcal/VirtualCan.cpp.o
 .xdata$_ZN6Can_HwD2Ev
                0x0000000100437974        0x8 CMakeFiles/Basic_workflow.dir/cygdrive/c/ETAS/RTA-CAR_12.2.0/RTA-CAR/workspace/Basic_Workflow/src/mcal/VirtualCan.cpp.o
 .xdata$_ZN6Can_Hw24EnableTransmitProcessingEb
                0x000000010043797c        0x8 CMakeFiles/Basic_workflow.dir/cygdrive/c/ETAS/RTA-CAR_12.2.0/RTA-CAR/workspace/Basic_Workflow/src/mcal/VirtualCan.cpp.o
 .xdata$_ZN20Can_Virtual_TxObjectC1Ev
                0x0000000100437984        0xc CMakeFiles/Basic_workflow.dir/cygdrive/c/ETAS/RTA-CAR_12.2.0/RTA-CAR/workspace/Basic_Workflow/src/mcal/VirtualCan.cpp.o
 .xdata$_ZN22Can_Virtual_ControllerC1Ev
                0x0000000100437990        0x8 CMakeFiles/Basic_workflow.dir/cygdrive/c/ETAS/RTA-CAR_12.2.0/RTA-CAR/workspace/Basic_Workflow/src/mcal/VirtualCan.cpp.o
 .xdata$_ZN22Can_Virtual_ControllerD1Ev
                0x0000000100437998        0xc CMakeFiles/Basic_workflow.dir/cygdrive/c/ETAS/RTA-CAR_12.2.0/RTA-CAR/workspace/Basic_Workflow/src/mcal/VirtualCan.cpp.o
 .xdata$_ZN22Can_Virtual_Controller6UpCallE13Can_Hwp_EventtP13Can_Hwp_Frame
                0x00000001004379a4        0xc CMakeFiles/Basic_workflow.dir/cygdrive/c/ETAS/RTA-CAR_12.2.0/RTA-CAR/workspace/Basic_Workflow/src/mcal/VirtualCan.cpp.o
 .xdata$_ZN18Can_Virtual_DriverC1Ev
                0x00000001004379b0        0x8 CMakeFiles/Basic_workflow.dir/cygdrive/c/ETAS/RTA-CAR_12.2.0/RTA-CAR/workspace/Basic_Workflow/src/mcal/VirtualCan.cpp.o
 .xdata$_ZN18Can_Virtual_DriverD1Ev
                0x00000001004379b8        0xc CMakeFiles/Basic_workflow.dir/cygdrive/c/ETAS/RTA-CAR_12.2.0/RTA-CAR/workspace/Basic_Workflow/src/mcal/VirtualCan.cpp.o
 .xdata$_ZN18Can_Virtual_Driver10InitialiseEv
                0x00000001004379c4       0x10 CMakeFiles/Basic_workflow.dir/cygdrive/c/ETAS/RTA-CAR_12.2.0/RTA-CAR/workspace/Basic_Workflow/src/mcal/VirtualCan.cpp.o
 .xdata$_ZN18Can_Virtual_Driver12DeInitialiseEv
                0x00000001004379d4        0xc CMakeFiles/Basic_workflow.dir/cygdrive/c/ETAS/RTA-CAR_12.2.0/RTA-CAR/workspace/Basic_Workflow/src/mcal/VirtualCan.cpp.o
 .xdata$_ZN18Can_Virtual_Driver8TeardownEv
                0x00000001004379e0        0x8 CMakeFiles/Basic_workflow.dir/cygdrive/c/ETAS/RTA-CAR_12.2.0/RTA-CAR/workspace/Basic_Workflow/src/mcal/VirtualCan.cpp.o
 .xdata$_ZN18Can_Virtual_Driver19IsControllerPresentEj
                0x00000001004379e8        0xc CMakeFiles/Basic_workflow.dir/cygdrive/c/ETAS/RTA-CAR_12.2.0/RTA-CAR/workspace/Basic_Workflow/src/mcal/VirtualCan.cpp.o
 .xdata$_ZN18Can_Virtual_Driver13AddControllerEjPKcPFvj13Can_Hwp_EventtP13Can_Hwp_FrameEj
                0x00000001004379f4        0xc CMakeFiles/Basic_workflow.dir/cygdrive/c/ETAS/RTA-CAR_12.2.0/RTA-CAR/workspace/Basic_Workflow/src/mcal/VirtualCan.cpp.o
 .xdata$_ZN18Can_Virtual_Driver19ConfigureControllerEjPK21Can_Hwp_ChannelConfig
                0x0000000100437a00       0x10 CMakeFiles/Basic_workflow.dir/cygdrive/c/ETAS/RTA-CAR_12.2.0/RTA-CAR/workspace/Basic_Workflow/src/mcal/VirtualCan.cpp.o
 .xdata$_ZN18Can_Virtual_Driver21SetControllerBaudrateEjPK22Can_Hwp_BaudrateConfig
                0x0000000100437a10        0xc CMakeFiles/Basic_workflow.dir/cygdrive/c/ETAS/RTA-CAR_12.2.0/RTA-CAR/workspace/Basic_Workflow/src/mcal/VirtualCan.cpp.o
 .xdata$_ZN18Can_Virtual_Driver15StartControllerEj
                0x0000000100437a1c        0xc CMakeFiles/Basic_workflow.dir/cygdrive/c/ETAS/RTA-CAR_12.2.0/RTA-CAR/workspace/Basic_Workflow/src/mcal/VirtualCan.cpp.o
 .xdata$_ZN18Can_Virtual_Driver15SleepControllerEj
                0x0000000100437a28        0xc CMakeFiles/Basic_workflow.dir/cygdrive/c/ETAS/RTA-CAR_12.2.0/RTA-CAR/workspace/Basic_Workflow/src/mcal/VirtualCan.cpp.o
 .xdata$_ZN18Can_Virtual_Driver14StopControllerEj
                0x0000000100437a34        0xc CMakeFiles/Basic_workflow.dir/cygdrive/c/ETAS/RTA-CAR_12.2.0/RTA-CAR/workspace/Basic_Workflow/src/mcal/VirtualCan.cpp.o
 .xdata$_ZN18Can_Virtual_Driver22ControllerCausedWakeupEj
                0x0000000100437a40        0xc CMakeFiles/Basic_workflow.dir/cygdrive/c/ETAS/RTA-CAR_12.2.0/RTA-CAR/workspace/Basic_Workflow/src/mcal/VirtualCan.cpp.o
 .xdata$_ZN18Can_Virtual_Driver5StateEj
                0x0000000100437a4c        0xc CMakeFiles/Basic_workflow.dir/cygdrive/c/ETAS/RTA-CAR_12.2.0/RTA-CAR/workspace/Basic_Workflow/src/mcal/VirtualCan.cpp.o
 .xdata$_ZN18Can_Virtual_Driver11ForceBusOffEj
                0x0000000100437a58        0xc CMakeFiles/Basic_workflow.dir/cygdrive/c/ETAS/RTA-CAR_12.2.0/RTA-CAR/workspace/Basic_Workflow/src/mcal/VirtualCan.cpp.o
 .xdata$_ZN18Can_Virtual_Driver11ForceWakeupEj
                0x0000000100437a64        0xc CMakeFiles/Basic_workflow.dir/cygdrive/c/ETAS/RTA-CAR_12.2.0/RTA-CAR/workspace/Basic_Workflow/src/mcal/VirtualCan.cpp.o
 .xdata$_ZN18Can_Virtual_Driver5WriteEjtP13Can_Hwp_Frame
                0x0000000100437a70        0xc CMakeFiles/Basic_workflow.dir/cygdrive/c/ETAS/RTA-CAR_12.2.0/RTA-CAR/workspace/Basic_Workflow/src/mcal/VirtualCan.cpp.o
 .xdata$_ZN18Can_Virtual_Driver27GetControllerTxErrorCounterEhPh
                0x0000000100437a7c        0xc CMakeFiles/Basic_workflow.dir/cygdrive/c/ETAS/RTA-CAR_12.2.0/RTA-CAR/workspace/Basic_Workflow/src/mcal/VirtualCan.cpp.o
 .xdata$_ZN18Can_Virtual_Driver28InjectControllerTxErrorCountEhh
                0x0000000100437a88        0xc CMakeFiles/Basic_workflow.dir/cygdrive/c/ETAS/RTA-CAR_12.2.0/RTA-CAR/workspace/Basic_Workflow/src/mcal/VirtualCan.cpp.o
 .xdata$_ZN18Can_Virtual_Driver27GetControllerRxErrorCounterEhPh
                0x0000000100437a94        0xc CMakeFiles/Basic_workflow.dir/cygdrive/c/ETAS/RTA-CAR_12.2.0/RTA-CAR/workspace/Basic_Workflow/src/mcal/VirtualCan.cpp.o
 .xdata$_ZN18Can_Virtual_Driver28InjectControllerRxErrorCountEhh
                0x0000000100437aa0        0xc CMakeFiles/Basic_workflow.dir/cygdrive/c/ETAS/RTA-CAR_12.2.0/RTA-CAR/workspace/Basic_Workflow/src/mcal/VirtualCan.cpp.o
 .xdata$_ZN18Can_Virtual_Driver11CurrentTimeEhP17Can_TimeStampTypeh
                0x0000000100437aac        0xc CMakeFiles/Basic_workflow.dir/cygdrive/c/ETAS/RTA-CAR_12.2.0/RTA-CAR/workspace/Basic_Workflow/src/mcal/VirtualCan.cpp.o
 .xdata$_ZN18Can_Virtual_Driver17InjectCurrentTimeEh17Can_TimeStampType
                0x0000000100437ab8        0xc CMakeFiles/Basic_workflow.dir/cygdrive/c/ETAS/RTA-CAR_12.2.0/RTA-CAR/workspace/Basic_Workflow/src/mcal/VirtualCan.cpp.o
 .xdata$_ZN18Can_Virtual_Driver21EnableEgressTimeStampEht
                0x0000000100437ac4        0xc CMakeFiles/Basic_workflow.dir/cygdrive/c/ETAS/RTA-CAR_12.2.0/RTA-CAR/workspace/Basic_Workflow/src/mcal/VirtualCan.cpp.o
 .xdata$_ZN18Can_Virtual_Driver27InjectEnableEgressTimeStampEhth
                0x0000000100437ad0        0xc CMakeFiles/Basic_workflow.dir/cygdrive/c/ETAS/RTA-CAR_12.2.0/RTA-CAR/workspace/Basic_Workflow/src/mcal/VirtualCan.cpp.o
 .xdata$_ZN18Can_Virtual_Driver18GetEgressTimeStampEhttP17Can_TimeStampType
                0x0000000100437adc        0xc CMakeFiles/Basic_workflow.dir/cygdrive/c/ETAS/RTA-CAR_12.2.0/RTA-CAR/workspace/Basic_Workflow/src/mcal/VirtualCan.cpp.o
 .xdata$_ZN18Can_Virtual_Driver21InjectEgressTimeStampEhtt17Can_TimeStampType
                0x0000000100437ae8        0xc CMakeFiles/Basic_workflow.dir/cygdrive/c/ETAS/RTA-CAR_12.2.0/RTA-CAR/workspace/Basic_Workflow/src/mcal/VirtualCan.cpp.o
 .xdata$_ZN18Can_Virtual_Driver19GetIngressTimeStampEhtP17Can_TimeStampType
                0x0000000100437af4        0xc CMakeFiles/Basic_workflow.dir/cygdrive/c/ETAS/RTA-CAR_12.2.0/RTA-CAR/workspace/Basic_Workflow/src/mcal/VirtualCan.cpp.o
 .xdata$_ZN18Can_Virtual_Driver22InjectIngressTimeStampEht17Can_TimeStampType
                0x0000000100437b00        0xc CMakeFiles/Basic_workflow.dir/cygdrive/c/ETAS/RTA-CAR_12.2.0/RTA-CAR/workspace/Basic_Workflow/src/mcal/VirtualCan.cpp.o
 .xdata$_ZN18Can_Virtual_Driver12WorkerThreadEv
                0x0000000100437b0c        0xc CMakeFiles/Basic_workflow.dir/cygdrive/c/ETAS/RTA-CAR_12.2.0/RTA-CAR/workspace/Basic_Workflow/src/mcal/VirtualCan.cpp.o
 .xdata$_ZN18Can_Virtual_Driver24EnableTransmitProcessingEjb
                0x0000000100437b18        0xc CMakeFiles/Basic_workflow.dir/cygdrive/c/ETAS/RTA-CAR_12.2.0/RTA-CAR/workspace/Basic_Workflow/src/mcal/VirtualCan.cpp.o
 .xdata$_ZN18Can_Virtual_Driver12HandleBusOffEP22Can_Virtual_Controller
                0x0000000100437b24        0xc CMakeFiles/Basic_workflow.dir/cygdrive/c/ETAS/RTA-CAR_12.2.0/RTA-CAR/workspace/Basic_Workflow/src/mcal/VirtualCan.cpp.o
 .xdata$_ZN18Can_Virtual_Driver12HandleWakeupEP22Can_Virtual_Controller
                0x0000000100437b30        0xc CMakeFiles/Basic_workflow.dir/cygdrive/c/ETAS/RTA-CAR_12.2.0/RTA-CAR/workspace/Basic_Workflow/src/mcal/VirtualCan.cpp.o
 .xdata$_ZN18Can_Virtual_Driver11HandleErrorEP22Can_Virtual_Controller
                0x0000000100437b3c        0xc CMakeFiles/Basic_workflow.dir/cygdrive/c/ETAS/RTA-CAR_12.2.0/RTA-CAR/workspace/Basic_Workflow/src/mcal/VirtualCan.cpp.o
 .xdata$_ZN18Can_Virtual_Driver21ChangeControllerStateEP22Can_Virtual_Controller
                0x0000000100437b48        0xc CMakeFiles/Basic_workflow.dir/cygdrive/c/ETAS/RTA-CAR_12.2.0/RTA-CAR/workspace/Basic_Workflow/src/mcal/VirtualCan.cpp.o
 .xdata$_ZN18Can_Virtual_Driver20ResetTransmitObjectsEP22Can_Virtual_Controller
                0x0000000100437b54        0xc CMakeFiles/Basic_workflow.dir/cygdrive/c/ETAS/RTA-CAR_12.2.0/RTA-CAR/workspace/Basic_Workflow/src/mcal/VirtualCan.cpp.o
 .xdata$_ZN18Can_Virtual_Driver14TransmitFramesEP22Can_Virtual_Controllerj
                0x0000000100437b60        0xc CMakeFiles/Basic_workflow.dir/cygdrive/c/ETAS/RTA-CAR_12.2.0/RTA-CAR/workspace/Basic_Workflow/src/mcal/VirtualCan.cpp.o
 .xdata$_ZN18Can_Virtual_Driver12ReceiveFrameEP22Can_Virtual_ControllerS1_P13Can_Hwp_Frame
                0x0000000100437b6c        0xc CMakeFiles/Basic_workflow.dir/cygdrive/c/ETAS/RTA-CAR_12.2.0/RTA-CAR/workspace/Basic_Workflow/src/mcal/VirtualCan.cpp.o
 .xdata$_ZN18Can_Virtual_Driver10SetupEventEPi
                0x0000000100437b78        0xc CMakeFiles/Basic_workflow.dir/cygdrive/c/ETAS/RTA-CAR_12.2.0/RTA-CAR/workspace/Basic_Workflow/src/mcal/VirtualCan.cpp.o
 .xdata$_ZN18Can_Virtual_Driver12WaitForEventEPi
                0x0000000100437b84        0xc CMakeFiles/Basic_workflow.dir/cygdrive/c/ETAS/RTA-CAR_12.2.0/RTA-CAR/workspace/Basic_Workflow/src/mcal/VirtualCan.cpp.o
 .xdata$_ZN18Can_Virtual_Driver9SendEventEPi
                0x0000000100437b90        0xc CMakeFiles/Basic_workflow.dir/cygdrive/c/ETAS/RTA-CAR_12.2.0/RTA-CAR/workspace/Basic_Workflow/src/mcal/VirtualCan.cpp.o
 .xdata         0x0000000100437b9c       0x30 CMakeFiles/Basic_workflow.dir/cygdrive/c/ETAS/RTA-CAR_12.2.0/RTA-CAR/workspace/Basic_Workflow/src/mcal/VirtualCan.cpp.o
 .xdata$_ZN13Can_VirtualHwC1EPFvj13Can_Hwp_EventtP13Can_Hwp_FrameEjj
                0x0000000100437bcc       0x20 CMakeFiles/Basic_workflow.dir/cygdrive/c/ETAS/RTA-CAR_12.2.0/RTA-CAR/workspace/Basic_Workflow/src/mcal/VirtualCan.cpp.o
 .xdata$_ZN13Can_VirtualHw9ConfigureEPK21Can_Hwp_ChannelConfig
                0x0000000100437bec        0xc CMakeFiles/Basic_workflow.dir/cygdrive/c/ETAS/RTA-CAR_12.2.0/RTA-CAR/workspace/Basic_Workflow/src/mcal/VirtualCan.cpp.o
 .xdata$_ZN13Can_VirtualHw11SetBaudrateEPK22Can_Hwp_BaudrateConfig
                0x0000000100437bf8        0xc CMakeFiles/Basic_workflow.dir/cygdrive/c/ETAS/RTA-CAR_12.2.0/RTA-CAR/workspace/Basic_Workflow/src/mcal/VirtualCan.cpp.o
 .xdata$_ZN13Can_VirtualHw5StartEv
                0x0000000100437c04        0xc CMakeFiles/Basic_workflow.dir/cygdrive/c/ETAS/RTA-CAR_12.2.0/RTA-CAR/workspace/Basic_Workflow/src/mcal/VirtualCan.cpp.o
 .xdata$_ZN13Can_VirtualHw5SleepEv
                0x0000000100437c10        0xc CMakeFiles/Basic_workflow.dir/cygdrive/c/ETAS/RTA-CAR_12.2.0/RTA-CAR/workspace/Basic_Workflow/src/mcal/VirtualCan.cpp.o
 .xdata$_ZN13Can_VirtualHw4StopEv
                0x0000000100437c1c        0xc CMakeFiles/Basic_workflow.dir/cygdrive/c/ETAS/RTA-CAR_12.2.0/RTA-CAR/workspace/Basic_Workflow/src/mcal/VirtualCan.cpp.o
 .xdata$_ZN13Can_VirtualHw5WriteEtP13Can_Hwp_Frame
                0x0000000100437c28        0xc CMakeFiles/Basic_workflow.dir/cygdrive/c/ETAS/RTA-CAR_12.2.0/RTA-CAR/workspace/Basic_Workflow/src/mcal/VirtualCan.cpp.o
 .xdata$_ZN13Can_VirtualHw12CausedWakeupEv
                0x0000000100437c34        0xc CMakeFiles/Basic_workflow.dir/cygdrive/c/ETAS/RTA-CAR_12.2.0/RTA-CAR/workspace/Basic_Workflow/src/mcal/VirtualCan.cpp.o
 .xdata$_ZN13Can_VirtualHw5StateEv
                0x0000000100437c40        0xc CMakeFiles/Basic_workflow.dir/cygdrive/c/ETAS/RTA-CAR_12.2.0/RTA-CAR/workspace/Basic_Workflow/src/mcal/VirtualCan.cpp.o
 .xdata$_ZN13Can_VirtualHw11ForceBusOffEv
                0x0000000100437c4c        0xc CMakeFiles/Basic_workflow.dir/cygdrive/c/ETAS/RTA-CAR_12.2.0/RTA-CAR/workspace/Basic_Workflow/src/mcal/VirtualCan.cpp.o
 .xdata$_ZN13Can_VirtualHw11ForceWakeupEv
                0x0000000100437c58        0xc CMakeFiles/Basic_workflow.dir/cygdrive/c/ETAS/RTA-CAR_12.2.0/RTA-CAR/workspace/Basic_Workflow/src/mcal/VirtualCan.cpp.o
 .xdata$_ZN13Can_VirtualHw24EnableTransmitProcessingEb
                0x0000000100437c64        0xc CMakeFiles/Basic_workflow.dir/cygdrive/c/ETAS/RTA-CAR_12.2.0/RTA-CAR/workspace/Basic_Workflow/src/mcal/VirtualCan.cpp.o
 .xdata$_ZN13Can_VirtualHw6DeInitEv
                0x0000000100437c70        0xc CMakeFiles/Basic_workflow.dir/cygdrive/c/ETAS/RTA-CAR_12.2.0/RTA-CAR/workspace/Basic_Workflow/src/mcal/VirtualCan.cpp.o
 .xdata$_ZN13Can_VirtualHw27GetControllerRxErrorCounterEPh
                0x0000000100437c7c        0xc CMakeFiles/Basic_workflow.dir/cygdrive/c/ETAS/RTA-CAR_12.2.0/RTA-CAR/workspace/Basic_Workflow/src/mcal/VirtualCan.cpp.o
 .xdata$_ZN13Can_VirtualHw28InjectControllerRxErrorCountEh
                0x0000000100437c88        0xc CMakeFiles/Basic_workflow.dir/cygdrive/c/ETAS/RTA-CAR_12.2.0/RTA-CAR/workspace/Basic_Workflow/src/mcal/VirtualCan.cpp.o
 .xdata$_ZN13Can_VirtualHw27GetControllerTxErrorCounterEPh
                0x0000000100437c94        0xc CMakeFiles/Basic_workflow.dir/cygdrive/c/ETAS/RTA-CAR_12.2.0/RTA-CAR/workspace/Basic_Workflow/src/mcal/VirtualCan.cpp.o
 .xdata$_ZN13Can_VirtualHw28InjectControllerTxErrorCountEh
                0x0000000100437ca0        0xc CMakeFiles/Basic_workflow.dir/cygdrive/c/ETAS/RTA-CAR_12.2.0/RTA-CAR/workspace/Basic_Workflow/src/mcal/VirtualCan.cpp.o
 .xdata$_ZN13Can_VirtualHw15ReadCurrentTimeEP17Can_TimeStampTypeh
                0x0000000100437cac        0xc CMakeFiles/Basic_workflow.dir/cygdrive/c/ETAS/RTA-CAR_12.2.0/RTA-CAR/workspace/Basic_Workflow/src/mcal/VirtualCan.cpp.o
 .xdata$_ZN13Can_VirtualHw17InjectCurrentTimeE17Can_TimeStampType
                0x0000000100437cb8        0xc CMakeFiles/Basic_workflow.dir/cygdrive/c/ETAS/RTA-CAR_12.2.0/RTA-CAR/workspace/Basic_Workflow/src/mcal/VirtualCan.cpp.o
 .xdata$_ZN13Can_VirtualHw21EnableEgressTimeStampEt
                0x0000000100437cc4        0xc CMakeFiles/Basic_workflow.dir/cygdrive/c/ETAS/RTA-CAR_12.2.0/RTA-CAR/workspace/Basic_Workflow/src/mcal/VirtualCan.cpp.o
 .xdata$_ZN13Can_VirtualHw27InjectEnableEgressTimeStampEth
                0x0000000100437cd0        0xc CMakeFiles/Basic_workflow.dir/cygdrive/c/ETAS/RTA-CAR_12.2.0/RTA-CAR/workspace/Basic_Workflow/src/mcal/VirtualCan.cpp.o
 .xdata$_ZN13Can_VirtualHw18GetEgressTimeStampEttP17Can_TimeStampType
                0x0000000100437cdc        0xc CMakeFiles/Basic_workflow.dir/cygdrive/c/ETAS/RTA-CAR_12.2.0/RTA-CAR/workspace/Basic_Workflow/src/mcal/VirtualCan.cpp.o
 .xdata$_ZN13Can_VirtualHw21InjectEgressTimeStampEtt17Can_TimeStampType
                0x0000000100437ce8        0xc CMakeFiles/Basic_workflow.dir/cygdrive/c/ETAS/RTA-CAR_12.2.0/RTA-CAR/workspace/Basic_Workflow/src/mcal/VirtualCan.cpp.o
 .xdata$_ZN13Can_VirtualHw19GetIngressTimeStampEtP17Can_TimeStampType
                0x0000000100437cf4        0xc CMakeFiles/Basic_workflow.dir/cygdrive/c/ETAS/RTA-CAR_12.2.0/RTA-CAR/workspace/Basic_Workflow/src/mcal/VirtualCan.cpp.o
 .xdata$_ZN13Can_VirtualHw22InjectIngressTimeStampEt17Can_TimeStampType
                0x0000000100437d00        0xc CMakeFiles/Basic_workflow.dir/cygdrive/c/ETAS/RTA-CAR_12.2.0/RTA-CAR/workspace/Basic_Workflow/src/mcal/VirtualCan.cpp.o
 .xdata$_ZN22Can_Virtual_HwProvider14IsHardwareHereEj
                0x0000000100437d0c        0xc CMakeFiles/Basic_workflow.dir/cygdrive/c/ETAS/RTA-CAR_12.2.0/RTA-CAR/workspace/Basic_Workflow/src/mcal/VirtualCan.cpp.o
 .xdata$_ZN22Can_Virtual_HwProvider17IsHardwarePresentEj
                0x0000000100437d18        0xc CMakeFiles/Basic_workflow.dir/cygdrive/c/ETAS/RTA-CAR_12.2.0/RTA-CAR/workspace/Basic_Workflow/src/mcal/VirtualCan.cpp.o
 .xdata$_ZN22Can_Virtual_HwProvider11GetHardwareEPFvj13Can_Hwp_EventtP13Can_Hwp_FrameEjj
                0x0000000100437d24       0x28 CMakeFiles/Basic_workflow.dir/cygdrive/c/ETAS/RTA-CAR_12.2.0/RTA-CAR/workspace/Basic_Workflow/src/mcal/VirtualCan.cpp.o
 .xdata$_ZN14Can_HwProviderD2Ev
                0x0000000100437d4c        0xc CMakeFiles/Basic_workflow.dir/cygdrive/c/ETAS/RTA-CAR_12.2.0/RTA-CAR/workspace/Basic_Workflow/src/mcal/VirtualCan.cpp.o
 .xdata$_ZN22Can_Virtual_HwProviderD1Ev
                0x0000000100437d58        0xc CMakeFiles/Basic_workflow.dir/cygdrive/c/ETAS/RTA-CAR_12.2.0/RTA-CAR/workspace/Basic_Workflow/src/mcal/VirtualCan.cpp.o
 .xdata$_ZN22Can_Virtual_HwProviderD0Ev
                0x0000000100437d64        0xc CMakeFiles/Basic_workflow.dir/cygdrive/c/ETAS/RTA-CAR_12.2.0/RTA-CAR/workspace/Basic_Workflow/src/mcal/VirtualCan.cpp.o
 .xdata$_ZN13Can_VirtualHwD1Ev
                0x0000000100437d70        0xc CMakeFiles/Basic_workflow.dir/cygdrive/c/ETAS/RTA-CAR_12.2.0/RTA-CAR/workspace/Basic_Workflow/src/mcal/VirtualCan.cpp.o
 .xdata$_ZN13Can_VirtualHwD0Ev
                0x0000000100437d7c        0xc CMakeFiles/Basic_workflow.dir/cygdrive/c/ETAS/RTA-CAR_12.2.0/RTA-CAR/workspace/Basic_Workflow/src/mcal/VirtualCan.cpp.o
 .xdata$_ZN14vrtaComparable5ValueEv
                0x0000000100437d88        0x8 CMakeFiles/Basic_workflow.dir/cygdrive/c/ETAS/RTA-CAR_12.2.0/RTA-CAR/workspace/Basic_Workflow/src/vrta/VRTA_SystemClock.cpp.o
 .xdata$_ZN13vrtaUpCounterC1EPcR13vrtaBaseClock
                0x0000000100437d90        0xc CMakeFiles/Basic_workflow.dir/cygdrive/c/ETAS/RTA-CAR_12.2.0/RTA-CAR/workspace/Basic_Workflow/src/vrta/VRTA_SystemClock.cpp.o
 .xdata         0x0000000100437d9c       0x3c CMakeFiles/Basic_workflow.dir/cygdrive/c/ETAS/RTA-CAR_12.2.0/RTA-CAR/workspace/Basic_Workflow/src/vrta/VRTA_SystemClock.cpp.o
 .xdata$_ZN9vrtaClockD1Ev
                0x0000000100437dd8        0xc CMakeFiles/Basic_workflow.dir/cygdrive/c/ETAS/RTA-CAR_12.2.0/RTA-CAR/workspace/Basic_Workflow/src/vrta/VRTA_SystemClock.cpp.o
 .xdata         0x0000000100437de4       0x44 CMakeFiles/Basic_workflow.dir/cygdrive/c/ETAS/RTA-CAR_12.2.0/RTA-CAR/workspace/Basic_Workflow/src/vrta/Vrta_Cfg.cpp.o
 .xdata         0x0000000100437e28       0x30 CMakeFiles/Basic_workflow.dir/cygdrive/c/ETAS/RTA-CAR_12.2.0/RTA-CAR/workspace/Basic_Workflow/src/vrta/target.cpp.o
 .xdata$_ZNK10__cxxabiv117__class_type_info11__do_upcastEPKS0_PPv
                0x0000000100437e58        0x8 /usr/lib/gcc/x86_64-pc-cygwin/11/libstdc++.a(class_type_info.o)
 .xdata$_ZNK10__cxxabiv117__class_type_info20__do_find_public_srcElPKvPKS0_S2_
                0x0000000100437e60        0x4 /usr/lib/gcc/x86_64-pc-cygwin/11/libstdc++.a(class_type_info.o)
 .xdata$_ZN10__cxxabiv117__class_type_infoD2Ev
                0x0000000100437e64        0x4 /usr/lib/gcc/x86_64-pc-cygwin/11/libstdc++.a(class_type_info.o)
 .xdata$_ZN10__cxxabiv117__class_type_infoD0Ev
                0x0000000100437e68        0x8 /usr/lib/gcc/x86_64-pc-cygwin/11/libstdc++.a(class_type_info.o)
 .xdata$_ZNK10__cxxabiv117__class_type_info12__do_dyncastElNS0_10__sub_kindEPKS0_PKvS3_S5_RNS0_16__dyncast_resultE
                0x0000000100437e70       0x10 /usr/lib/gcc/x86_64-pc-cygwin/11/libstdc++.a(class_type_info.o)
 .xdata$_ZNK10__cxxabiv117__class_type_info11__do_upcastEPKS0_PKvRNS0_15__upcast_resultE
                0x0000000100437e80        0xc /usr/lib/gcc/x86_64-pc-cygwin/11/libstdc++.a(class_type_info.o)
 .xdata$_ZNK10__cxxabiv117__class_type_info10__do_catchEPKSt9type_infoPPvj
                0x0000000100437e8c       0x10 /usr/lib/gcc/x86_64-pc-cygwin/11/libstdc++.a(class_type_info.o)
 .xdata$_ZdlPvm
                0x0000000100437e9c        0x4 /usr/lib/gcc/x86_64-pc-cygwin/11/libstdc++.a(del_ops.o)
 .xdata$_ZdaPv  0x0000000100437ea0        0x4 /usr/lib/gcc/x86_64-pc-cygwin/11/libstdc++.a(del_opv.o)
 .xdata$_ZdaPvm
                0x0000000100437ea4        0x4 /usr/lib/gcc/x86_64-pc-cygwin/11/libstdc++.a(del_opvs.o)
 .xdata.unlikely.__cxa_bad_cast
                0x0000000100437ea8        0x8 /usr/lib/gcc/x86_64-pc-cygwin/11/libstdc++.a(eh_aux_runtime.o)
 .xdata.unlikely.__cxa_bad_typeid
                0x0000000100437eb0        0x8 /usr/lib/gcc/x86_64-pc-cygwin/11/libstdc++.a(eh_aux_runtime.o)
 .xdata.unlikely.__cxa_throw_bad_array_new_length
                0x0000000100437eb8        0x8 /usr/lib/gcc/x86_64-pc-cygwin/11/libstdc++.a(eh_aux_runtime.o)
 .xdata$_ZL16get_adjusted_ptrPKSt9type_infoS1_PPv
                0x0000000100437ec0        0xc /usr/lib/gcc/x86_64-pc-cygwin/11/libstdc++.a(eh_personality.o)
 .xdata$_ZL21base_of_encoded_valuehP15_Unwind_Context
                0x0000000100437ecc        0x8 /usr/lib/gcc/x86_64-pc-cygwin/11/libstdc++.a(eh_personality.o)
 .xdata$_ZL28read_encoded_value_with_basehmPKhPm
                0x0000000100437ed4        0xc /usr/lib/gcc/x86_64-pc-cygwin/11/libstdc++.a(eh_personality.o)
 .xdata$_ZL20check_exception_specP16lsda_header_infoPKSt9type_infoPvl
                0x0000000100437ee0       0x10 /usr/lib/gcc/x86_64-pc-cygwin/11/libstdc++.a(eh_personality.o)
 .xdata$_ZL17parse_lsda_headerP15_Unwind_ContextPKhP16lsda_header_info
                0x0000000100437ef0       0x10 /usr/lib/gcc/x86_64-pc-cygwin/11/libstdc++.a(eh_personality.o)
 .xdata$_ZN10__cxxabiv1L21__gxx_personality_impEiimP17_Unwind_ExceptionP15_Unwind_Context
                0x0000000100437f00       0x38 /usr/lib/gcc/x86_64-pc-cygwin/11/libstdc++.a(eh_personality.o)
 .xdata$__cxa_call_unexpected
                0x0000000100437f38       0x34 /usr/lib/gcc/x86_64-pc-cygwin/11/libstdc++.a(eh_personality.o)
 .xdata$__gxx_personality_seh0
                0x0000000100437f6c        0x8 /usr/lib/gcc/x86_64-pc-cygwin/11/libstdc++.a(eh_personality.o)
 .xdata$_ZN10__cxxabiv111__terminateEPFvvE
                0x0000000100437f74       0x1c /usr/lib/gcc/x86_64-pc-cygwin/11/libstdc++.a(eh_terminate.o)
 .xdata$_ZSt9terminatev
                0x0000000100437f90        0x8 /usr/lib/gcc/x86_64-pc-cygwin/11/libstdc++.a(eh_terminate.o)
 .xdata$_ZN10__cxxabiv112__unexpectedEPFvvE
                0x0000000100437f98        0x8 /usr/lib/gcc/x86_64-pc-cygwin/11/libstdc++.a(eh_terminate.o)
 .xdata$_ZSt10unexpectedv
                0x0000000100437fa0        0x8 /usr/lib/gcc/x86_64-pc-cygwin/11/libstdc++.a(eh_terminate.o)
 .xdata$_ZSt13set_terminatePFvvE
                0x0000000100437fa8        0x4 /usr/lib/gcc/x86_64-pc-cygwin/11/libstdc++.a(eh_terminate.o)
 .xdata$_ZSt13get_terminatev
                0x0000000100437fac        0x4 /usr/lib/gcc/x86_64-pc-cygwin/11/libstdc++.a(eh_terminate.o)
 .xdata$_ZSt14set_unexpectedPFvvE
                0x0000000100437fb0        0x4 /usr/lib/gcc/x86_64-pc-cygwin/11/libstdc++.a(eh_terminate.o)
 .xdata$_ZSt14get_unexpectedv
                0x0000000100437fb4        0x4 /usr/lib/gcc/x86_64-pc-cygwin/11/libstdc++.a(eh_terminate.o)
 .xdata$_ZL23__gxx_exception_cleanup19_Unwind_Reason_CodeP17_Unwind_Exception
                0x0000000100437fb8        0x8 /usr/lib/gcc/x86_64-pc-cygwin/11/libstdc++.a(eh_throw.o)
 .xdata$__cxa_init_primary_exception
                0x0000000100437fc0        0x8 /usr/lib/gcc/x86_64-pc-cygwin/11/libstdc++.a(eh_throw.o)
 .xdata$__cxa_throw
                0x0000000100437fc8        0xc /usr/lib/gcc/x86_64-pc-cygwin/11/libstdc++.a(eh_throw.o)
 .xdata$__cxa_rethrow
                0x0000000100437fd4        0x8 /usr/lib/gcc/x86_64-pc-cygwin/11/libstdc++.a(eh_throw.o)
 .xdata$_Znwm   0x0000000100437fdc        0x8 /usr/lib/gcc/x86_64-pc-cygwin/11/libstdc++.a(new_op.o)
 .xdata$_Znam   0x0000000100437fe4        0x4 /usr/lib/gcc/x86_64-pc-cygwin/11/libstdc++.a(new_opv.o)
 .xdata$_ZN10__cxxabiv120__si_class_type_infoD2Ev
                0x0000000100437fe8        0x4 /usr/lib/gcc/x86_64-pc-cygwin/11/libstdc++.a(si_class_type_info.o)
 .xdata$_ZN10__cxxabiv120__si_class_type_infoD0Ev
                0x0000000100437fec        0x8 /usr/lib/gcc/x86_64-pc-cygwin/11/libstdc++.a(si_class_type_info.o)
 .xdata$_ZNK10__cxxabiv120__si_class_type_info20__do_find_public_srcElPKvPKNS_17__class_type_infoES2_
                0x0000000100437ff4        0xc /usr/lib/gcc/x86_64-pc-cygwin/11/libstdc++.a(si_class_type_info.o)
 .xdata$_ZNK10__cxxabiv120__si_class_type_info12__do_dyncastElNS_17__class_type_info10__sub_kindEPKS1_PKvS4_S6_RNS1_16__dyncast_resultE
                0x0000000100438000       0x18 /usr/lib/gcc/x86_64-pc-cygwin/11/libstdc++.a(si_class_type_info.o)
 .xdata$_ZNK10__cxxabiv120__si_class_type_info11__do_upcastEPKNS_17__class_type_infoEPKvRNS1_15__upcast_resultE
                0x0000000100438018       0x10 /usr/lib/gcc/x86_64-pc-cygwin/11/libstdc++.a(si_class_type_info.o)
 .xdata$_ZNSt9type_infoD2Ev
                0x0000000100438028        0x4 /usr/lib/gcc/x86_64-pc-cygwin/11/libstdc++.a(tinfo.o)
 .xdata$_ZNKSt9type_info14__is_pointer_pEv
                0x000000010043802c        0x4 /usr/lib/gcc/x86_64-pc-cygwin/11/libstdc++.a(tinfo.o)
 .xdata$_ZNKSt9type_info11__do_upcastEPKN10__cxxabiv117__class_type_infoEPPv
                0x0000000100438030        0x4 /usr/lib/gcc/x86_64-pc-cygwin/11/libstdc++.a(tinfo.o)
 .xdata$_ZNSt9type_infoD0Ev
                0x0000000100438034        0x4 /usr/lib/gcc/x86_64-pc-cygwin/11/libstdc++.a(tinfo.o)
 .xdata$_ZNKSt9type_info10__do_catchEPKS_PPvj
                0x0000000100438038        0x8 /usr/lib/gcc/x86_64-pc-cygwin/11/libstdc++.a(tinfo.o)
 .xdata$_ZNKSt9type_infoeqERKS_
                0x0000000100438040        0x8 /usr/lib/gcc/x86_64-pc-cygwin/11/libstdc++.a(tinfo.o)
 .xdata$_ZN9__gnu_cxx27__verbose_terminate_handlerEv
                0x0000000100438048       0x3c /usr/lib/gcc/x86_64-pc-cygwin/11/libstdc++.a(vterminate.o)
 .xdata$_ZNKSt9bad_alloc4whatEv
                0x0000000100438084        0x4 /usr/lib/gcc/x86_64-pc-cygwin/11/libstdc++.a(bad_alloc.o)
 .xdata$_ZNSt9bad_allocD2Ev
                0x0000000100438088        0x4 /usr/lib/gcc/x86_64-pc-cygwin/11/libstdc++.a(bad_alloc.o)
 .xdata$_ZNSt9bad_allocD0Ev
                0x000000010043808c        0x8 /usr/lib/gcc/x86_64-pc-cygwin/11/libstdc++.a(bad_alloc.o)
 .xdata$_ZNKSt20bad_array_new_length4whatEv
                0x0000000100438094        0x4 /usr/lib/gcc/x86_64-pc-cygwin/11/libstdc++.a(bad_array_new.o)
 .xdata$_ZNSt20bad_array_new_lengthD2Ev
                0x0000000100438098        0x4 /usr/lib/gcc/x86_64-pc-cygwin/11/libstdc++.a(bad_array_new.o)
 .xdata$_ZNSt20bad_array_new_lengthD0Ev
                0x000000010043809c        0x8 /usr/lib/gcc/x86_64-pc-cygwin/11/libstdc++.a(bad_array_new.o)
 .xdata$_ZNKSt8bad_cast4whatEv
                0x00000001004380a4        0x4 /usr/lib/gcc/x86_64-pc-cygwin/11/libstdc++.a(bad_cast.o)
 .xdata$_ZNSt8bad_castD2Ev
                0x00000001004380a8        0x4 /usr/lib/gcc/x86_64-pc-cygwin/11/libstdc++.a(bad_cast.o)
 .xdata$_ZNSt8bad_castD0Ev
                0x00000001004380ac        0x8 /usr/lib/gcc/x86_64-pc-cygwin/11/libstdc++.a(bad_cast.o)
 .xdata$_ZNKSt10bad_typeid4whatEv
                0x00000001004380b4        0x4 /usr/lib/gcc/x86_64-pc-cygwin/11/libstdc++.a(bad_typeid.o)
 .xdata$_ZNSt10bad_typeidD2Ev
                0x00000001004380b8        0x4 /usr/lib/gcc/x86_64-pc-cygwin/11/libstdc++.a(bad_typeid.o)
 .xdata$_ZNSt10bad_typeidD0Ev
                0x00000001004380bc        0x8 /usr/lib/gcc/x86_64-pc-cygwin/11/libstdc++.a(bad_typeid.o)
 .xdata         0x00000001004380c4      0x264 /usr/lib/gcc/x86_64-pc-cygwin/11/libstdc++.a(cp-demangle.o)
 .xdata.unlikely
                0x0000000100438328       0x20 /usr/lib/gcc/x86_64-pc-cygwin/11/libstdc++.a(cp-demangle.o)
 .xdata$_ZdlPv  0x0000000100438348        0x4 /usr/lib/gcc/x86_64-pc-cygwin/11/libstdc++.a(del_op.o)
 .xdata$_ZNK9__gnu_cxx24__concurrence_lock_error4whatEv
                0x000000010043834c        0x4 /usr/lib/gcc/x86_64-pc-cygwin/11/libstdc++.a(eh_alloc.o)
 .xdata$_ZNK9__gnu_cxx26__concurrence_unlock_error4whatEv
                0x0000000100438350        0x4 /usr/lib/gcc/x86_64-pc-cygwin/11/libstdc++.a(eh_alloc.o)
 .xdata$_ZN9__gnu_cxx24__concurrence_lock_errorD1Ev
                0x0000000100438354        0x4 /usr/lib/gcc/x86_64-pc-cygwin/11/libstdc++.a(eh_alloc.o)
 .xdata$_ZN9__gnu_cxx26__concurrence_unlock_errorD1Ev
                0x0000000100438358        0x4 /usr/lib/gcc/x86_64-pc-cygwin/11/libstdc++.a(eh_alloc.o)
 .xdata$_ZN9__gnu_cxx24__concurrence_lock_errorD0Ev
                0x000000010043835c        0x8 /usr/lib/gcc/x86_64-pc-cygwin/11/libstdc++.a(eh_alloc.o)
 .xdata$_ZN9__gnu_cxx26__concurrence_unlock_errorD0Ev
                0x0000000100438364        0x8 /usr/lib/gcc/x86_64-pc-cygwin/11/libstdc++.a(eh_alloc.o)
 .xdata$_ZN9__gnu_cxx30__throw_concurrence_lock_errorEv
                0x000000010043836c        0x8 /usr/lib/gcc/x86_64-pc-cygwin/11/libstdc++.a(eh_alloc.o)
 .xdata$_ZN9__gnu_cxx32__throw_concurrence_unlock_errorEv
                0x0000000100438374        0x8 /usr/lib/gcc/x86_64-pc-cygwin/11/libstdc++.a(eh_alloc.o)
 .xdata$_ZN12_GLOBAL__N_14pool4freeEPv.constprop.0
                0x000000010043837c       0x20 /usr/lib/gcc/x86_64-pc-cygwin/11/libstdc++.a(eh_alloc.o)
 .xdata$_ZN12_GLOBAL__N_14pool8allocateEm.constprop.0
                0x000000010043839c       0x20 /usr/lib/gcc/x86_64-pc-cygwin/11/libstdc++.a(eh_alloc.o)
 .xdata$_ZN9__gnu_cxx9__freeresEv
                0x00000001004383bc        0x8 /usr/lib/gcc/x86_64-pc-cygwin/11/libstdc++.a(eh_alloc.o)
 .xdata$__cxa_allocate_exception
                0x00000001004383c4       0x14 /usr/lib/gcc/x86_64-pc-cygwin/11/libstdc++.a(eh_alloc.o)
 .xdata$__cxa_free_exception
                0x00000001004383d8       0x10 /usr/lib/gcc/x86_64-pc-cygwin/11/libstdc++.a(eh_alloc.o)
 .xdata$__cxa_allocate_dependent_exception
                0x00000001004383e8       0x10 /usr/lib/gcc/x86_64-pc-cygwin/11/libstdc++.a(eh_alloc.o)
 .xdata$__cxa_free_dependent_exception
                0x00000001004383f8       0x10 /usr/lib/gcc/x86_64-pc-cygwin/11/libstdc++.a(eh_alloc.o)
 .xdata.startup._GLOBAL__sub_I__ZN9__gnu_cxx9__freeresEv
                0x0000000100438408        0x8 /usr/lib/gcc/x86_64-pc-cygwin/11/libstdc++.a(eh_alloc.o)
 .xdata$__cxa_call_terminate
                0x0000000100438410        0x8 /usr/lib/gcc/x86_64-pc-cygwin/11/libstdc++.a(eh_call.o)
 .xdata$__cxa_get_exception_ptr
                0x0000000100438418        0x4 /usr/lib/gcc/x86_64-pc-cygwin/11/libstdc++.a(eh_catch.o)
 .xdata$__cxa_begin_catch
                0x000000010043841c        0x8 /usr/lib/gcc/x86_64-pc-cygwin/11/libstdc++.a(eh_catch.o)
 .xdata$__cxa_end_catch
                0x0000000100438424        0x8 /usr/lib/gcc/x86_64-pc-cygwin/11/libstdc++.a(eh_catch.o)
 .xdata$_ZSt18uncaught_exceptionv
                0x000000010043842c        0x8 /usr/lib/gcc/x86_64-pc-cygwin/11/libstdc++.a(eh_catch.o)
 .xdata$_ZSt19uncaught_exceptionsv
                0x0000000100438434        0x8 /usr/lib/gcc/x86_64-pc-cygwin/11/libstdc++.a(eh_catch.o)
 .xdata$_ZNSt9exceptionD2Ev
                0x000000010043843c        0x4 /usr/lib/gcc/x86_64-pc-cygwin/11/libstdc++.a(eh_exception.o)
 .xdata$_ZNSt13bad_exceptionD2Ev
                0x0000000100438440        0x4 /usr/lib/gcc/x86_64-pc-cygwin/11/libstdc++.a(eh_exception.o)
 .xdata$_ZNKSt9exception4whatEv
                0x0000000100438444        0x4 /usr/lib/gcc/x86_64-pc-cygwin/11/libstdc++.a(eh_exception.o)
 .xdata$_ZNKSt13bad_exception4whatEv
                0x0000000100438448        0x4 /usr/lib/gcc/x86_64-pc-cygwin/11/libstdc++.a(eh_exception.o)
 .xdata$_ZNSt9exceptionD0Ev
                0x000000010043844c        0x4 /usr/lib/gcc/x86_64-pc-cygwin/11/libstdc++.a(eh_exception.o)
 .xdata$_ZNSt13bad_exceptionD0Ev
                0x0000000100438450        0x4 /usr/lib/gcc/x86_64-pc-cygwin/11/libstdc++.a(eh_exception.o)
 .xdata$_ZN10__cxxabiv115__forced_unwindD2Ev
                0x0000000100438454        0x4 /usr/lib/gcc/x86_64-pc-cygwin/11/libstdc++.a(eh_exception.o)
 .xdata$_ZN10__cxxabiv115__forced_unwindD0Ev
                0x0000000100438458        0x4 /usr/lib/gcc/x86_64-pc-cygwin/11/libstdc++.a(eh_exception.o)
 .xdata$_ZN10__cxxabiv119__foreign_exceptionD2Ev
                0x000000010043845c        0x4 /usr/lib/gcc/x86_64-pc-cygwin/11/libstdc++.a(eh_exception.o)
 .xdata$_ZN10__cxxabiv119__foreign_exceptionD0Ev
                0x0000000100438460        0x4 /usr/lib/gcc/x86_64-pc-cygwin/11/libstdc++.a(eh_exception.o)
 .xdata$_ZGTtNKSt9exceptionD1Ev
                0x0000000100438464        0x4 /usr/lib/gcc/x86_64-pc-cygwin/11/libstdc++.a(eh_exception.o)
 .xdata$_ZGTtNKSt13bad_exceptionD1Ev
                0x0000000100438468        0x4 /usr/lib/gcc/x86_64-pc-cygwin/11/libstdc++.a(eh_exception.o)
 .xdata$__cxa_get_globals_fast
                0x000000010043846c        0x4 /usr/lib/gcc/x86_64-pc-cygwin/11/libstdc++.a(eh_globals.o)
 .xdata$__cxa_get_globals
                0x0000000100438470        0x4 /usr/lib/gcc/x86_64-pc-cygwin/11/libstdc++.a(eh_globals.o)
 .xdata$__cxa_current_exception_type
                0x0000000100438474        0x8 /usr/lib/gcc/x86_64-pc-cygwin/11/libstdc++.a(eh_type.o)
 .xdata$_ZSt15set_new_handlerPFvvE
                0x000000010043847c        0x4 /usr/lib/gcc/x86_64-pc-cygwin/11/libstdc++.a(new_handler.o)
 .xdata$_ZSt15get_new_handlerv
                0x0000000100438480        0x4 /usr/lib/gcc/x86_64-pc-cygwin/11/libstdc++.a(new_handler.o)
 .xdata         0x0000000100438484       0x94 /usr/lib/gcc/x86_64-pc-cygwin/11/libgcc_eh.a(unwind-seh.o)
 .xdata         0x0000000100438518       0x28 /usr/lib/gcc/x86_64-pc-cygwin/11/libgcc_eh.a(emutls.o)
 .xdata         0x0000000100438540        0x8 /usr/lib/gcc/x86_64-pc-cygwin/11/../../../../lib/libcygwin.a(atexit.o)
 .xdata         0x0000000100438548        0x8 /usr/lib/gcc/x86_64-pc-cygwin/11/../../../../lib/libcygwin.a(cygwin_crt0.o)
 .xdata.startup
                0x0000000100438550       0x10 /usr/lib/gcc/x86_64-pc-cygwin/11/../../../../lib/libcygwin.a(libcmain.o)
 .xdata         0x0000000100438560        0x4 /usr/lib/gcc/x86_64-pc-cygwin/11/../../../../lib/libcygwin.a(premain0.o)
 .xdata         0x0000000100438564        0x4 /usr/lib/gcc/x86_64-pc-cygwin/11/../../../../lib/libcygwin.a(premain1.o)
 .xdata         0x0000000100438568        0x4 /usr/lib/gcc/x86_64-pc-cygwin/11/../../../../lib/libcygwin.a(premain2.o)
 .xdata         0x000000010043856c        0x4 /usr/lib/gcc/x86_64-pc-cygwin/11/../../../../lib/libcygwin.a(premain3.o)
 .xdata         0x0000000100438570        0xc /usr/lib/gcc/x86_64-pc-cygwin/11/../../../../lib/libcygwin.a(_cygwin_crt0_common.o)
 .xdata         0x000000010043857c        0xc /usr/lib/gcc/x86_64-pc-cygwin/11/../../../../lib/libcygwin.a(dll_entry.o)
 .xdata         0x0000000100438588        0x4 /usr/lib/gcc/x86_64-pc-cygwin/11/../../../../lib/libcygwin.a(dll_main.o)
 .xdata         0x000000010043858c        0x4 /usr/lib/gcc/x86_64-pc-cygwin/11/../../../../lib/libcygwin.a(pseudo-reloc-dummy.o)
 .xdata         0x0000000100438590        0xc /usr/lib/gcc/x86_64-pc-cygwin/11/../../../../lib/libcygwin.a(cygwin_attach_dll.o)
 .xdata.startup
                0x000000010043859c        0x4 /usr/lib/gcc/x86_64-pc-cygwin/11/crtend.o

.bss            0x0000000100439000      0x8c0
                0x0000000100439000                __bss_start__ = .
 *(.bss)
 .bss           0x0000000100439000        0x0 /usr/lib/gcc/x86_64-pc-cygwin/11/../../../../lib/crt0.o
 .bss           0x0000000100439000        0x0 /usr/lib/gcc/x86_64-pc-cygwin/11/crtbegin.o
 .bss           0x0000000100439000       0x10 CMakeFiles/Basic_workflow.dir/Unity/unity_4_c.c.o
                0x0000000100439000                PduR_Base
                0x0000000100439008                PduR_State
 .bss           0x0000000100439010       0x40 CMakeFiles/Basic_workflow.dir/Unity/unity_3_c.c.o
                0x0000000100439010                ComM_UserStruct
                0x000000010043901a                ComM_NvMblock
                0x0000000100439020                ComM_GlobalStruct
                0x0000000100439030                ComM_ChannelStruct
 .bss           0x0000000100439050       0x10 CMakeFiles/Basic_workflow.dir/Unity/unity_2_c.c.o
                0x0000000100439050                Com_InitStatus_en
 .bss           0x0000000100439060       0xb0 CMakeFiles/Basic_workflow.dir/Unity/unity_1_c.c.o
                0x0000000100439060                CanIf_Prv_RxNotification_taen
                0x0000000100439064                CanIf_Prv_TxNotification_aen
                0x0000000100439068                CanIf_Prv_InitStatus_b
                0x0000000100439069                CanIf_Prv_ControllerState_ast
                0x0000000100439070                CanSM_TimerConfig_ast
                0x0000000100439078                CanSM_Init_ab
                0x000000010043907c                CanSM_CurrNw_Mode_en
                0x0000000100439080                CanSM_currBOR_State_en
                0x0000000100439084                CanSM_BusOff_Indicated_ab
                0x0000000100439085                CanSM_ReqComM_Mode_en
                0x0000000100439086                CanSM_Wuvalidation_Start_ab
                0x0000000100439087                CanSM_BusOffISRPend_ab
                0x0000000100439088                CanSM_Trcv_ModeInd_ab
                0x0000000100439089                CanSM_ModeChangeReq_flag
                0x000000010043908c                CanSM_ReqMode_a
                0x0000000100439090                CanSM_Ctrl_ModeInd_ab
                0x0000000100439094                CanSM_PreNoCom_Substates_en
                0x0000000100439098                CanSM_BusSMMode_au8
                0x000000010043909c                CanSM_PreFullCom_Substates_en
                0x00000001004390a0                CanSM_WakeUpValidation_Substates_en
                0x00000001004390a4                CanSM_TxTimeoutexception_Substates_en
                0x00000001004390a8                CanSM_ControllerState_en
                0x00000001004390ac                CanSM_Network_Init_ab
                0x00000001004390ad                CanSM_ControllerIndications_ab
                0x00000001004390b0                CanSM_BOR_Controller_Stopped_state_en
                0x00000001004390b8                CanSM_Network_pcst
                0x00000001004390c0                CanSM_Rb_DisableBusOffRecovery_ab
                0x00000001004390c1                CanSM_BOR_SilentCom_ab
                0x00000001004390c2                CanSM_NoComRequested_ab
                0x00000001004390c3                CanSM_BusOff_Cntr_au8
                0x00000001004390c4                CanSM_BORMode_au8
                0x00000001004390c5                CanSM_MutexMode_au8
                0x00000001004390c6                CanSM_Num_Unsuccessful_ModeReq_au8
                0x00000001004390c7                CanSM_ModeRepeatReq_Max_u8
                0x00000001004390c8                CanSM_GetBusOffDelay_Value_u8
                0x00000001004390ca                CanSM_ModeRepeatReq_Time_u16
                0x00000001004390d0                CanSM_ConfigSet_pcst
                0x00000001004390d8                Com_dIP_ApplicationECU_To_TestECU_Can_Network_Channel_CAN_TxByte
                0x00000001004390e0                Com_dIP_TestECU_To_ApplicationECU_Can_Network_Channel_CAN_RxByte
                0x00000001004390e8                Com_Prv_RxSigFlagS_TestECU_To_ApplicationECU_Data_Can_Network_Channel_CAN_Rx_st
                0x00000001004390e9                Com_Prv_TxSigFlagS_ApplicationECU_To_TestECU_Data_Can_Network_Channel_CAN_Tx_st
                0x00000001004390ea                Com_Prv_RxIpduRam_IP_TestECU_To_ApplicationECU_Can_Network_Channel_CAN_Rx_st
                0x00000001004390f0                Com_Prv_TxIpduRam_IP_ApplicationECU_To_TestECU_Can_Network_Channel_CAN_Tx_st
                0x0000000100439108                Com_Prv_IpduGrpRam_ComIPduGroup_Tx_st
                0x0000000100439109                Com_Prv_IpduGrpRam_ComIPduGroup_Rx_st
                0x000000010043910a                Com_RxSigBuf_ComMainFunctionRx_au8
 *fill*         0x0000000100439110       0x10 
 .bss           0x0000000100439120      0x1a0 CMakeFiles/Basic_workflow.dir/Unity/unity_0_c.c.o
                0x0000000100439120                BswM_Prv_flgDelayedReqstProgress_b
                0x0000000100439121                BswM_Prv_flgDeferredReqstProgress_b
                0x0000000100439122                BswM_Prv_flgNewReqstProgress_b
                0x0000000100439123                BswM_Prv_flgDelayDeferredReqst_b
                0x0000000100439124                BswM_Prv_isReqstDelayed_b
                0x0000000100439125                BswM_Prv_flgTimerActionState_b
                0x0000000100439126                BswM_Prv_isModuleInitialised_b
                0x0000000100439127                BswM_Prv_ctrInterrupt_u8
                0x0000000100439128                BswM_Rb_ctrInterrupt_au8
                0x0000000100439130                BswM_Prv_adrSelectedConfig_pcst
                0x0000000100439138                BswM_Prv_IntrptQueueInfo_st
                0x000000010043913b                BswM_Cfg_ComMIndicationModeInfo_ast
                0x0000000100439140                BswM_Cfg_GenericReqModeInfo_ast
                0x000000010043914c                BswM_isMultipleActionListTriggered_ab
                0x0000000100439160                BswM_Prv_DeferredRuleEvaluation_b
                0x0000000100439260                CanIf_Prv_ConfigSet_tpst
 .bss           0x00000001004392c0       0x10 CMakeFiles/Basic_workflow.dir/cygdrive/c/ETAS/RTA-CAR_12.2.0/RTA-CAR/workspace/Basic_Workflow/src/asw/MySWC.c.o
 .bss           0x00000001004392d0       0x10 CMakeFiles/Basic_workflow.dir/cygdrive/c/ETAS/RTA-CAR_12.2.0/RTA-CAR/workspace/Basic_Workflow/src/bsw/Det/src/Det.c.o
                0x00000001004392d0                Det_Initialized_b
                0x00000001004392d8                Det_ActiveConfigPtr
 .bss           0x00000001004392e0        0x0 CMakeFiles/Basic_workflow.dir/cygdrive/c/ETAS/RTA-CAR_12.2.0/RTA-CAR/workspace/Basic_Workflow/src/bsw/EcuM/EcuM_Cfg.c.o
 .bss           0x00000001004392e0        0x0 CMakeFiles/Basic_workflow.dir/cygdrive/c/ETAS/RTA-CAR_12.2.0/RTA-CAR/workspace/Basic_Workflow/src/bsw/EcuM/EcuM_Cfg_PbExt.c.o
 .bss           0x00000001004392e0        0x0 CMakeFiles/Basic_workflow.dir/cygdrive/c/ETAS/RTA-CAR_12.2.0/RTA-CAR/workspace/Basic_Workflow/src/bsw/EcuM/EcuM_Cfg_RbMo.c.o
 .bss           0x00000001004392e0        0x0 CMakeFiles/Basic_workflow.dir/cygdrive/c/ETAS/RTA-CAR_12.2.0/RTA-CAR/workspace/Basic_Workflow/src/bsw/EcuM/EcuM_Cfg_Shutdown.c.o
 .bss           0x00000001004392e0        0x0 CMakeFiles/Basic_workflow.dir/cygdrive/c/ETAS/RTA-CAR_12.2.0/RTA-CAR/workspace/Basic_Workflow/src/bsw/EcuM/EcuM_Cfg_Sleep.c.o
 .bss           0x00000001004392e0        0x0 CMakeFiles/Basic_workflow.dir/cygdrive/c/ETAS/RTA-CAR_12.2.0/RTA-CAR/workspace/Basic_Workflow/src/bsw/EcuM/EcuM_Cfg_Startup.c.o
 .bss           0x00000001004392e0        0x0 CMakeFiles/Basic_workflow.dir/cygdrive/c/ETAS/RTA-CAR_12.2.0/RTA-CAR/workspace/Basic_Workflow/src/bsw/EcuM/EcuM_Cfg_SynchPoint.c.o
 .bss           0x00000001004392e0        0x0 CMakeFiles/Basic_workflow.dir/cygdrive/c/ETAS/RTA-CAR_12.2.0/RTA-CAR/workspace/Basic_Workflow/src/bsw/EcuM/EcuM_Lcfg.c.o
 .bss           0x00000001004392e0        0x0 CMakeFiles/Basic_workflow.dir/cygdrive/c/ETAS/RTA-CAR_12.2.0/RTA-CAR/workspace/Basic_Workflow/src/bsw/EcuM/EcuM_PBcfg.c.o
 .bss           0x00000001004392e0       0x10 CMakeFiles/Basic_workflow.dir/cygdrive/c/ETAS/RTA-CAR_12.2.0/RTA-CAR/workspace/Basic_Workflow/src/bsw/EcuM/integration/EcuM_Callout_Stubs.c.o
 .bss           0x00000001004392f0        0x0 CMakeFiles/Basic_workflow.dir/cygdrive/c/ETAS/RTA-CAR_12.2.0/RTA-CAR/workspace/Basic_Workflow/src/bsw/EcuM/src/EcuM_BootTarget.c.o
 .bss           0x00000001004392f0        0x0 CMakeFiles/Basic_workflow.dir/cygdrive/c/ETAS/RTA-CAR_12.2.0/RTA-CAR/workspace/Basic_Workflow/src/bsw/EcuM/src/EcuM_CurrentState.c.o
 .bss           0x00000001004392f0        0x0 CMakeFiles/Basic_workflow.dir/cygdrive/c/ETAS/RTA-CAR_12.2.0/RTA-CAR/workspace/Basic_Workflow/src/bsw/EcuM/src/EcuM_KillAllRequests.c.o
 .bss           0x00000001004392f0        0x0 CMakeFiles/Basic_workflow.dir/cygdrive/c/ETAS/RTA-CAR_12.2.0/RTA-CAR/workspace/Basic_Workflow/src/bsw/EcuM/src/EcuM_MainFunction.c.o
 .bss           0x00000001004392f0        0x0 CMakeFiles/Basic_workflow.dir/cygdrive/c/ETAS/RTA-CAR_12.2.0/RTA-CAR/workspace/Basic_Workflow/src/bsw/EcuM/src/EcuM_Misc.c.o
 .bss           0x00000001004392f0       0x40 CMakeFiles/Basic_workflow.dir/cygdrive/c/ETAS/RTA-CAR_12.2.0/RTA-CAR/workspace/Basic_Workflow/src/bsw/EcuM/src/EcuM_Prv.c.o
                0x00000001004392f0                EcuM_Prv_dataSelectedBootTarget_u8
                0x00000001004392f1                EcuM_Prv_dataSelectedBootTargetInit_u8
                0x00000001004392f2                EcuM_Prv_dataPresentPhase_u8
                0x00000001004392f3                EcuM_Prv_SlaveCoreTimeoutCtr_u8
                0x00000001004392f4                EcuM_Prv_dataSelectedShutdownCause_u8
                0x00000001004392f6                EcuM_Prv_dataSelectedShutdownTarget_st
                0x00000001004392fc                EcuM_Prv_dataOldPendingWakeupEvents_u32
                0x0000000100439300                EcuM_Prv_dataExpiredWakeupEvents_u32
                0x0000000100439304                EcuM_Prv_dataClrWkpEventsInd_u32
                0x0000000100439308                EcuM_Prv_dataPndWkpEventsInd_u32
                0x000000010043930c                EcuM_Prv_dataValWkpEventsInd_u32
                0x0000000100439310                EcuM_Prv_dataExpWkpEventsInd_u32
                0x0000000100439314                EcuM_Prv_dataPendingWakeupEvents_u32
                0x0000000100439318                EcuM_Prv_dataValidatedWakeupEvents_u32
                0x000000010043931c                EcuM_Prv_WkpSrcValidationTimeoutCtr_u16
                0x0000000100439320                EcuM_Rb_adrConfigPtr_st
                0x0000000100439328                EcuM_Prv_flgIsModuleInitialised_b
                0x0000000100439329                EcuM_Prv_flgIsStartupTwoCalled_ab
                0x000000010043932a                EcuM_Prv_flgCoreReady_ab
                0x000000010043932b                EcuM_Prv_flgShutdownInfoDoNotUpdate_b
                0x000000010043932c                EcuM_Prv_flgGoDown_b
 .bss           0x0000000100439330        0x0 CMakeFiles/Basic_workflow.dir/cygdrive/c/ETAS/RTA-CAR_12.2.0/RTA-CAR/workspace/Basic_Workflow/src/bsw/EcuM/src/EcuM_Prv_RteActions.c.o
 .bss           0x0000000100439330        0x0 CMakeFiles/Basic_workflow.dir/cygdrive/c/ETAS/RTA-CAR_12.2.0/RTA-CAR/workspace/Basic_Workflow/src/bsw/EcuM/src/EcuM_ReleasePOST_RUN.c.o
 .bss           0x0000000100439330        0x0 CMakeFiles/Basic_workflow.dir/cygdrive/c/ETAS/RTA-CAR_12.2.0/RTA-CAR/workspace/Basic_Workflow/src/bsw/EcuM/src/EcuM_ReleaseRUN.c.o
 .bss           0x0000000100439330        0x0 CMakeFiles/Basic_workflow.dir/cygdrive/c/ETAS/RTA-CAR_12.2.0/RTA-CAR/workspace/Basic_Workflow/src/bsw/EcuM/src/EcuM_RequestPOST_RUN.c.o
 .bss           0x0000000100439330        0x0 CMakeFiles/Basic_workflow.dir/cygdrive/c/ETAS/RTA-CAR_12.2.0/RTA-CAR/workspace/Basic_Workflow/src/bsw/EcuM/src/EcuM_RequestRUN.c.o
 .bss           0x0000000100439330        0x0 CMakeFiles/Basic_workflow.dir/cygdrive/c/ETAS/RTA-CAR_12.2.0/RTA-CAR/workspace/Basic_Workflow/src/bsw/EcuM/src/EcuM_SetState.c.o
 .bss           0x0000000100439330        0x0 CMakeFiles/Basic_workflow.dir/cygdrive/c/ETAS/RTA-CAR_12.2.0/RTA-CAR/workspace/Basic_Workflow/src/bsw/EcuM/src/EcuM_Shutdown.c.o
 .bss           0x0000000100439330        0x0 CMakeFiles/Basic_workflow.dir/cygdrive/c/ETAS/RTA-CAR_12.2.0/RTA-CAR/workspace/Basic_Workflow/src/bsw/EcuM/src/EcuM_ShutdownServices.c.o
 .bss           0x0000000100439330        0x0 CMakeFiles/Basic_workflow.dir/cygdrive/c/ETAS/RTA-CAR_12.2.0/RTA-CAR/workspace/Basic_Workflow/src/bsw/EcuM/src/EcuM_Sleep.c.o
 .bss           0x0000000100439330        0x0 CMakeFiles/Basic_workflow.dir/cygdrive/c/ETAS/RTA-CAR_12.2.0/RTA-CAR/workspace/Basic_Workflow/src/bsw/EcuM/src/EcuM_Startup.c.o
 .bss           0x0000000100439330        0x0 CMakeFiles/Basic_workflow.dir/cygdrive/c/ETAS/RTA-CAR_12.2.0/RTA-CAR/workspace/Basic_Workflow/src/bsw/EcuM/src/EcuM_WakeupServices.c.o
 .bss           0x0000000100439330       0x10 CMakeFiles/Basic_workflow.dir/cygdrive/c/ETAS/RTA-CAR_12.2.0/RTA-CAR/workspace/Basic_Workflow/src/rte/Rte.c.o
                0x0000000100439330                Rte_ImplicitBufs
                0x0000000100439331                Rte_RECount_OsTask_BSW_divby10_0
                0x0000000100439332                Rte_Rx_000000
 .bss           0x0000000100439340       0x10 CMakeFiles/Basic_workflow.dir/cygdrive/c/ETAS/RTA-CAR_12.2.0/RTA-CAR/workspace/Basic_Workflow/src/rte/Rte_Lib.c.o
                0x0000000100439340                Rte_ResourceCount
                0x0000000100439342                Rte_Initialized
                0x0000000100439343                SchM_Initialized
 *fill*         0x0000000100439350       0x10 
 .bss           0x0000000100439360       0x80 CMakeFiles/Basic_workflow.dir/cygdrive/c/ETAS/RTA-CAR_12.2.0/RTA-CAR/workspace/Basic_Workflow/src/mcal/Can_Device.cpp.o
 .bss           0x00000001004393e0        0x0 CMakeFiles/Basic_workflow.dir/cygdrive/c/ETAS/RTA-CAR_12.2.0/RTA-CAR/workspace/Basic_Workflow/src/mcal/Can_HwProvider.cpp.o
 .bss           0x00000001004393e0       0x30 CMakeFiles/Basic_workflow.dir/cygdrive/c/ETAS/RTA-CAR_12.2.0/RTA-CAR/workspace/Basic_Workflow/src/mcal/Can_Implementation.cpp.o
 *fill*         0x0000000100439410       0x10 
 .bss           0x0000000100439420       0x60 CMakeFiles/Basic_workflow.dir/cygdrive/c/ETAS/RTA-CAR_12.2.0/RTA-CAR/workspace/Basic_Workflow/src/mcal/Mcu_Device.cpp.o
 .bss           0x0000000100439480       0x10 CMakeFiles/Basic_workflow.dir/cygdrive/c/ETAS/RTA-CAR_12.2.0/RTA-CAR/workspace/Basic_Workflow/src/mcal/Mcu_Implementation.cpp.o
 *fill*         0x0000000100439490       0x10 
 .bss           0x00000001004394a0       0x20 CMakeFiles/Basic_workflow.dir/cygdrive/c/ETAS/RTA-CAR_12.2.0/RTA-CAR/workspace/Basic_Workflow/src/mcal/VirtualCan.cpp.o
 .bss           0x00000001004394c0      0x1e0 CMakeFiles/Basic_workflow.dir/cygdrive/c/ETAS/RTA-CAR_12.2.0/RTA-CAR/workspace/Basic_Workflow/src/vrta/VRTA_SystemClock.cpp.o
 .bss           0x00000001004396a0       0x40 CMakeFiles/Basic_workflow.dir/cygdrive/c/ETAS/RTA-CAR_12.2.0/RTA-CAR/workspace/Basic_Workflow/src/vrta/Vrta_Cfg.cpp.o
 .bss           0x00000001004396e0        0x0 CMakeFiles/Basic_workflow.dir/cygdrive/c/ETAS/RTA-CAR_12.2.0/RTA-CAR/workspace/Basic_Workflow/src/vrta/target.cpp.o
 .bss           0x00000001004396e0        0x0 /usr/lib/w32api/libws2_32.a(libws2_32s00191.o)
 .bss           0x00000001004396e0        0x0 /usr/lib/w32api/libws2_32.a(libws2_32h.o)
 .bss           0x00000001004396e0        0x0 /usr/lib/w32api/libws2_32.a(libws2_32t.o)
 .bss           0x00000001004396e0        0x0 /usr/lib/gcc/x86_64-pc-cygwin/11/libstdc++.a(class_type_info.o)
 .bss           0x00000001004396e0        0x0 /usr/lib/gcc/x86_64-pc-cygwin/11/libstdc++.a(del_ops.o)
 .bss           0x00000001004396e0        0x0 /usr/lib/gcc/x86_64-pc-cygwin/11/libstdc++.a(del_opv.o)
 .bss           0x00000001004396e0        0x0 /usr/lib/gcc/x86_64-pc-cygwin/11/libstdc++.a(del_opvs.o)
 .bss           0x00000001004396e0        0x0 /usr/lib/gcc/x86_64-pc-cygwin/11/libstdc++.a(eh_aux_runtime.o)
 .bss           0x00000001004396e0        0x0 /usr/lib/gcc/x86_64-pc-cygwin/11/libstdc++.a(eh_personality.o)
 .bss           0x00000001004396e0        0x0 /usr/lib/gcc/x86_64-pc-cygwin/11/libstdc++.a(eh_terminate.o)
 .bss           0x00000001004396e0        0x0 /usr/lib/gcc/x86_64-pc-cygwin/11/libstdc++.a(eh_throw.o)
 .bss           0x00000001004396e0        0x0 /usr/lib/gcc/x86_64-pc-cygwin/11/libstdc++.a(eh_unex_handler.o)
 .bss           0x00000001004396e0        0x0 /usr/lib/gcc/x86_64-pc-cygwin/11/libstdc++.a(new_op.o)
 .bss           0x00000001004396e0        0x0 /usr/lib/gcc/x86_64-pc-cygwin/11/libstdc++.a(new_opv.o)
 .bss           0x00000001004396e0        0x0 /usr/lib/gcc/x86_64-pc-cygwin/11/libstdc++.a(si_class_type_info.o)
 .bss           0x00000001004396e0        0x0 /usr/lib/gcc/x86_64-pc-cygwin/11/libstdc++.a(tinfo.o)
 .bss           0x00000001004396e0        0x0 /usr/lib/gcc/x86_64-pc-cygwin/11/libstdc++.a(vterminate.o)
 .bss           0x00000001004396e0        0x0 /usr/lib/gcc/x86_64-pc-cygwin/11/libstdc++.a(bad_alloc.o)
 .bss           0x00000001004396e0        0x0 /usr/lib/gcc/x86_64-pc-cygwin/11/libstdc++.a(bad_array_new.o)
 .bss           0x00000001004396e0        0x0 /usr/lib/gcc/x86_64-pc-cygwin/11/libstdc++.a(bad_cast.o)
 .bss           0x00000001004396e0        0x0 /usr/lib/gcc/x86_64-pc-cygwin/11/libstdc++.a(bad_typeid.o)
 .bss           0x00000001004396e0        0x0 /usr/lib/gcc/x86_64-pc-cygwin/11/libstdc++.a(cp-demangle.o)
 .bss           0x00000001004396e0        0x0 /usr/lib/gcc/x86_64-pc-cygwin/11/libstdc++.a(del_op.o)
 .bss           0x00000001004396e0        0x0 /usr/lib/gcc/x86_64-pc-cygwin/11/libstdc++.a(eh_alloc.o)
 .bss           0x00000001004396e0        0x0 /usr/lib/gcc/x86_64-pc-cygwin/11/libstdc++.a(eh_call.o)
 .bss           0x00000001004396e0        0x0 /usr/lib/gcc/x86_64-pc-cygwin/11/libstdc++.a(eh_catch.o)
 .bss           0x00000001004396e0        0x0 /usr/lib/gcc/x86_64-pc-cygwin/11/libstdc++.a(eh_exception.o)
 .bss           0x00000001004396e0        0x0 /usr/lib/gcc/x86_64-pc-cygwin/11/libstdc++.a(eh_globals.o)
 .bss           0x00000001004396e0        0x0 /usr/lib/gcc/x86_64-pc-cygwin/11/libstdc++.a(eh_term_handler.o)
 .bss           0x00000001004396e0        0x0 /usr/lib/gcc/x86_64-pc-cygwin/11/libstdc++.a(eh_type.o)
 .bss           0x00000001004396e0        0x0 /usr/lib/gcc/x86_64-pc-cygwin/11/libstdc++.a(new_handler.o)
 .bss           0x00000001004396e0        0x0 /usr/lib/gcc/x86_64-pc-cygwin/11/libgcc.a(_chkstk_ms.o)
 .bss           0x00000001004396e0        0x0 /usr/lib/gcc/x86_64-pc-cygwin/11/libgcc_eh.a(unwind-seh.o)
 .bss           0x00000001004396e0       0x10 /usr/lib/gcc/x86_64-pc-cygwin/11/libgcc_eh.a(emutls.o)
 .bss           0x00000001004396f0        0x0 /usr/lib/gcc/x86_64-pc-cygwin/11/../../../../lib/libcygwin.a(atexit.o)
 .bss           0x00000001004396f0        0x0 /usr/lib/gcc/x86_64-pc-cygwin/11/../../../../lib/libcygwin.a(cygwin_crt0.o)
 .bss           0x00000001004396f0        0x0 /usr/lib/gcc/x86_64-pc-cygwin/11/../../../../lib/libcygwin.a(libcmain.o)
 .bss           0x00000001004396f0        0x0 /usr/lib/gcc/x86_64-pc-cygwin/11/../../../../lib/libcygwin.a(premain0.o)
 .bss           0x00000001004396f0        0x0 /usr/lib/gcc/x86_64-pc-cygwin/11/../../../../lib/libcygwin.a(premain1.o)
 .bss           0x00000001004396f0        0x0 /usr/lib/gcc/x86_64-pc-cygwin/11/../../../../lib/libcygwin.a(premain2.o)
 .bss           0x00000001004396f0        0x0 /usr/lib/gcc/x86_64-pc-cygwin/11/../../../../lib/libcygwin.a(premain3.o)
 .bss           0x00000001004396f0       0x10 /usr/lib/gcc/x86_64-pc-cygwin/11/../../../../lib/libcygwin.a(_cygwin_crt0_common.o)
                0x00000001004396f0                _fmode
 .bss           0x0000000100439700       0x30 /usr/lib/gcc/x86_64-pc-cygwin/11/../../../../lib/libcygwin.a(dll_entry.o)
                0x0000000100439700                __dynamically_loaded
 .bss           0x0000000100439730        0x0 /usr/lib/gcc/x86_64-pc-cygwin/11/../../../../lib/libcygwin.a(dll_main.o)
 .bss           0x0000000100439730        0x0 /usr/lib/gcc/x86_64-pc-cygwin/11/../../../../lib/libcygwin.a(pseudo-reloc-dummy.o)
 *fill*         0x0000000100439730       0x10 
 .bss           0x0000000100439740      0x160 /usr/lib/gcc/x86_64-pc-cygwin/11/../../../../lib/libcygwin.a(cygwin_attach_dll.o)
 .bss           0x00000001004398a0        0x0 /usr/lib/w32api/libkernel32.a(libkernel32s01234.o)
 .bss           0x00000001004398a0        0x0 /usr/lib/w32api/libkernel32.a(libkernel32s01233.o)
 .bss           0x00000001004398a0        0x0 /usr/lib/w32api/libkernel32.a(libkernel32s01227.o)
 .bss           0x00000001004398a0        0x0 /usr/lib/w32api/libkernel32.a(libkernel32s01220.o)
 .bss           0x00000001004398a0        0x0 /usr/lib/w32api/libkernel32.a(libkernel32s01150.o)
 .bss           0x00000001004398a0        0x0 /usr/lib/w32api/libkernel32.a(libkernel32s00740.o)
 .bss           0x00000001004398a0        0x0 /usr/lib/w32api/libkernel32.a(libkernel32s00651.o)
 .bss           0x00000001004398a0        0x0 /usr/lib/w32api/libkernel32.a(libkernel32s00648.o)
 .bss           0x00000001004398a0        0x0 /usr/lib/w32api/libkernel32.a(libkernel32s00484.o)
 .bss           0x00000001004398a0        0x0 /usr/lib/w32api/libkernel32.a(libkernel32h.o)
 .bss           0x00000001004398a0        0x0 /usr/lib/w32api/libkernel32.a(libkernel32t.o)
 .bss           0x00000001004398a0       0x20 /usr/lib/gcc/x86_64-pc-cygwin/11/libgcc.a(_ctors.o)
 .bss           0x00000001004398c0        0x0 /usr/lib/gcc/x86_64-pc-cygwin/11/crtend.o
 *(COMMON)
                0x00000001004398c0                __bss_end__ = .

.edata
 *(.edata)

/DISCARD/
 *(.debug$S)
 *(.debug$T)
 *(.debug$F)
 *(.drectve)
 *(.note.GNU-stack)
 *(.gnu.lto_*)

.idata          0x000000010043a000      0x800
 SORT_BY_NAME(*)(.idata$2)
 .idata$2       0x000000010043a000       0x14 /usr/lib/gcc/x86_64-pc-cygwin/11/../../../../lib/libcygwin.a(cygwin1_dll_d000000.o)
                0x000000010043a000                _head_cygwin1_dll
 .idata$2       0x000000010043a014       0x14 /usr/lib/w32api/libkernel32.a(libkernel32h.o)
                0x000000010043a014                _head_lib64_libkernel32_a
 .idata$2       0x000000010043a028       0x14 /usr/lib/w32api/libws2_32.a(libws2_32h.o)
                0x000000010043a028                _head_lib64_libws2_32_a
 SORT_BY_NAME(*)(.idata$3)
                0x000000010043a03c        0x4 LONG 0x0
                0x000000010043a040        0x4 LONG 0x0
                0x000000010043a044        0x4 LONG 0x0
                0x000000010043a048        0x4 LONG 0x0
                0x000000010043a04c        0x4 LONG 0x0
                0x000000010043a050                . = ALIGN (0x8)
 SORT_BY_NAME(*)(.idata$4)
 .idata$4       0x000000010043a050        0x0 /usr/lib/gcc/x86_64-pc-cygwin/11/../../../../lib/libcygwin.a(cygwin1_dll_d000000.o)
 .idata$4       0x000000010043a050        0x8 /usr/lib/gcc/x86_64-pc-cygwin/11/../../../../lib/libcygwin.a(cygwin1_dll_d000017.o)
 .idata$4       0x000000010043a058        0x8 /usr/lib/gcc/x86_64-pc-cygwin/11/../../../../lib/libcygwin.a(cygwin1_dll_d000037.o)
 .idata$4       0x000000010043a060        0x8 /usr/lib/gcc/x86_64-pc-cygwin/11/../../../../lib/libcygwin.a(cygwin1_dll_d000048.o)
 .idata$4       0x000000010043a068        0x8 /usr/lib/gcc/x86_64-pc-cygwin/11/../../../../lib/libcygwin.a(cygwin1_dll_d000094.o)
 .idata$4       0x000000010043a070        0x8 /usr/lib/gcc/x86_64-pc-cygwin/11/../../../../lib/libcygwin.a(cygwin1_dll_d000096.o)
 .idata$4       0x000000010043a078        0x8 /usr/lib/gcc/x86_64-pc-cygwin/11/../../../../lib/libcygwin.a(cygwin1_dll_d000098.o)
 .idata$4       0x000000010043a080        0x8 /usr/lib/gcc/x86_64-pc-cygwin/11/../../../../lib/libcygwin.a(cygwin1_dll_d000100.o)
 .idata$4       0x000000010043a088        0x8 /usr/lib/gcc/x86_64-pc-cygwin/11/../../../../lib/libcygwin.a(cygwin1_dll_d000110.o)
 .idata$4       0x000000010043a090        0x8 /usr/lib/gcc/x86_64-pc-cygwin/11/../../../../lib/libcygwin.a(cygwin1_dll_d000117.o)
 .idata$4       0x000000010043a098        0x8 /usr/lib/gcc/x86_64-pc-cygwin/11/../../../../lib/libcygwin.a(cygwin1_dll_d000129.o)
 .idata$4       0x000000010043a0a0        0x8 /usr/lib/gcc/x86_64-pc-cygwin/11/../../../../lib/libcygwin.a(cygwin1_dll_d000260.o)
 .idata$4       0x000000010043a0a8        0x8 /usr/lib/gcc/x86_64-pc-cygwin/11/../../../../lib/libcygwin.a(cygwin1_dll_d000381.o)
 .idata$4       0x000000010043a0b0        0x8 /usr/lib/gcc/x86_64-pc-cygwin/11/../../../../lib/libcygwin.a(cygwin1_dll_d000383.o)
 .idata$4       0x000000010043a0b8        0x8 /usr/lib/gcc/x86_64-pc-cygwin/11/../../../../lib/libcygwin.a(cygwin1_dll_d000411.o)
 .idata$4       0x000000010043a0c0        0x8 /usr/lib/gcc/x86_64-pc-cygwin/11/../../../../lib/libcygwin.a(cygwin1_dll_d000577.o)
 .idata$4       0x000000010043a0c8        0x8 /usr/lib/gcc/x86_64-pc-cygwin/11/../../../../lib/libcygwin.a(cygwin1_dll_d000579.o)
 .idata$4       0x000000010043a0d0        0x8 /usr/lib/gcc/x86_64-pc-cygwin/11/../../../../lib/libcygwin.a(cygwin1_dll_d000587.o)
 .idata$4       0x000000010043a0d8        0x8 /usr/lib/gcc/x86_64-pc-cygwin/11/../../../../lib/libcygwin.a(cygwin1_dll_d000628.o)
 .idata$4       0x000000010043a0e0        0x8 /usr/lib/gcc/x86_64-pc-cygwin/11/../../../../lib/libcygwin.a(cygwin1_dll_d000917.o)
 .idata$4       0x000000010043a0e8        0x8 /usr/lib/gcc/x86_64-pc-cygwin/11/../../../../lib/libcygwin.a(cygwin1_dll_d000934.o)
 .idata$4       0x000000010043a0f0        0x8 /usr/lib/gcc/x86_64-pc-cygwin/11/../../../../lib/libcygwin.a(cygwin1_dll_d000939.o)
 .idata$4       0x000000010043a0f8        0x8 /usr/lib/gcc/x86_64-pc-cygwin/11/../../../../lib/libcygwin.a(cygwin1_dll_d001022.o)
 .idata$4       0x000000010043a100        0x8 /usr/lib/gcc/x86_64-pc-cygwin/11/../../../../lib/libcygwin.a(cygwin1_dll_d001029.o)
 .idata$4       0x000000010043a108        0x8 /usr/lib/gcc/x86_64-pc-cygwin/11/../../../../lib/libcygwin.a(cygwin1_dll_d001120.o)
 .idata$4       0x000000010043a110        0x8 /usr/lib/gcc/x86_64-pc-cygwin/11/../../../../lib/libcygwin.a(cygwin1_dll_d001122.o)
 .idata$4       0x000000010043a118        0x8 /usr/lib/gcc/x86_64-pc-cygwin/11/../../../../lib/libcygwin.a(cygwin1_dll_d001129.o)
 .idata$4       0x000000010043a120        0x8 /usr/lib/gcc/x86_64-pc-cygwin/11/../../../../lib/libcygwin.a(cygwin1_dll_d001133.o)
 .idata$4       0x000000010043a128        0x8 /usr/lib/gcc/x86_64-pc-cygwin/11/../../../../lib/libcygwin.a(cygwin1_dll_d001144.o)
 .idata$4       0x000000010043a130        0x8 /usr/lib/gcc/x86_64-pc-cygwin/11/../../../../lib/libcygwin.a(cygwin1_dll_d001168.o)
 .idata$4       0x000000010043a138        0x8 /usr/lib/gcc/x86_64-pc-cygwin/11/../../../../lib/libcygwin.a(cygwin1_dll_d001208.o)
 .idata$4       0x000000010043a140        0x8 /usr/lib/gcc/x86_64-pc-cygwin/11/../../../../lib/libcygwin.a(cygwin1_dll_d001214.o)
 .idata$4       0x000000010043a148        0x8 /usr/lib/gcc/x86_64-pc-cygwin/11/../../../../lib/libcygwin.a(cygwin1_dll_d001409.o)
 .idata$4       0x000000010043a150        0x8 /usr/lib/gcc/x86_64-pc-cygwin/11/../../../../lib/libcygwin.a(cygwin1_dll_d001428.o)
 .idata$4       0x000000010043a158        0x8 /usr/lib/gcc/x86_64-pc-cygwin/11/../../../../lib/libcygwin.a(cygwin1_dll_d001430.o)
 .idata$4       0x000000010043a160        0x8 /usr/lib/gcc/x86_64-pc-cygwin/11/../../../../lib/libcygwin.a(cygwin1_dll_d001433.o)
 .idata$4       0x000000010043a168        0x8 /usr/lib/gcc/x86_64-pc-cygwin/11/../../../../lib/libcygwin.a(cygwin1_dll_d001445.o)
 .idata$4       0x000000010043a170        0x8 /usr/lib/gcc/x86_64-pc-cygwin/11/../../../../lib/libcygwin.a(cygwin1_dll_d001450.o)
 .idata$4       0x000000010043a178        0x8 /usr/lib/gcc/x86_64-pc-cygwin/11/../../../../lib/libcygwin.a(cygwin1_dll_d001455.o)
 .idata$4       0x000000010043a180        0x8 /usr/lib/gcc/x86_64-pc-cygwin/11/../../../../lib/libcygwin.a(cygwin1_dll_d001461.o)
 .idata$4       0x000000010043a188        0x8 /usr/lib/gcc/x86_64-pc-cygwin/11/../../../../lib/libcygwin.a(cygwin1_dll_d001612.o)
 .idata$4       0x000000010043a190        0x8 /usr/lib/gcc/x86_64-pc-cygwin/11/../../../../lib/libcygwin.a(cygwin1_dll_d001694.o)
 .idata$4       0x000000010043a198        0x8 /usr/lib/gcc/x86_64-pc-cygwin/11/../../../../lib/libcygwin.a(cygwin1_dll_d001750.o)
 .idata$4       0x000000010043a1a0        0x0 /usr/lib/w32api/libkernel32.a(libkernel32h.o)
 .idata$4       0x000000010043a1a0        0x8 /usr/lib/w32api/libkernel32.a(libkernel32s00484.o)
 .idata$4       0x000000010043a1a8        0x8 /usr/lib/w32api/libkernel32.a(libkernel32s00648.o)
 .idata$4       0x000000010043a1b0        0x8 /usr/lib/w32api/libkernel32.a(libkernel32s00651.o)
 .idata$4       0x000000010043a1b8        0x8 /usr/lib/w32api/libkernel32.a(libkernel32s00740.o)
 .idata$4       0x000000010043a1c0        0x8 /usr/lib/w32api/libkernel32.a(libkernel32s01150.o)
 .idata$4       0x000000010043a1c8        0x8 /usr/lib/w32api/libkernel32.a(libkernel32s01220.o)
 .idata$4       0x000000010043a1d0        0x8 /usr/lib/w32api/libkernel32.a(libkernel32s01227.o)
 .idata$4       0x000000010043a1d8        0x8 /usr/lib/w32api/libkernel32.a(libkernel32s01233.o)
 .idata$4       0x000000010043a1e0        0x8 /usr/lib/w32api/libkernel32.a(libkernel32s01234.o)
 .idata$4       0x000000010043a1e8        0x8 /usr/lib/w32api/libkernel32.a(libkernel32t.o)
 .idata$4       0x000000010043a1f0        0x0 /usr/lib/w32api/libws2_32.a(libws2_32h.o)
 .idata$4       0x000000010043a1f0        0x8 /usr/lib/w32api/libws2_32.a(libws2_32s00191.o)
 .idata$4       0x000000010043a1f8        0x8 /usr/lib/w32api/libws2_32.a(libws2_32t.o)
                0x000000010043a200                __IAT_start__ = .
 SORT_BY_NAME(*)(.idata$5)
 .idata$5       0x000000010043a200        0x0 /usr/lib/gcc/x86_64-pc-cygwin/11/../../../../lib/libcygwin.a(cygwin1_dll_d000000.o)
 .idata$5       0x000000010043a200        0x8 /usr/lib/gcc/x86_64-pc-cygwin/11/../../../../lib/libcygwin.a(cygwin1_dll_d000017.o)
                0x000000010043a200                __imp___cxa_atexit
 .idata$5       0x000000010043a208        0x8 /usr/lib/gcc/x86_64-pc-cygwin/11/../../../../lib/libcygwin.a(cygwin1_dll_d000037.o)
                0x000000010043a208                __imp___getreent
 .idata$5       0x000000010043a210        0x8 /usr/lib/gcc/x86_64-pc-cygwin/11/../../../../lib/libcygwin.a(cygwin1_dll_d000048.o)
                0x000000010043a210                __imp___main
 .idata$5       0x000000010043a218        0x8 /usr/lib/gcc/x86_64-pc-cygwin/11/../../../../lib/libcygwin.a(cygwin1_dll_d000094.o)
                0x000000010043a218                __imp___wrap__ZdaPv
 .idata$5       0x000000010043a220        0x8 /usr/lib/gcc/x86_64-pc-cygwin/11/../../../../lib/libcygwin.a(cygwin1_dll_d000096.o)
                0x000000010043a220                __imp___wrap__ZdlPv
 .idata$5       0x000000010043a228        0x8 /usr/lib/gcc/x86_64-pc-cygwin/11/../../../../lib/libcygwin.a(cygwin1_dll_d000098.o)
                0x000000010043a228                __imp___wrap__Znam
 .idata$5       0x000000010043a230        0x8 /usr/lib/gcc/x86_64-pc-cygwin/11/../../../../lib/libcygwin.a(cygwin1_dll_d000100.o)
                0x000000010043a230                __imp___wrap__Znwm
 .idata$5       0x000000010043a238        0x8 /usr/lib/gcc/x86_64-pc-cygwin/11/../../../../lib/libcygwin.a(cygwin1_dll_d000110.o)
                0x000000010043a238                __imp__dll_crt0
 .idata$5       0x000000010043a240        0x8 /usr/lib/gcc/x86_64-pc-cygwin/11/../../../../lib/libcygwin.a(cygwin1_dll_d000117.o)
                0x000000010043a240                __imp__impure_ptr
 .idata$5       0x000000010043a248        0x8 /usr/lib/gcc/x86_64-pc-cygwin/11/../../../../lib/libcygwin.a(cygwin1_dll_d000129.o)
                0x000000010043a248                __imp_abort
 .idata$5       0x000000010043a250        0x8 /usr/lib/gcc/x86_64-pc-cygwin/11/../../../../lib/libcygwin.a(cygwin1_dll_d000260.o)
                0x000000010043a250                __imp_calloc
 .idata$5       0x000000010043a258        0x8 /usr/lib/gcc/x86_64-pc-cygwin/11/../../../../lib/libcygwin.a(cygwin1_dll_d000381.o)
                0x000000010043a258                __imp_cygwin_detach_dll
 .idata$5       0x000000010043a260        0x8 /usr/lib/gcc/x86_64-pc-cygwin/11/../../../../lib/libcygwin.a(cygwin1_dll_d000383.o)
                0x000000010043a260                __imp_cygwin_internal
 .idata$5       0x000000010043a268        0x8 /usr/lib/gcc/x86_64-pc-cygwin/11/../../../../lib/libcygwin.a(cygwin1_dll_d000411.o)
                0x000000010043a268                __imp_dll_dllcrt0
 .idata$5       0x000000010043a270        0x8 /usr/lib/gcc/x86_64-pc-cygwin/11/../../../../lib/libcygwin.a(cygwin1_dll_d000577.o)
                0x000000010043a270                __imp_fputc
 .idata$5       0x000000010043a278        0x8 /usr/lib/gcc/x86_64-pc-cygwin/11/../../../../lib/libcygwin.a(cygwin1_dll_d000579.o)
                0x000000010043a278                __imp_fputs
 .idata$5       0x000000010043a280        0x8 /usr/lib/gcc/x86_64-pc-cygwin/11/../../../../lib/libcygwin.a(cygwin1_dll_d000587.o)
                0x000000010043a280                __imp_free
 .idata$5       0x000000010043a288        0x8 /usr/lib/gcc/x86_64-pc-cygwin/11/../../../../lib/libcygwin.a(cygwin1_dll_d000628.o)
                0x000000010043a288                __imp_fwrite
 .idata$5       0x000000010043a290        0x8 /usr/lib/gcc/x86_64-pc-cygwin/11/../../../../lib/libcygwin.a(cygwin1_dll_d000917.o)
                0x000000010043a290                __imp_malloc
 .idata$5       0x000000010043a298        0x8 /usr/lib/gcc/x86_64-pc-cygwin/11/../../../../lib/libcygwin.a(cygwin1_dll_d000934.o)
                0x000000010043a298                __imp_memcpy
 .idata$5       0x000000010043a2a0        0x8 /usr/lib/gcc/x86_64-pc-cygwin/11/../../../../lib/libcygwin.a(cygwin1_dll_d000939.o)
                0x000000010043a2a0                __imp_memset
 .idata$5       0x000000010043a2a8        0x8 /usr/lib/gcc/x86_64-pc-cygwin/11/../../../../lib/libcygwin.a(cygwin1_dll_d001022.o)
                0x000000010043a2a8                __imp_pipe
 .idata$5       0x000000010043a2b0        0x8 /usr/lib/gcc/x86_64-pc-cygwin/11/../../../../lib/libcygwin.a(cygwin1_dll_d001029.o)
                0x000000010043a2b0                __imp_posix_memalign
 .idata$5       0x000000010043a2b8        0x8 /usr/lib/gcc/x86_64-pc-cygwin/11/../../../../lib/libcygwin.a(cygwin1_dll_d001120.o)
                0x000000010043a2b8                __imp_pthread_getspecific
 .idata$5       0x000000010043a2c0        0x8 /usr/lib/gcc/x86_64-pc-cygwin/11/../../../../lib/libcygwin.a(cygwin1_dll_d001122.o)
                0x000000010043a2c0                __imp_pthread_key_create
 .idata$5       0x000000010043a2c8        0x8 /usr/lib/gcc/x86_64-pc-cygwin/11/../../../../lib/libcygwin.a(cygwin1_dll_d001129.o)
                0x000000010043a2c8                __imp_pthread_mutex_lock
 .idata$5       0x000000010043a2d0        0x8 /usr/lib/gcc/x86_64-pc-cygwin/11/../../../../lib/libcygwin.a(cygwin1_dll_d001133.o)
                0x000000010043a2d0                __imp_pthread_mutex_unlock
 .idata$5       0x000000010043a2d8        0x8 /usr/lib/gcc/x86_64-pc-cygwin/11/../../../../lib/libcygwin.a(cygwin1_dll_d001144.o)
                0x000000010043a2d8                __imp_pthread_once
 .idata$5       0x000000010043a2e0        0x8 /usr/lib/gcc/x86_64-pc-cygwin/11/../../../../lib/libcygwin.a(cygwin1_dll_d001168.o)
                0x000000010043a2e0                __imp_pthread_setspecific
 .idata$5       0x000000010043a2e8        0x8 /usr/lib/gcc/x86_64-pc-cygwin/11/../../../../lib/libcygwin.a(cygwin1_dll_d001208.o)
                0x000000010043a2e8                __imp_read
 .idata$5       0x000000010043a2f0        0x8 /usr/lib/gcc/x86_64-pc-cygwin/11/../../../../lib/libcygwin.a(cygwin1_dll_d001214.o)
                0x000000010043a2f0                __imp_realloc
 .idata$5       0x000000010043a2f8        0x8 /usr/lib/gcc/x86_64-pc-cygwin/11/../../../../lib/libcygwin.a(cygwin1_dll_d001409.o)
                0x000000010043a2f8                __imp_sprintf
 .idata$5       0x000000010043a300        0x8 /usr/lib/gcc/x86_64-pc-cygwin/11/../../../../lib/libcygwin.a(cygwin1_dll_d001428.o)
                0x000000010043a300                __imp_strchr
 .idata$5       0x000000010043a308        0x8 /usr/lib/gcc/x86_64-pc-cygwin/11/../../../../lib/libcygwin.a(cygwin1_dll_d001430.o)
                0x000000010043a308                __imp_strcmp
 .idata$5       0x000000010043a310        0x8 /usr/lib/gcc/x86_64-pc-cygwin/11/../../../../lib/libcygwin.a(cygwin1_dll_d001433.o)
                0x000000010043a310                __imp_strcpy
 .idata$5       0x000000010043a318        0x8 /usr/lib/gcc/x86_64-pc-cygwin/11/../../../../lib/libcygwin.a(cygwin1_dll_d001445.o)
                0x000000010043a318                __imp_strlen
 .idata$5       0x000000010043a320        0x8 /usr/lib/gcc/x86_64-pc-cygwin/11/../../../../lib/libcygwin.a(cygwin1_dll_d001450.o)
                0x000000010043a320                __imp_strncmp
 .idata$5       0x000000010043a328        0x8 /usr/lib/gcc/x86_64-pc-cygwin/11/../../../../lib/libcygwin.a(cygwin1_dll_d001455.o)
                0x000000010043a328                __imp_strpbrk
 .idata$5       0x000000010043a330        0x8 /usr/lib/gcc/x86_64-pc-cygwin/11/../../../../lib/libcygwin.a(cygwin1_dll_d001461.o)
                0x000000010043a330                __imp_strspn
 .idata$5       0x000000010043a338        0x8 /usr/lib/gcc/x86_64-pc-cygwin/11/../../../../lib/libcygwin.a(cygwin1_dll_d001612.o)
                0x000000010043a338                __imp_vsprintf
 .idata$5       0x000000010043a340        0x8 /usr/lib/gcc/x86_64-pc-cygwin/11/../../../../lib/libcygwin.a(cygwin1_dll_d001694.o)
                0x000000010043a340                __imp_write
 .idata$5       0x000000010043a348        0x8 /usr/lib/gcc/x86_64-pc-cygwin/11/../../../../lib/libcygwin.a(cygwin1_dll_d001750.o)
 .idata$5       0x000000010043a350        0x0 /usr/lib/w32api/libkernel32.a(libkernel32h.o)
 .idata$5       0x000000010043a350        0x8 /usr/lib/w32api/libkernel32.a(libkernel32s00484.o)
                0x000000010043a350                __imp_GetCommandLineA
 .idata$5       0x000000010043a358        0x8 /usr/lib/w32api/libkernel32.a(libkernel32s00648.o)
                0x000000010043a358                __imp_GetModuleHandleA
 .idata$5       0x000000010043a360        0x8 /usr/lib/w32api/libkernel32.a(libkernel32s00651.o)
                0x000000010043a360                __imp_GetModuleHandleW
 .idata$5       0x000000010043a368        0x8 /usr/lib/w32api/libkernel32.a(libkernel32s00740.o)
                0x000000010043a368                __imp_GetStartupInfoA
 .idata$5       0x000000010043a370        0x8 /usr/lib/w32api/libkernel32.a(libkernel32s01150.o)
                0x000000010043a370                __imp_RaiseException
 .idata$5       0x000000010043a378        0x8 /usr/lib/w32api/libkernel32.a(libkernel32s01220.o)
                0x000000010043a378                __imp_RtlCaptureContext
 .idata$5       0x000000010043a380        0x8 /usr/lib/w32api/libkernel32.a(libkernel32s01227.o)
                0x000000010043a380                __imp_RtlLookupFunctionEntry
 .idata$5       0x000000010043a388        0x8 /usr/lib/w32api/libkernel32.a(libkernel32s01233.o)
                0x000000010043a388                __imp_RtlUnwindEx
 .idata$5       0x000000010043a390        0x8 /usr/lib/w32api/libkernel32.a(libkernel32s01234.o)
                0x000000010043a390                __imp_RtlVirtualUnwind
 .idata$5       0x000000010043a398        0x8 /usr/lib/w32api/libkernel32.a(libkernel32t.o)
 .idata$5       0x000000010043a3a0        0x0 /usr/lib/w32api/libws2_32.a(libws2_32h.o)
 .idata$5       0x000000010043a3a0        0x8 /usr/lib/w32api/libws2_32.a(libws2_32s00191.o)
                0x000000010043a3a0                __imp_select
 .idata$5       0x000000010043a3a8        0x8 /usr/lib/w32api/libws2_32.a(libws2_32t.o)
                0x000000010043a3b0                __IAT_end__ = .
 SORT_BY_NAME(*)(.idata$6)
 .idata$6       0x000000010043a3b0       0x10 /usr/lib/gcc/x86_64-pc-cygwin/11/../../../../lib/libcygwin.a(cygwin1_dll_d000017.o)
 .idata$6       0x000000010043a3c0       0x10 /usr/lib/gcc/x86_64-pc-cygwin/11/../../../../lib/libcygwin.a(cygwin1_dll_d000037.o)
 .idata$6       0x000000010043a3d0        0xc /usr/lib/gcc/x86_64-pc-cygwin/11/../../../../lib/libcygwin.a(cygwin1_dll_d000048.o)
 .idata$6       0x000000010043a3dc       0x10 /usr/lib/gcc/x86_64-pc-cygwin/11/../../../../lib/libcygwin.a(cygwin1_dll_d000094.o)
 .idata$6       0x000000010043a3ec       0x10 /usr/lib/gcc/x86_64-pc-cygwin/11/../../../../lib/libcygwin.a(cygwin1_dll_d000096.o)
 .idata$6       0x000000010043a3fc       0x10 /usr/lib/gcc/x86_64-pc-cygwin/11/../../../../lib/libcygwin.a(cygwin1_dll_d000098.o)
 .idata$6       0x000000010043a40c       0x10 /usr/lib/gcc/x86_64-pc-cygwin/11/../../../../lib/libcygwin.a(cygwin1_dll_d000100.o)
 .idata$6       0x000000010043a41c        0xc /usr/lib/gcc/x86_64-pc-cygwin/11/../../../../lib/libcygwin.a(cygwin1_dll_d000110.o)
 .idata$6       0x000000010043a428       0x10 /usr/lib/gcc/x86_64-pc-cygwin/11/../../../../lib/libcygwin.a(cygwin1_dll_d000117.o)
                0x000000010043a428                __nm__impure_ptr
 .idata$6       0x000000010043a438        0x8 /usr/lib/gcc/x86_64-pc-cygwin/11/../../../../lib/libcygwin.a(cygwin1_dll_d000129.o)
 .idata$6       0x000000010043a440        0xc /usr/lib/gcc/x86_64-pc-cygwin/11/../../../../lib/libcygwin.a(cygwin1_dll_d000260.o)
 .idata$6       0x000000010043a44c       0x14 /usr/lib/gcc/x86_64-pc-cygwin/11/../../../../lib/libcygwin.a(cygwin1_dll_d000381.o)
 .idata$6       0x000000010043a460       0x14 /usr/lib/gcc/x86_64-pc-cygwin/11/../../../../lib/libcygwin.a(cygwin1_dll_d000383.o)
 .idata$6       0x000000010043a474       0x10 /usr/lib/gcc/x86_64-pc-cygwin/11/../../../../lib/libcygwin.a(cygwin1_dll_d000411.o)
 .idata$6       0x000000010043a484        0x8 /usr/lib/gcc/x86_64-pc-cygwin/11/../../../../lib/libcygwin.a(cygwin1_dll_d000577.o)
 .idata$6       0x000000010043a48c        0x8 /usr/lib/gcc/x86_64-pc-cygwin/11/../../../../lib/libcygwin.a(cygwin1_dll_d000579.o)
 .idata$6       0x000000010043a494        0x8 /usr/lib/gcc/x86_64-pc-cygwin/11/../../../../lib/libcygwin.a(cygwin1_dll_d000587.o)
 .idata$6       0x000000010043a49c        0xc /usr/lib/gcc/x86_64-pc-cygwin/11/../../../../lib/libcygwin.a(cygwin1_dll_d000628.o)
 .idata$6       0x000000010043a4a8        0xc /usr/lib/gcc/x86_64-pc-cygwin/11/../../../../lib/libcygwin.a(cygwin1_dll_d000917.o)
 .idata$6       0x000000010043a4b4        0xc /usr/lib/gcc/x86_64-pc-cygwin/11/../../../../lib/libcygwin.a(cygwin1_dll_d000934.o)
 .idata$6       0x000000010043a4c0        0xc /usr/lib/gcc/x86_64-pc-cygwin/11/../../../../lib/libcygwin.a(cygwin1_dll_d000939.o)
 .idata$6       0x000000010043a4cc        0x8 /usr/lib/gcc/x86_64-pc-cygwin/11/../../../../lib/libcygwin.a(cygwin1_dll_d001022.o)
 .idata$6       0x000000010043a4d4       0x14 /usr/lib/gcc/x86_64-pc-cygwin/11/../../../../lib/libcygwin.a(cygwin1_dll_d001029.o)
 .idata$6       0x000000010043a4e8       0x18 /usr/lib/gcc/x86_64-pc-cygwin/11/../../../../lib/libcygwin.a(cygwin1_dll_d001120.o)
 .idata$6       0x000000010043a500       0x18 /usr/lib/gcc/x86_64-pc-cygwin/11/../../../../lib/libcygwin.a(cygwin1_dll_d001122.o)
 .idata$6       0x000000010043a518       0x18 /usr/lib/gcc/x86_64-pc-cygwin/11/../../../../lib/libcygwin.a(cygwin1_dll_d001129.o)
 .idata$6       0x000000010043a530       0x18 /usr/lib/gcc/x86_64-pc-cygwin/11/../../../../lib/libcygwin.a(cygwin1_dll_d001133.o)
 .idata$6       0x000000010043a548       0x10 /usr/lib/gcc/x86_64-pc-cygwin/11/../../../../lib/libcygwin.a(cygwin1_dll_d001144.o)
 .idata$6       0x000000010043a558       0x18 /usr/lib/gcc/x86_64-pc-cygwin/11/../../../../lib/libcygwin.a(cygwin1_dll_d001168.o)
 .idata$6       0x000000010043a570        0x8 /usr/lib/gcc/x86_64-pc-cygwin/11/../../../../lib/libcygwin.a(cygwin1_dll_d001208.o)
 .idata$6       0x000000010043a578        0xc /usr/lib/gcc/x86_64-pc-cygwin/11/../../../../lib/libcygwin.a(cygwin1_dll_d001214.o)
 .idata$6       0x000000010043a584        0xc /usr/lib/gcc/x86_64-pc-cygwin/11/../../../../lib/libcygwin.a(cygwin1_dll_d001409.o)
 .idata$6       0x000000010043a590        0xc /usr/lib/gcc/x86_64-pc-cygwin/11/../../../../lib/libcygwin.a(cygwin1_dll_d001428.o)
 .idata$6       0x000000010043a59c        0xc /usr/lib/gcc/x86_64-pc-cygwin/11/../../../../lib/libcygwin.a(cygwin1_dll_d001430.o)
 .idata$6       0x000000010043a5a8        0xc /usr/lib/gcc/x86_64-pc-cygwin/11/../../../../lib/libcygwin.a(cygwin1_dll_d001433.o)
 .idata$6       0x000000010043a5b4        0xc /usr/lib/gcc/x86_64-pc-cygwin/11/../../../../lib/libcygwin.a(cygwin1_dll_d001445.o)
 .idata$6       0x000000010043a5c0        0xc /usr/lib/gcc/x86_64-pc-cygwin/11/../../../../lib/libcygwin.a(cygwin1_dll_d001450.o)
 .idata$6       0x000000010043a5cc        0xc /usr/lib/gcc/x86_64-pc-cygwin/11/../../../../lib/libcygwin.a(cygwin1_dll_d001455.o)
 .idata$6       0x000000010043a5d8        0xc /usr/lib/gcc/x86_64-pc-cygwin/11/../../../../lib/libcygwin.a(cygwin1_dll_d001461.o)
 .idata$6       0x000000010043a5e4        0xc /usr/lib/gcc/x86_64-pc-cygwin/11/../../../../lib/libcygwin.a(cygwin1_dll_d001612.o)
 .idata$6       0x000000010043a5f0        0x8 /usr/lib/gcc/x86_64-pc-cygwin/11/../../../../lib/libcygwin.a(cygwin1_dll_d001694.o)
 .idata$6       0x000000010043a5f8       0x12 /usr/lib/w32api/libkernel32.a(libkernel32s00484.o)
 .idata$6       0x000000010043a60a       0x14 /usr/lib/w32api/libkernel32.a(libkernel32s00648.o)
 .idata$6       0x000000010043a61e       0x14 /usr/lib/w32api/libkernel32.a(libkernel32s00651.o)
 .idata$6       0x000000010043a632       0x12 /usr/lib/w32api/libkernel32.a(libkernel32s00740.o)
 .idata$6       0x000000010043a644       0x12 /usr/lib/w32api/libkernel32.a(libkernel32s01150.o)
 .idata$6       0x000000010043a656       0x14 /usr/lib/w32api/libkernel32.a(libkernel32s01220.o)
 .idata$6       0x000000010043a66a       0x1a /usr/lib/w32api/libkernel32.a(libkernel32s01227.o)
 .idata$6       0x000000010043a684        0xe /usr/lib/w32api/libkernel32.a(libkernel32s01233.o)
 .idata$6       0x000000010043a692       0x14 /usr/lib/w32api/libkernel32.a(libkernel32s01234.o)
 .idata$6       0x000000010043a6a6        0xa /usr/lib/w32api/libws2_32.a(libws2_32s00191.o)
 SORT_BY_NAME(*)(.idata$7)
 .idata$7       0x000000010043a6b0        0x4 /usr/lib/gcc/x86_64-pc-cygwin/11/../../../../lib/libcygwin.a(cygwin1_dll_d000017.o)
 .idata$7       0x000000010043a6b4        0x4 /usr/lib/gcc/x86_64-pc-cygwin/11/../../../../lib/libcygwin.a(cygwin1_dll_d000037.o)
 .idata$7       0x000000010043a6b8        0x4 /usr/lib/gcc/x86_64-pc-cygwin/11/../../../../lib/libcygwin.a(cygwin1_dll_d000048.o)
 .idata$7       0x000000010043a6bc        0x4 /usr/lib/gcc/x86_64-pc-cygwin/11/../../../../lib/libcygwin.a(cygwin1_dll_d000094.o)
 .idata$7       0x000000010043a6c0        0x4 /usr/lib/gcc/x86_64-pc-cygwin/11/../../../../lib/libcygwin.a(cygwin1_dll_d000096.o)
 .idata$7       0x000000010043a6c4        0x4 /usr/lib/gcc/x86_64-pc-cygwin/11/../../../../lib/libcygwin.a(cygwin1_dll_d000098.o)
 .idata$7       0x000000010043a6c8        0x4 /usr/lib/gcc/x86_64-pc-cygwin/11/../../../../lib/libcygwin.a(cygwin1_dll_d000100.o)
 .idata$7       0x000000010043a6cc        0x4 /usr/lib/gcc/x86_64-pc-cygwin/11/../../../../lib/libcygwin.a(cygwin1_dll_d000110.o)
 .idata$7       0x000000010043a6d0        0x4 /usr/lib/gcc/x86_64-pc-cygwin/11/../../../../lib/libcygwin.a(cygwin1_dll_d000117.o)
 .idata$7       0x000000010043a6d4        0x4 /usr/lib/gcc/x86_64-pc-cygwin/11/../../../../lib/libcygwin.a(cygwin1_dll_d000129.o)
 .idata$7       0x000000010043a6d8        0x4 /usr/lib/gcc/x86_64-pc-cygwin/11/../../../../lib/libcygwin.a(cygwin1_dll_d000260.o)
 .idata$7       0x000000010043a6dc        0x4 /usr/lib/gcc/x86_64-pc-cygwin/11/../../../../lib/libcygwin.a(cygwin1_dll_d000381.o)
 .idata$7       0x000000010043a6e0        0x4 /usr/lib/gcc/x86_64-pc-cygwin/11/../../../../lib/libcygwin.a(cygwin1_dll_d000383.o)
 .idata$7       0x000000010043a6e4        0x4 /usr/lib/gcc/x86_64-pc-cygwin/11/../../../../lib/libcygwin.a(cygwin1_dll_d000411.o)
 .idata$7       0x000000010043a6e8        0x4 /usr/lib/gcc/x86_64-pc-cygwin/11/../../../../lib/libcygwin.a(cygwin1_dll_d000577.o)
 .idata$7       0x000000010043a6ec        0x4 /usr/lib/gcc/x86_64-pc-cygwin/11/../../../../lib/libcygwin.a(cygwin1_dll_d000579.o)
 .idata$7       0x000000010043a6f0        0x4 /usr/lib/gcc/x86_64-pc-cygwin/11/../../../../lib/libcygwin.a(cygwin1_dll_d000587.o)
 .idata$7       0x000000010043a6f4        0x4 /usr/lib/gcc/x86_64-pc-cygwin/11/../../../../lib/libcygwin.a(cygwin1_dll_d000628.o)
 .idata$7       0x000000010043a6f8        0x4 /usr/lib/gcc/x86_64-pc-cygwin/11/../../../../lib/libcygwin.a(cygwin1_dll_d000917.o)
 .idata$7       0x000000010043a6fc        0x4 /usr/lib/gcc/x86_64-pc-cygwin/11/../../../../lib/libcygwin.a(cygwin1_dll_d000934.o)
 .idata$7       0x000000010043a700        0x4 /usr/lib/gcc/x86_64-pc-cygwin/11/../../../../lib/libcygwin.a(cygwin1_dll_d000939.o)
 .idata$7       0x000000010043a704        0x4 /usr/lib/gcc/x86_64-pc-cygwin/11/../../../../lib/libcygwin.a(cygwin1_dll_d001022.o)
 .idata$7       0x000000010043a708        0x4 /usr/lib/gcc/x86_64-pc-cygwin/11/../../../../lib/libcygwin.a(cygwin1_dll_d001029.o)
 .idata$7       0x000000010043a70c        0x4 /usr/lib/gcc/x86_64-pc-cygwin/11/../../../../lib/libcygwin.a(cygwin1_dll_d001120.o)
 .idata$7       0x000000010043a710        0x4 /usr/lib/gcc/x86_64-pc-cygwin/11/../../../../lib/libcygwin.a(cygwin1_dll_d001122.o)
 .idata$7       0x000000010043a714        0x4 /usr/lib/gcc/x86_64-pc-cygwin/11/../../../../lib/libcygwin.a(cygwin1_dll_d001129.o)
 .idata$7       0x000000010043a718        0x4 /usr/lib/gcc/x86_64-pc-cygwin/11/../../../../lib/libcygwin.a(cygwin1_dll_d001133.o)
 .idata$7       0x000000010043a71c        0x4 /usr/lib/gcc/x86_64-pc-cygwin/11/../../../../lib/libcygwin.a(cygwin1_dll_d001144.o)
 .idata$7       0x000000010043a720        0x4 /usr/lib/gcc/x86_64-pc-cygwin/11/../../../../lib/libcygwin.a(cygwin1_dll_d001168.o)
 .idata$7       0x000000010043a724        0x4 /usr/lib/gcc/x86_64-pc-cygwin/11/../../../../lib/libcygwin.a(cygwin1_dll_d001208.o)
 .idata$7       0x000000010043a728        0x4 /usr/lib/gcc/x86_64-pc-cygwin/11/../../../../lib/libcygwin.a(cygwin1_dll_d001214.o)
 .idata$7       0x000000010043a72c        0x4 /usr/lib/gcc/x86_64-pc-cygwin/11/../../../../lib/libcygwin.a(cygwin1_dll_d001409.o)
 .idata$7       0x000000010043a730        0x4 /usr/lib/gcc/x86_64-pc-cygwin/11/../../../../lib/libcygwin.a(cygwin1_dll_d001428.o)
 .idata$7       0x000000010043a734        0x4 /usr/lib/gcc/x86_64-pc-cygwin/11/../../../../lib/libcygwin.a(cygwin1_dll_d001430.o)
 .idata$7       0x000000010043a738        0x4 /usr/lib/gcc/x86_64-pc-cygwin/11/../../../../lib/libcygwin.a(cygwin1_dll_d001433.o)
 .idata$7       0x000000010043a73c        0x4 /usr/lib/gcc/x86_64-pc-cygwin/11/../../../../lib/libcygwin.a(cygwin1_dll_d001445.o)
 .idata$7       0x000000010043a740        0x4 /usr/lib/gcc/x86_64-pc-cygwin/11/../../../../lib/libcygwin.a(cygwin1_dll_d001450.o)
 .idata$7       0x000000010043a744        0x4 /usr/lib/gcc/x86_64-pc-cygwin/11/../../../../lib/libcygwin.a(cygwin1_dll_d001455.o)
 .idata$7       0x000000010043a748        0x4 /usr/lib/gcc/x86_64-pc-cygwin/11/../../../../lib/libcygwin.a(cygwin1_dll_d001461.o)
 .idata$7       0x000000010043a74c        0x4 /usr/lib/gcc/x86_64-pc-cygwin/11/../../../../lib/libcygwin.a(cygwin1_dll_d001612.o)
 .idata$7       0x000000010043a750        0x4 /usr/lib/gcc/x86_64-pc-cygwin/11/../../../../lib/libcygwin.a(cygwin1_dll_d001694.o)
 .idata$7       0x000000010043a754        0xc /usr/lib/gcc/x86_64-pc-cygwin/11/../../../../lib/libcygwin.a(cygwin1_dll_d001750.o)
                0x000000010043a754                cygwin1_dll_iname
 .idata$7       0x000000010043a760        0x4 /usr/lib/w32api/libkernel32.a(libkernel32s00484.o)
 .idata$7       0x000000010043a764        0x4 /usr/lib/w32api/libkernel32.a(libkernel32s00648.o)
 .idata$7       0x000000010043a768        0x4 /usr/lib/w32api/libkernel32.a(libkernel32s00651.o)
 .idata$7       0x000000010043a76c        0x4 /usr/lib/w32api/libkernel32.a(libkernel32s00740.o)
 .idata$7       0x000000010043a770        0x4 /usr/lib/w32api/libkernel32.a(libkernel32s01150.o)
 .idata$7       0x000000010043a774        0x4 /usr/lib/w32api/libkernel32.a(libkernel32s01220.o)
 .idata$7       0x000000010043a778        0x4 /usr/lib/w32api/libkernel32.a(libkernel32s01227.o)
 .idata$7       0x000000010043a77c        0x4 /usr/lib/w32api/libkernel32.a(libkernel32s01233.o)
 .idata$7       0x000000010043a780        0x4 /usr/lib/w32api/libkernel32.a(libkernel32s01234.o)
 .idata$7       0x000000010043a784       0x10 /usr/lib/w32api/libkernel32.a(libkernel32t.o)
                0x000000010043a784                __lib64_libkernel32_a_iname
 .idata$7       0x000000010043a794        0x4 /usr/lib/w32api/libws2_32.a(libws2_32s00191.o)
 .idata$7       0x000000010043a798        0xc /usr/lib/w32api/libws2_32.a(libws2_32t.o)
                0x000000010043a798                __lib64_libws2_32_a_iname

.CRT            0x000000010043b000        0x0
                0x000000010043b000                ___crt_xc_start__ = .
 *(SORT_BY_NAME(.CRT$XC*))
                0x000000010043b000                ___crt_xc_end__ = .
                0x000000010043b000                ___crt_xi_start__ = .
 *(SORT_BY_NAME(.CRT$XI*))
                0x000000010043b000                ___crt_xi_end__ = .
                0x000000010043b000                ___crt_xl_start__ = .
 *(SORT_BY_NAME(.CRT$XL*))
                0x000000010043b000                ___crt_xp_start__ = .
 *(SORT_BY_NAME(.CRT$XP*))
                0x000000010043b000                ___crt_xp_end__ = .
                0x000000010043b000                ___crt_xt_start__ = .
 *(SORT_BY_NAME(.CRT$XT*))
                0x000000010043b000                ___crt_xt_end__ = .

.tls            0x000000010043b000        0x0
                0x000000010043b000                ___tls_start__ = .
 *(.tls$AAA)
 *(.tls)
 *(.tls$)
 *(SORT_BY_NAME(.tls$*))
 *(.tls$ZZZ)
                0x000000010043b000                ___tls_end__ = .

.endjunk        0x000000010043b000        0x0
                [!provide]                        PROVIDE (end = .)
                [!provide]                        PROVIDE (_end = .)
                0x000000010043b000                __end__ = .

.rsrc           0x000000010043b000      0x600
 *(.rsrc)
 .rsrc          0x000000010043b000      0x4e8 /usr/lib/gcc/x86_64-pc-cygwin/11/../../../../lib/default-manifest.o
 *(.rsrc$*)

.reloc          0x000000010043c000      0x600
 *(.reloc)
 .reloc         0x000000010043c000      0x5b8 dll stuff

.stab
 *(.stab)

.stabstr
 *(.stabstr)

.debug_aranges  0x000000010043d000     0x2200
 *(.debug_aranges)
 .debug_aranges
                0x000000010043d000       0x30 /usr/lib/gcc/x86_64-pc-cygwin/11/../../../../lib/crt0.o
 .debug_aranges
                0x000000010043d030       0x30 CMakeFiles/Basic_workflow.dir/Unity/unity_4_c.c.o
 .debug_aranges
                0x000000010043d060       0x30 CMakeFiles/Basic_workflow.dir/Unity/unity_3_c.c.o
 .debug_aranges
                0x000000010043d090       0x30 CMakeFiles/Basic_workflow.dir/Unity/unity_2_c.c.o
 .debug_aranges
                0x000000010043d0c0       0x30 CMakeFiles/Basic_workflow.dir/Unity/unity_1_c.c.o
 .debug_aranges
                0x000000010043d0f0       0x30 CMakeFiles/Basic_workflow.dir/Unity/unity_0_c.c.o
 .debug_aranges
                0x000000010043d120       0x30 CMakeFiles/Basic_workflow.dir/cygdrive/c/ETAS/RTA-CAR_12.2.0/RTA-CAR/workspace/Basic_Workflow/src/asw/MySWC.c.o
 .debug_aranges
                0x000000010043d150       0x30 CMakeFiles/Basic_workflow.dir/cygdrive/c/ETAS/RTA-CAR_12.2.0/RTA-CAR/workspace/Basic_Workflow/src/bsw/Det/src/Det.c.o
 .debug_aranges
                0x000000010043d180       0x20 CMakeFiles/Basic_workflow.dir/cygdrive/c/ETAS/RTA-CAR_12.2.0/RTA-CAR/workspace/Basic_Workflow/src/bsw/EcuM/EcuM_Cfg.c.o
 .debug_aranges
                0x000000010043d1a0       0x30 CMakeFiles/Basic_workflow.dir/cygdrive/c/ETAS/RTA-CAR_12.2.0/RTA-CAR/workspace/Basic_Workflow/src/bsw/EcuM/EcuM_Cfg_PbExt.c.o
 .debug_aranges
                0x000000010043d1d0       0x30 CMakeFiles/Basic_workflow.dir/cygdrive/c/ETAS/RTA-CAR_12.2.0/RTA-CAR/workspace/Basic_Workflow/src/bsw/EcuM/EcuM_Cfg_RbMo.c.o
 .debug_aranges
                0x000000010043d200       0x30 CMakeFiles/Basic_workflow.dir/cygdrive/c/ETAS/RTA-CAR_12.2.0/RTA-CAR/workspace/Basic_Workflow/src/bsw/EcuM/EcuM_Cfg_Sleep.c.o
 .debug_aranges
                0x000000010043d230       0x30 CMakeFiles/Basic_workflow.dir/cygdrive/c/ETAS/RTA-CAR_12.2.0/RTA-CAR/workspace/Basic_Workflow/src/bsw/EcuM/EcuM_Cfg_Startup.c.o
 .debug_aranges
                0x000000010043d260       0x30 CMakeFiles/Basic_workflow.dir/cygdrive/c/ETAS/RTA-CAR_12.2.0/RTA-CAR/workspace/Basic_Workflow/src/bsw/EcuM/EcuM_Cfg_SynchPoint.c.o
 .debug_aranges
                0x000000010043d290       0x20 CMakeFiles/Basic_workflow.dir/cygdrive/c/ETAS/RTA-CAR_12.2.0/RTA-CAR/workspace/Basic_Workflow/src/bsw/EcuM/EcuM_Lcfg.c.o
 .debug_aranges
                0x000000010043d2b0       0x20 CMakeFiles/Basic_workflow.dir/cygdrive/c/ETAS/RTA-CAR_12.2.0/RTA-CAR/workspace/Basic_Workflow/src/bsw/EcuM/EcuM_PBcfg.c.o
 .debug_aranges
                0x000000010043d2d0       0x30 CMakeFiles/Basic_workflow.dir/cygdrive/c/ETAS/RTA-CAR_12.2.0/RTA-CAR/workspace/Basic_Workflow/src/bsw/EcuM/integration/EcuM_Callout_Stubs.c.o
 .debug_aranges
                0x000000010043d300       0x30 CMakeFiles/Basic_workflow.dir/cygdrive/c/ETAS/RTA-CAR_12.2.0/RTA-CAR/workspace/Basic_Workflow/src/bsw/EcuM/src/EcuM_BootTarget.c.o
 .debug_aranges
                0x000000010043d330       0x20 CMakeFiles/Basic_workflow.dir/cygdrive/c/ETAS/RTA-CAR_12.2.0/RTA-CAR/workspace/Basic_Workflow/src/bsw/EcuM/src/EcuM_CurrentState.c.o
 .debug_aranges
                0x000000010043d350       0x20 CMakeFiles/Basic_workflow.dir/cygdrive/c/ETAS/RTA-CAR_12.2.0/RTA-CAR/workspace/Basic_Workflow/src/bsw/EcuM/src/EcuM_KillAllRequests.c.o
 .debug_aranges
                0x000000010043d370       0x30 CMakeFiles/Basic_workflow.dir/cygdrive/c/ETAS/RTA-CAR_12.2.0/RTA-CAR/workspace/Basic_Workflow/src/bsw/EcuM/src/EcuM_MainFunction.c.o
 .debug_aranges
                0x000000010043d3a0       0x20 CMakeFiles/Basic_workflow.dir/cygdrive/c/ETAS/RTA-CAR_12.2.0/RTA-CAR/workspace/Basic_Workflow/src/bsw/EcuM/src/EcuM_Misc.c.o
 .debug_aranges
                0x000000010043d3c0       0x30 CMakeFiles/Basic_workflow.dir/cygdrive/c/ETAS/RTA-CAR_12.2.0/RTA-CAR/workspace/Basic_Workflow/src/bsw/EcuM/src/EcuM_Prv.c.o
 .debug_aranges
                0x000000010043d3f0       0x20 CMakeFiles/Basic_workflow.dir/cygdrive/c/ETAS/RTA-CAR_12.2.0/RTA-CAR/workspace/Basic_Workflow/src/bsw/EcuM/src/EcuM_Prv_RteActions.c.o
 .debug_aranges
                0x000000010043d410       0x20 CMakeFiles/Basic_workflow.dir/cygdrive/c/ETAS/RTA-CAR_12.2.0/RTA-CAR/workspace/Basic_Workflow/src/bsw/EcuM/src/EcuM_ReleasePOST_RUN.c.o
 .debug_aranges
                0x000000010043d430       0x20 CMakeFiles/Basic_workflow.dir/cygdrive/c/ETAS/RTA-CAR_12.2.0/RTA-CAR/workspace/Basic_Workflow/src/bsw/EcuM/src/EcuM_ReleaseRUN.c.o
 .debug_aranges
                0x000000010043d450       0x20 CMakeFiles/Basic_workflow.dir/cygdrive/c/ETAS/RTA-CAR_12.2.0/RTA-CAR/workspace/Basic_Workflow/src/bsw/EcuM/src/EcuM_RequestPOST_RUN.c.o
 .debug_aranges
                0x000000010043d470       0x20 CMakeFiles/Basic_workflow.dir/cygdrive/c/ETAS/RTA-CAR_12.2.0/RTA-CAR/workspace/Basic_Workflow/src/bsw/EcuM/src/EcuM_RequestRUN.c.o
 .debug_aranges
                0x000000010043d490       0x20 CMakeFiles/Basic_workflow.dir/cygdrive/c/ETAS/RTA-CAR_12.2.0/RTA-CAR/workspace/Basic_Workflow/src/bsw/EcuM/src/EcuM_SetState.c.o
 .debug_aranges
                0x000000010043d4b0       0x30 CMakeFiles/Basic_workflow.dir/cygdrive/c/ETAS/RTA-CAR_12.2.0/RTA-CAR/workspace/Basic_Workflow/src/bsw/EcuM/src/EcuM_Shutdown.c.o
 .debug_aranges
                0x000000010043d4e0       0x30 CMakeFiles/Basic_workflow.dir/cygdrive/c/ETAS/RTA-CAR_12.2.0/RTA-CAR/workspace/Basic_Workflow/src/bsw/EcuM/src/EcuM_ShutdownServices.c.o
 .debug_aranges
                0x000000010043d510       0x20 CMakeFiles/Basic_workflow.dir/cygdrive/c/ETAS/RTA-CAR_12.2.0/RTA-CAR/workspace/Basic_Workflow/src/bsw/EcuM/src/EcuM_Sleep.c.o
 .debug_aranges
                0x000000010043d530       0x30 CMakeFiles/Basic_workflow.dir/cygdrive/c/ETAS/RTA-CAR_12.2.0/RTA-CAR/workspace/Basic_Workflow/src/bsw/EcuM/src/EcuM_Startup.c.o
 .debug_aranges
                0x000000010043d560       0x30 CMakeFiles/Basic_workflow.dir/cygdrive/c/ETAS/RTA-CAR_12.2.0/RTA-CAR/workspace/Basic_Workflow/src/bsw/EcuM/src/EcuM_WakeupServices.c.o
 .debug_aranges
                0x000000010043d590       0x30 CMakeFiles/Basic_workflow.dir/cygdrive/c/ETAS/RTA-CAR_12.2.0/RTA-CAR/workspace/Basic_Workflow/src/rte/Rte.c.o
 .debug_aranges
                0x000000010043d5c0       0x30 CMakeFiles/Basic_workflow.dir/cygdrive/c/ETAS/RTA-CAR_12.2.0/RTA-CAR/workspace/Basic_Workflow/src/rte/Rte_Lib.c.o
 .debug_aranges
                0x000000010043d5f0      0x5b0 CMakeFiles/Basic_workflow.dir/cygdrive/c/ETAS/RTA-CAR_12.2.0/RTA-CAR/workspace/Basic_Workflow/src/mcal/Can_Device.cpp.o
 .debug_aranges
                0x000000010043dba0       0x30 CMakeFiles/Basic_workflow.dir/cygdrive/c/ETAS/RTA-CAR_12.2.0/RTA-CAR/workspace/Basic_Workflow/src/mcal/Can_HwProvider.cpp.o
 .debug_aranges
                0x000000010043dbd0       0xc0 CMakeFiles/Basic_workflow.dir/cygdrive/c/ETAS/RTA-CAR_12.2.0/RTA-CAR/workspace/Basic_Workflow/src/mcal/Can_Implementation.cpp.o
 .debug_aranges
                0x000000010043dc90      0x170 CMakeFiles/Basic_workflow.dir/cygdrive/c/ETAS/RTA-CAR_12.2.0/RTA-CAR/workspace/Basic_Workflow/src/mcal/Mcu_Device.cpp.o
 .debug_aranges
                0x000000010043de00       0x30 CMakeFiles/Basic_workflow.dir/cygdrive/c/ETAS/RTA-CAR_12.2.0/RTA-CAR/workspace/Basic_Workflow/src/mcal/Mcu_Implementation.cpp.o
 .debug_aranges
                0x000000010043de30      0x550 CMakeFiles/Basic_workflow.dir/cygdrive/c/ETAS/RTA-CAR_12.2.0/RTA-CAR/workspace/Basic_Workflow/src/mcal/VirtualCan.cpp.o
 .debug_aranges
                0x000000010043e380       0x70 CMakeFiles/Basic_workflow.dir/cygdrive/c/ETAS/RTA-CAR_12.2.0/RTA-CAR/workspace/Basic_Workflow/src/vrta/VRTA_SystemClock.cpp.o
 .debug_aranges
                0x000000010043e3f0       0x30 CMakeFiles/Basic_workflow.dir/cygdrive/c/ETAS/RTA-CAR_12.2.0/RTA-CAR/workspace/Basic_Workflow/src/vrta/Vrta_Cfg.cpp.o
 .debug_aranges
                0x000000010043e420       0x30 CMakeFiles/Basic_workflow.dir/cygdrive/c/ETAS/RTA-CAR_12.2.0/RTA-CAR/workspace/Basic_Workflow/src/vrta/target.cpp.o
 .debug_aranges
                0x000000010043e450       0x90 /usr/lib/gcc/x86_64-pc-cygwin/11/libstdc++.a(class_type_info.o)
 .debug_aranges
                0x000000010043e4e0       0x30 /usr/lib/gcc/x86_64-pc-cygwin/11/libstdc++.a(del_ops.o)
 .debug_aranges
                0x000000010043e510       0x30 /usr/lib/gcc/x86_64-pc-cygwin/11/libstdc++.a(del_opv.o)
 .debug_aranges
                0x000000010043e540       0x30 /usr/lib/gcc/x86_64-pc-cygwin/11/libstdc++.a(del_opvs.o)
 .debug_aranges
                0x000000010043e570       0x50 /usr/lib/gcc/x86_64-pc-cygwin/11/libstdc++.a(eh_aux_runtime.o)
 .debug_aranges
                0x000000010043e5c0       0xa0 /usr/lib/gcc/x86_64-pc-cygwin/11/libstdc++.a(eh_personality.o)
 .debug_aranges
                0x000000010043e660       0xa0 /usr/lib/gcc/x86_64-pc-cygwin/11/libstdc++.a(eh_terminate.o)
 .debug_aranges
                0x000000010043e700       0x60 /usr/lib/gcc/x86_64-pc-cygwin/11/libstdc++.a(eh_throw.o)
 .debug_aranges
                0x000000010043e760       0x20 /usr/lib/gcc/x86_64-pc-cygwin/11/libstdc++.a(eh_unex_handler.o)
 .debug_aranges
                0x000000010043e780       0x30 /usr/lib/gcc/x86_64-pc-cygwin/11/libstdc++.a(new_op.o)
 .debug_aranges
                0x000000010043e7b0       0x30 /usr/lib/gcc/x86_64-pc-cygwin/11/libstdc++.a(new_opv.o)
 .debug_aranges
                0x000000010043e7e0       0x70 /usr/lib/gcc/x86_64-pc-cygwin/11/libstdc++.a(si_class_type_info.o)
 .debug_aranges
                0x000000010043e850       0x80 /usr/lib/gcc/x86_64-pc-cygwin/11/libstdc++.a(tinfo.o)
 .debug_aranges
                0x000000010043e8d0       0x30 /usr/lib/gcc/x86_64-pc-cygwin/11/libstdc++.a(vterminate.o)
 .debug_aranges
                0x000000010043e900       0x50 /usr/lib/gcc/x86_64-pc-cygwin/11/libstdc++.a(bad_alloc.o)
 .debug_aranges
                0x000000010043e950       0x50 /usr/lib/gcc/x86_64-pc-cygwin/11/libstdc++.a(bad_array_new.o)
 .debug_aranges
                0x000000010043e9a0       0x50 /usr/lib/gcc/x86_64-pc-cygwin/11/libstdc++.a(bad_cast.o)
 .debug_aranges
                0x000000010043e9f0       0x50 /usr/lib/gcc/x86_64-pc-cygwin/11/libstdc++.a(bad_typeid.o)
 .debug_aranges
                0x000000010043ea40       0x40 /usr/lib/gcc/x86_64-pc-cygwin/11/libstdc++.a(cp-demangle.o)
 .debug_aranges
                0x000000010043ea80       0x30 /usr/lib/gcc/x86_64-pc-cygwin/11/libstdc++.a(del_op.o)
 .debug_aranges
                0x000000010043eab0      0x120 /usr/lib/gcc/x86_64-pc-cygwin/11/libstdc++.a(eh_alloc.o)
 .debug_aranges
                0x000000010043ebd0       0x30 /usr/lib/gcc/x86_64-pc-cygwin/11/libstdc++.a(eh_call.o)
 .debug_aranges
                0x000000010043ec00       0x70 /usr/lib/gcc/x86_64-pc-cygwin/11/libstdc++.a(eh_catch.o)
 .debug_aranges
                0x000000010043ec70       0xd0 /usr/lib/gcc/x86_64-pc-cygwin/11/libstdc++.a(eh_exception.o)
 .debug_aranges
                0x000000010043ed40       0x30 /usr/lib/gcc/x86_64-pc-cygwin/11/libstdc++.a(eh_globals.o)
 .debug_aranges
                0x000000010043ed70       0x20 /usr/lib/gcc/x86_64-pc-cygwin/11/libstdc++.a(eh_term_handler.o)
 .debug_aranges
                0x000000010043ed90       0x30 /usr/lib/gcc/x86_64-pc-cygwin/11/libstdc++.a(eh_type.o)
 .debug_aranges
                0x000000010043edc0       0x40 /usr/lib/gcc/x86_64-pc-cygwin/11/libstdc++.a(new_handler.o)
 .debug_aranges
                0x000000010043ee00       0x30 /usr/lib/gcc/x86_64-pc-cygwin/11/libgcc.a(_chkstk_ms.o)
 .debug_aranges
                0x000000010043ee30       0x30 /usr/lib/gcc/x86_64-pc-cygwin/11/libgcc_eh.a(unwind-seh.o)
 .debug_aranges
                0x000000010043ee60       0x30 /usr/lib/gcc/x86_64-pc-cygwin/11/libgcc_eh.a(emutls.o)
 .debug_aranges
                0x000000010043ee90       0x30 /usr/lib/gcc/x86_64-pc-cygwin/11/../../../../lib/libcygwin.a(atexit.o)
 .debug_aranges
                0x000000010043eec0       0x30 /usr/lib/gcc/x86_64-pc-cygwin/11/../../../../lib/libcygwin.a(cygwin_crt0.o)
 .debug_aranges
                0x000000010043eef0       0x30 /usr/lib/gcc/x86_64-pc-cygwin/11/../../../../lib/libcygwin.a(libcmain.o)
 .debug_aranges
                0x000000010043ef20       0x30 /usr/lib/gcc/x86_64-pc-cygwin/11/../../../../lib/libcygwin.a(premain0.o)
 .debug_aranges
                0x000000010043ef50       0x30 /usr/lib/gcc/x86_64-pc-cygwin/11/../../../../lib/libcygwin.a(premain1.o)
 .debug_aranges
                0x000000010043ef80       0x30 /usr/lib/gcc/x86_64-pc-cygwin/11/../../../../lib/libcygwin.a(premain2.o)
 .debug_aranges
                0x000000010043efb0       0x30 /usr/lib/gcc/x86_64-pc-cygwin/11/../../../../lib/libcygwin.a(premain3.o)
 .debug_aranges
                0x000000010043efe0       0x30 /usr/lib/gcc/x86_64-pc-cygwin/11/../../../../lib/libcygwin.a(_cygwin_crt0_common.o)
 .debug_aranges
                0x000000010043f010       0x30 /usr/lib/gcc/x86_64-pc-cygwin/11/../../../../lib/libcygwin.a(dll_entry.o)
 .debug_aranges
                0x000000010043f040       0x30 /usr/lib/gcc/x86_64-pc-cygwin/11/../../../../lib/libcygwin.a(dll_main.o)
 .debug_aranges
                0x000000010043f070       0x30 /usr/lib/gcc/x86_64-pc-cygwin/11/../../../../lib/libcygwin.a(pseudo-reloc-dummy.o)
 .debug_aranges
                0x000000010043f0a0       0x30 /usr/lib/gcc/x86_64-pc-cygwin/11/../../../../lib/libcygwin.a(cygwin_attach_dll.o)
 .debug_aranges
                0x000000010043f0d0       0x20 /usr/lib/gcc/x86_64-pc-cygwin/11/libgcc.a(_ctors.o)

.zdebug_aranges
 *(.zdebug_aranges)

.debug_pubnames
 *(.debug_pubnames)

.zdebug_pubnames
 *(.zdebug_pubnames)

.debug_info     0x0000000100440000    0x82800
 *(.debug_info .gnu.linkonce.wi.*)
 .debug_info    0x0000000100440000     0x120a /usr/lib/gcc/x86_64-pc-cygwin/11/../../../../lib/crt0.o
 .debug_info    0x000000010044120a     0x4b52 CMakeFiles/Basic_workflow.dir/Unity/unity_4_c.c.o
 .debug_info    0x0000000100445d5c     0x4839 CMakeFiles/Basic_workflow.dir/Unity/unity_3_c.c.o
 .debug_info    0x000000010044a595     0x64ab CMakeFiles/Basic_workflow.dir/Unity/unity_2_c.c.o
 .debug_info    0x0000000100450a40     0x5eb2 CMakeFiles/Basic_workflow.dir/Unity/unity_1_c.c.o
 .debug_info    0x00000001004568f2     0x6588 CMakeFiles/Basic_workflow.dir/Unity/unity_0_c.c.o
 .debug_info    0x000000010045ce7a      0x501 CMakeFiles/Basic_workflow.dir/cygdrive/c/ETAS/RTA-CAR_12.2.0/RTA-CAR/workspace/Basic_Workflow/src/asw/MySWC.c.o
 .debug_info    0x000000010045d37b      0x47c CMakeFiles/Basic_workflow.dir/cygdrive/c/ETAS/RTA-CAR_12.2.0/RTA-CAR/workspace/Basic_Workflow/src/bsw/Det/src/Det.c.o
 .debug_info    0x000000010045d7f7      0x3cf CMakeFiles/Basic_workflow.dir/cygdrive/c/ETAS/RTA-CAR_12.2.0/RTA-CAR/workspace/Basic_Workflow/src/bsw/EcuM/EcuM_Cfg.c.o
 .debug_info    0x000000010045dbc6       0x8e CMakeFiles/Basic_workflow.dir/cygdrive/c/ETAS/RTA-CAR_12.2.0/RTA-CAR/workspace/Basic_Workflow/src/bsw/EcuM/EcuM_Cfg_PbExt.c.o
 .debug_info    0x000000010045dc54       0x86 CMakeFiles/Basic_workflow.dir/cygdrive/c/ETAS/RTA-CAR_12.2.0/RTA-CAR/workspace/Basic_Workflow/src/bsw/EcuM/EcuM_Cfg_RbMo.c.o
 .debug_info    0x000000010045dcda       0xb3 CMakeFiles/Basic_workflow.dir/cygdrive/c/ETAS/RTA-CAR_12.2.0/RTA-CAR/workspace/Basic_Workflow/src/bsw/EcuM/EcuM_Cfg_Sleep.c.o
 .debug_info    0x000000010045dd8d     0x2a9e CMakeFiles/Basic_workflow.dir/cygdrive/c/ETAS/RTA-CAR_12.2.0/RTA-CAR/workspace/Basic_Workflow/src/bsw/EcuM/EcuM_Cfg_Startup.c.o
 .debug_info    0x000000010046082b       0x84 CMakeFiles/Basic_workflow.dir/cygdrive/c/ETAS/RTA-CAR_12.2.0/RTA-CAR/workspace/Basic_Workflow/src/bsw/EcuM/EcuM_Cfg_SynchPoint.c.o
 .debug_info    0x00000001004608af      0x170 CMakeFiles/Basic_workflow.dir/cygdrive/c/ETAS/RTA-CAR_12.2.0/RTA-CAR/workspace/Basic_Workflow/src/bsw/EcuM/EcuM_Lcfg.c.o
 .debug_info    0x0000000100460a1f     0x2a81 CMakeFiles/Basic_workflow.dir/cygdrive/c/ETAS/RTA-CAR_12.2.0/RTA-CAR/workspace/Basic_Workflow/src/bsw/EcuM/EcuM_PBcfg.c.o
 .debug_info    0x00000001004634a0     0x2cd9 CMakeFiles/Basic_workflow.dir/cygdrive/c/ETAS/RTA-CAR_12.2.0/RTA-CAR/workspace/Basic_Workflow/src/bsw/EcuM/integration/EcuM_Callout_Stubs.c.o
 .debug_info    0x0000000100466179      0x2e4 CMakeFiles/Basic_workflow.dir/cygdrive/c/ETAS/RTA-CAR_12.2.0/RTA-CAR/workspace/Basic_Workflow/src/bsw/EcuM/src/EcuM_BootTarget.c.o
 .debug_info    0x000000010046645d      0x10e CMakeFiles/Basic_workflow.dir/cygdrive/c/ETAS/RTA-CAR_12.2.0/RTA-CAR/workspace/Basic_Workflow/src/bsw/EcuM/src/EcuM_CurrentState.c.o
 .debug_info    0x000000010046656b      0x10e CMakeFiles/Basic_workflow.dir/cygdrive/c/ETAS/RTA-CAR_12.2.0/RTA-CAR/workspace/Basic_Workflow/src/bsw/EcuM/src/EcuM_KillAllRequests.c.o
 .debug_info    0x0000000100466679      0x9c0 CMakeFiles/Basic_workflow.dir/cygdrive/c/ETAS/RTA-CAR_12.2.0/RTA-CAR/workspace/Basic_Workflow/src/bsw/EcuM/src/EcuM_MainFunction.c.o
 .debug_info    0x0000000100467039      0x11d CMakeFiles/Basic_workflow.dir/cygdrive/c/ETAS/RTA-CAR_12.2.0/RTA-CAR/workspace/Basic_Workflow/src/bsw/EcuM/src/EcuM_Misc.c.o
 .debug_info    0x0000000100467156     0x3601 CMakeFiles/Basic_workflow.dir/cygdrive/c/ETAS/RTA-CAR_12.2.0/RTA-CAR/workspace/Basic_Workflow/src/bsw/EcuM/src/EcuM_Prv.c.o
 .debug_info    0x000000010046a757      0x10e CMakeFiles/Basic_workflow.dir/cygdrive/c/ETAS/RTA-CAR_12.2.0/RTA-CAR/workspace/Basic_Workflow/src/bsw/EcuM/src/EcuM_Prv_RteActions.c.o
 .debug_info    0x000000010046a865      0x10e CMakeFiles/Basic_workflow.dir/cygdrive/c/ETAS/RTA-CAR_12.2.0/RTA-CAR/workspace/Basic_Workflow/src/bsw/EcuM/src/EcuM_ReleasePOST_RUN.c.o
 .debug_info    0x000000010046a973      0x10e CMakeFiles/Basic_workflow.dir/cygdrive/c/ETAS/RTA-CAR_12.2.0/RTA-CAR/workspace/Basic_Workflow/src/bsw/EcuM/src/EcuM_ReleaseRUN.c.o
 .debug_info    0x000000010046aa81      0x10e CMakeFiles/Basic_workflow.dir/cygdrive/c/ETAS/RTA-CAR_12.2.0/RTA-CAR/workspace/Basic_Workflow/src/bsw/EcuM/src/EcuM_RequestPOST_RUN.c.o
 .debug_info    0x000000010046ab8f      0x10e CMakeFiles/Basic_workflow.dir/cygdrive/c/ETAS/RTA-CAR_12.2.0/RTA-CAR/workspace/Basic_Workflow/src/bsw/EcuM/src/EcuM_RequestRUN.c.o
 .debug_info    0x000000010046ac9d      0x10e CMakeFiles/Basic_workflow.dir/cygdrive/c/ETAS/RTA-CAR_12.2.0/RTA-CAR/workspace/Basic_Workflow/src/bsw/EcuM/src/EcuM_SetState.c.o
 .debug_info    0x000000010046adab      0x47c CMakeFiles/Basic_workflow.dir/cygdrive/c/ETAS/RTA-CAR_12.2.0/RTA-CAR/workspace/Basic_Workflow/src/bsw/EcuM/src/EcuM_Shutdown.c.o
 .debug_info    0x000000010046b227      0x5d2 CMakeFiles/Basic_workflow.dir/cygdrive/c/ETAS/RTA-CAR_12.2.0/RTA-CAR/workspace/Basic_Workflow/src/bsw/EcuM/src/EcuM_ShutdownServices.c.o
 .debug_info    0x000000010046b7f9      0x10e CMakeFiles/Basic_workflow.dir/cygdrive/c/ETAS/RTA-CAR_12.2.0/RTA-CAR/workspace/Basic_Workflow/src/bsw/EcuM/src/EcuM_Sleep.c.o
 .debug_info    0x000000010046b907     0x2c5c CMakeFiles/Basic_workflow.dir/cygdrive/c/ETAS/RTA-CAR_12.2.0/RTA-CAR/workspace/Basic_Workflow/src/bsw/EcuM/src/EcuM_Startup.c.o
 .debug_info    0x000000010046e563      0x911 CMakeFiles/Basic_workflow.dir/cygdrive/c/ETAS/RTA-CAR_12.2.0/RTA-CAR/workspace/Basic_Workflow/src/bsw/EcuM/src/EcuM_WakeupServices.c.o
 .debug_info    0x000000010046ee74      0xde5 CMakeFiles/Basic_workflow.dir/cygdrive/c/ETAS/RTA-CAR_12.2.0/RTA-CAR/workspace/Basic_Workflow/src/rte/Rte.c.o
 .debug_info    0x000000010046fc59     0x143b CMakeFiles/Basic_workflow.dir/cygdrive/c/ETAS/RTA-CAR_12.2.0/RTA-CAR/workspace/Basic_Workflow/src/rte/Rte_Lib.c.o
 .debug_info    0x0000000100471094     0x6e62 CMakeFiles/Basic_workflow.dir/cygdrive/c/ETAS/RTA-CAR_12.2.0/RTA-CAR/workspace/Basic_Workflow/src/mcal/Can_Device.cpp.o
 .debug_info    0x0000000100477ef6     0x177f CMakeFiles/Basic_workflow.dir/cygdrive/c/ETAS/RTA-CAR_12.2.0/RTA-CAR/workspace/Basic_Workflow/src/mcal/Can_HwProvider.cpp.o
 .debug_info    0x0000000100479675     0x4811 CMakeFiles/Basic_workflow.dir/cygdrive/c/ETAS/RTA-CAR_12.2.0/RTA-CAR/workspace/Basic_Workflow/src/mcal/Can_Implementation.cpp.o
 .debug_info    0x000000010047de86     0x2044 CMakeFiles/Basic_workflow.dir/cygdrive/c/ETAS/RTA-CAR_12.2.0/RTA-CAR/workspace/Basic_Workflow/src/mcal/Mcu_Device.cpp.o
 .debug_info    0x000000010047feca      0x8f9 CMakeFiles/Basic_workflow.dir/cygdrive/c/ETAS/RTA-CAR_12.2.0/RTA-CAR/workspace/Basic_Workflow/src/mcal/Mcu_Implementation.cpp.o
 .debug_info    0x00000001004807c3     0x62fc CMakeFiles/Basic_workflow.dir/cygdrive/c/ETAS/RTA-CAR_12.2.0/RTA-CAR/workspace/Basic_Workflow/src/mcal/VirtualCan.cpp.o
 .debug_info    0x0000000100486abf     0x18b5 CMakeFiles/Basic_workflow.dir/cygdrive/c/ETAS/RTA-CAR_12.2.0/RTA-CAR/workspace/Basic_Workflow/src/vrta/VRTA_SystemClock.cpp.o
 .debug_info    0x0000000100488374      0x398 CMakeFiles/Basic_workflow.dir/cygdrive/c/ETAS/RTA-CAR_12.2.0/RTA-CAR/workspace/Basic_Workflow/src/vrta/Vrta_Cfg.cpp.o
 .debug_info    0x000000010048870c      0xcfb CMakeFiles/Basic_workflow.dir/cygdrive/c/ETAS/RTA-CAR_12.2.0/RTA-CAR/workspace/Basic_Workflow/src/vrta/target.cpp.o
 .debug_info    0x0000000100489407     0x16cf /usr/lib/gcc/x86_64-pc-cygwin/11/libstdc++.a(class_type_info.o)
 .debug_info    0x000000010048aad6      0x152 /usr/lib/gcc/x86_64-pc-cygwin/11/libstdc++.a(del_ops.o)
 .debug_info    0x000000010048ac28      0x150 /usr/lib/gcc/x86_64-pc-cygwin/11/libstdc++.a(del_opv.o)
 .debug_info    0x000000010048ad78      0x153 /usr/lib/gcc/x86_64-pc-cygwin/11/libstdc++.a(del_opvs.o)
 .debug_info    0x000000010048aecb     0x21fb /usr/lib/gcc/x86_64-pc-cygwin/11/libstdc++.a(eh_aux_runtime.o)
 .debug_info    0x000000010048d0c6     0x4b9d /usr/lib/gcc/x86_64-pc-cygwin/11/libstdc++.a(eh_personality.o)
 .debug_info    0x0000000100491c63     0x1577 /usr/lib/gcc/x86_64-pc-cygwin/11/libstdc++.a(eh_terminate.o)
 .debug_info    0x00000001004931da     0x1b1a /usr/lib/gcc/x86_64-pc-cygwin/11/libstdc++.a(eh_throw.o)
 .debug_info    0x0000000100494cf4     0x10a8 /usr/lib/gcc/x86_64-pc-cygwin/11/libstdc++.a(eh_unex_handler.o)
 .debug_info    0x0000000100495d9c      0xbfe /usr/lib/gcc/x86_64-pc-cygwin/11/libstdc++.a(new_op.o)
 .debug_info    0x000000010049699a      0x164 /usr/lib/gcc/x86_64-pc-cygwin/11/libstdc++.a(new_opv.o)
 .debug_info    0x0000000100496afe     0x15b7 /usr/lib/gcc/x86_64-pc-cygwin/11/libstdc++.a(si_class_type_info.o)
 .debug_info    0x00000001004980b5     0x10f4 /usr/lib/gcc/x86_64-pc-cygwin/11/libstdc++.a(tinfo.o)
 .debug_info    0x00000001004991a9     0x256e /usr/lib/gcc/x86_64-pc-cygwin/11/libstdc++.a(vterminate.o)
 .debug_info    0x000000010049b717      0x439 /usr/lib/gcc/x86_64-pc-cygwin/11/libstdc++.a(bad_alloc.o)
 .debug_info    0x000000010049bb50      0x413 /usr/lib/gcc/x86_64-pc-cygwin/11/libstdc++.a(bad_array_new.o)
 .debug_info    0x000000010049bf63      0x37d /usr/lib/gcc/x86_64-pc-cygwin/11/libstdc++.a(bad_cast.o)
 .debug_info    0x000000010049c2e0      0x390 /usr/lib/gcc/x86_64-pc-cygwin/11/libstdc++.a(bad_typeid.o)
 .debug_info    0x000000010049c670     0xfbb2 /usr/lib/gcc/x86_64-pc-cygwin/11/libstdc++.a(cp-demangle.o)
 .debug_info    0x00000001004ac222      0x7a0 /usr/lib/gcc/x86_64-pc-cygwin/11/libstdc++.a(del_op.o)
 .debug_info    0x00000001004ac9c2     0x3a78 /usr/lib/gcc/x86_64-pc-cygwin/11/libstdc++.a(eh_alloc.o)
 .debug_info    0x00000001004b043a     0x1585 /usr/lib/gcc/x86_64-pc-cygwin/11/libstdc++.a(eh_call.o)
 .debug_info    0x00000001004b19bf     0x1924 /usr/lib/gcc/x86_64-pc-cygwin/11/libstdc++.a(eh_catch.o)
 .debug_info    0x00000001004b32e3     0x1a19 /usr/lib/gcc/x86_64-pc-cygwin/11/libstdc++.a(eh_exception.o)
 .debug_info    0x00000001004b4cfc     0x14db /usr/lib/gcc/x86_64-pc-cygwin/11/libstdc++.a(eh_globals.o)
 .debug_info    0x00000001004b61d7     0x10d7 /usr/lib/gcc/x86_64-pc-cygwin/11/libstdc++.a(eh_term_handler.o)
 .debug_info    0x00000001004b72ae     0x162e /usr/lib/gcc/x86_64-pc-cygwin/11/libstdc++.a(eh_type.o)
 .debug_info    0x00000001004b88dc      0x272 /usr/lib/gcc/x86_64-pc-cygwin/11/libstdc++.a(new_handler.o)
 .debug_info    0x00000001004b8b4e       0x28 /usr/lib/gcc/x86_64-pc-cygwin/11/libgcc.a(_chkstk_ms.o)
 .debug_info    0x00000001004b8b76     0x1ca4 /usr/lib/gcc/x86_64-pc-cygwin/11/libgcc_eh.a(unwind-seh.o)
 .debug_info    0x00000001004ba81a     0x1824 /usr/lib/gcc/x86_64-pc-cygwin/11/libgcc_eh.a(emutls.o)
 .debug_info    0x00000001004bc03e      0x8bf /usr/lib/gcc/x86_64-pc-cygwin/11/../../../../lib/libcygwin.a(atexit.o)
 .debug_info    0x00000001004bc8fd      0x2b9 /usr/lib/gcc/x86_64-pc-cygwin/11/../../../../lib/libcygwin.a(cygwin_crt0.o)
 .debug_info    0x00000001004bcbb6      0x6d6 /usr/lib/gcc/x86_64-pc-cygwin/11/../../../../lib/libcygwin.a(libcmain.o)
 .debug_info    0x00000001004bd28c      0x15f /usr/lib/gcc/x86_64-pc-cygwin/11/../../../../lib/libcygwin.a(premain0.o)
 .debug_info    0x00000001004bd3eb      0x15f /usr/lib/gcc/x86_64-pc-cygwin/11/../../../../lib/libcygwin.a(premain1.o)
 .debug_info    0x00000001004bd54a      0x15f /usr/lib/gcc/x86_64-pc-cygwin/11/../../../../lib/libcygwin.a(premain2.o)
 .debug_info    0x00000001004bd6a9      0x15f /usr/lib/gcc/x86_64-pc-cygwin/11/../../../../lib/libcygwin.a(premain3.o)
 .debug_info    0x00000001004bd808     0x23ae /usr/lib/gcc/x86_64-pc-cygwin/11/../../../../lib/libcygwin.a(_cygwin_crt0_common.o)
 .debug_info    0x00000001004bfbb6      0x850 /usr/lib/gcc/x86_64-pc-cygwin/11/../../../../lib/libcygwin.a(dll_entry.o)
 .debug_info    0x00000001004c0406      0x32f /usr/lib/gcc/x86_64-pc-cygwin/11/../../../../lib/libcygwin.a(dll_main.o)
 .debug_info    0x00000001004c0735      0x12f /usr/lib/gcc/x86_64-pc-cygwin/11/../../../../lib/libcygwin.a(pseudo-reloc-dummy.o)
 .debug_info    0x00000001004c0864     0x1172 /usr/lib/gcc/x86_64-pc-cygwin/11/../../../../lib/libcygwin.a(cygwin_attach_dll.o)
 .debug_info    0x00000001004c19d6      0xd8c /usr/lib/gcc/x86_64-pc-cygwin/11/libgcc.a(_ctors.o)

.zdebug_info
 *(.zdebug_info .zdebug.gnu.linkonce.wi.*)

.debug_abbrev   0x00000001004c3000     0xd800
 *(.debug_abbrev)
 .debug_abbrev  0x00000001004c3000      0x22b /usr/lib/gcc/x86_64-pc-cygwin/11/../../../../lib/crt0.o
 .debug_abbrev  0x00000001004c322b      0x3e0 CMakeFiles/Basic_workflow.dir/Unity/unity_4_c.c.o
 .debug_abbrev  0x00000001004c360b      0x42a CMakeFiles/Basic_workflow.dir/Unity/unity_3_c.c.o
 .debug_abbrev  0x00000001004c3a35      0x556 CMakeFiles/Basic_workflow.dir/Unity/unity_2_c.c.o
 .debug_abbrev  0x00000001004c3f8b      0x405 CMakeFiles/Basic_workflow.dir/Unity/unity_1_c.c.o
 .debug_abbrev  0x00000001004c4390      0x48f CMakeFiles/Basic_workflow.dir/Unity/unity_0_c.c.o
 .debug_abbrev  0x00000001004c481f      0x114 CMakeFiles/Basic_workflow.dir/cygdrive/c/ETAS/RTA-CAR_12.2.0/RTA-CAR/workspace/Basic_Workflow/src/asw/MySWC.c.o
 .debug_abbrev  0x00000001004c4933      0x168 CMakeFiles/Basic_workflow.dir/cygdrive/c/ETAS/RTA-CAR_12.2.0/RTA-CAR/workspace/Basic_Workflow/src/bsw/Det/src/Det.c.o
 .debug_abbrev  0x00000001004c4a9b       0xb0 CMakeFiles/Basic_workflow.dir/cygdrive/c/ETAS/RTA-CAR_12.2.0/RTA-CAR/workspace/Basic_Workflow/src/bsw/EcuM/EcuM_Cfg.c.o
 .debug_abbrev  0x00000001004c4b4b       0x2d CMakeFiles/Basic_workflow.dir/cygdrive/c/ETAS/RTA-CAR_12.2.0/RTA-CAR/workspace/Basic_Workflow/src/bsw/EcuM/EcuM_Cfg_PbExt.c.o
 .debug_abbrev  0x00000001004c4b78       0x2d CMakeFiles/Basic_workflow.dir/cygdrive/c/ETAS/RTA-CAR_12.2.0/RTA-CAR/workspace/Basic_Workflow/src/bsw/EcuM/EcuM_Cfg_RbMo.c.o
 .debug_abbrev  0x00000001004c4ba5       0x2f CMakeFiles/Basic_workflow.dir/cygdrive/c/ETAS/RTA-CAR_12.2.0/RTA-CAR/workspace/Basic_Workflow/src/bsw/EcuM/EcuM_Cfg_Sleep.c.o
 .debug_abbrev  0x00000001004c4bd4      0x18b CMakeFiles/Basic_workflow.dir/cygdrive/c/ETAS/RTA-CAR_12.2.0/RTA-CAR/workspace/Basic_Workflow/src/bsw/EcuM/EcuM_Cfg_Startup.c.o
 .debug_abbrev  0x00000001004c4d5f       0x2d CMakeFiles/Basic_workflow.dir/cygdrive/c/ETAS/RTA-CAR_12.2.0/RTA-CAR/workspace/Basic_Workflow/src/bsw/EcuM/EcuM_Cfg_SynchPoint.c.o
 .debug_abbrev  0x00000001004c4d8c       0x65 CMakeFiles/Basic_workflow.dir/cygdrive/c/ETAS/RTA-CAR_12.2.0/RTA-CAR/workspace/Basic_Workflow/src/bsw/EcuM/EcuM_Lcfg.c.o
 .debug_abbrev  0x00000001004c4df1      0x14c CMakeFiles/Basic_workflow.dir/cygdrive/c/ETAS/RTA-CAR_12.2.0/RTA-CAR/workspace/Basic_Workflow/src/bsw/EcuM/EcuM_PBcfg.c.o
 .debug_abbrev  0x00000001004c4f3d      0x200 CMakeFiles/Basic_workflow.dir/cygdrive/c/ETAS/RTA-CAR_12.2.0/RTA-CAR/workspace/Basic_Workflow/src/bsw/EcuM/integration/EcuM_Callout_Stubs.c.o
 .debug_abbrev  0x00000001004c513d       0xc7 CMakeFiles/Basic_workflow.dir/cygdrive/c/ETAS/RTA-CAR_12.2.0/RTA-CAR/workspace/Basic_Workflow/src/bsw/EcuM/src/EcuM_BootTarget.c.o
 .debug_abbrev  0x00000001004c5204       0x1b CMakeFiles/Basic_workflow.dir/cygdrive/c/ETAS/RTA-CAR_12.2.0/RTA-CAR/workspace/Basic_Workflow/src/bsw/EcuM/src/EcuM_CurrentState.c.o
 .debug_abbrev  0x00000001004c521f       0x1b CMakeFiles/Basic_workflow.dir/cygdrive/c/ETAS/RTA-CAR_12.2.0/RTA-CAR/workspace/Basic_Workflow/src/bsw/EcuM/src/EcuM_KillAllRequests.c.o
 .debug_abbrev  0x00000001004c523a      0x1aa CMakeFiles/Basic_workflow.dir/cygdrive/c/ETAS/RTA-CAR_12.2.0/RTA-CAR/workspace/Basic_Workflow/src/bsw/EcuM/src/EcuM_MainFunction.c.o
 .debug_abbrev  0x00000001004c53e4       0x1b CMakeFiles/Basic_workflow.dir/cygdrive/c/ETAS/RTA-CAR_12.2.0/RTA-CAR/workspace/Basic_Workflow/src/bsw/EcuM/src/EcuM_Misc.c.o
 .debug_abbrev  0x00000001004c53ff      0x28f CMakeFiles/Basic_workflow.dir/cygdrive/c/ETAS/RTA-CAR_12.2.0/RTA-CAR/workspace/Basic_Workflow/src/bsw/EcuM/src/EcuM_Prv.c.o
 .debug_abbrev  0x00000001004c568e       0x1b CMakeFiles/Basic_workflow.dir/cygdrive/c/ETAS/RTA-CAR_12.2.0/RTA-CAR/workspace/Basic_Workflow/src/bsw/EcuM/src/EcuM_Prv_RteActions.c.o
 .debug_abbrev  0x00000001004c56a9       0x1b CMakeFiles/Basic_workflow.dir/cygdrive/c/ETAS/RTA-CAR_12.2.0/RTA-CAR/workspace/Basic_Workflow/src/bsw/EcuM/src/EcuM_ReleasePOST_RUN.c.o
 .debug_abbrev  0x00000001004c56c4       0x1b CMakeFiles/Basic_workflow.dir/cygdrive/c/ETAS/RTA-CAR_12.2.0/RTA-CAR/workspace/Basic_Workflow/src/bsw/EcuM/src/EcuM_ReleaseRUN.c.o
 .debug_abbrev  0x00000001004c56df       0x1b CMakeFiles/Basic_workflow.dir/cygdrive/c/ETAS/RTA-CAR_12.2.0/RTA-CAR/workspace/Basic_Workflow/src/bsw/EcuM/src/EcuM_RequestPOST_RUN.c.o
 .debug_abbrev  0x00000001004c56fa       0x1b CMakeFiles/Basic_workflow.dir/cygdrive/c/ETAS/RTA-CAR_12.2.0/RTA-CAR/workspace/Basic_Workflow/src/bsw/EcuM/src/EcuM_RequestRUN.c.o
 .debug_abbrev  0x00000001004c5715       0x1b CMakeFiles/Basic_workflow.dir/cygdrive/c/ETAS/RTA-CAR_12.2.0/RTA-CAR/workspace/Basic_Workflow/src/bsw/EcuM/src/EcuM_SetState.c.o
 .debug_abbrev  0x00000001004c5730      0x168 CMakeFiles/Basic_workflow.dir/cygdrive/c/ETAS/RTA-CAR_12.2.0/RTA-CAR/workspace/Basic_Workflow/src/bsw/EcuM/src/EcuM_Shutdown.c.o
 .debug_abbrev  0x00000001004c5898      0x154 CMakeFiles/Basic_workflow.dir/cygdrive/c/ETAS/RTA-CAR_12.2.0/RTA-CAR/workspace/Basic_Workflow/src/bsw/EcuM/src/EcuM_ShutdownServices.c.o
 .debug_abbrev  0x00000001004c59ec       0x1b CMakeFiles/Basic_workflow.dir/cygdrive/c/ETAS/RTA-CAR_12.2.0/RTA-CAR/workspace/Basic_Workflow/src/bsw/EcuM/src/EcuM_Sleep.c.o
 .debug_abbrev  0x00000001004c5a07      0x1b0 CMakeFiles/Basic_workflow.dir/cygdrive/c/ETAS/RTA-CAR_12.2.0/RTA-CAR/workspace/Basic_Workflow/src/bsw/EcuM/src/EcuM_Startup.c.o
 .debug_abbrev  0x00000001004c5bb7      0x1bf CMakeFiles/Basic_workflow.dir/cygdrive/c/ETAS/RTA-CAR_12.2.0/RTA-CAR/workspace/Basic_Workflow/src/bsw/EcuM/src/EcuM_WakeupServices.c.o
 .debug_abbrev  0x00000001004c5d76      0x26c CMakeFiles/Basic_workflow.dir/cygdrive/c/ETAS/RTA-CAR_12.2.0/RTA-CAR/workspace/Basic_Workflow/src/rte/Rte.c.o
 .debug_abbrev  0x00000001004c5fe2      0x379 CMakeFiles/Basic_workflow.dir/cygdrive/c/ETAS/RTA-CAR_12.2.0/RTA-CAR/workspace/Basic_Workflow/src/rte/Rte_Lib.c.o
 .debug_abbrev  0x00000001004c635b      0x702 CMakeFiles/Basic_workflow.dir/cygdrive/c/ETAS/RTA-CAR_12.2.0/RTA-CAR/workspace/Basic_Workflow/src/mcal/Can_Device.cpp.o
 .debug_abbrev  0x00000001004c6a5d      0x2ce CMakeFiles/Basic_workflow.dir/cygdrive/c/ETAS/RTA-CAR_12.2.0/RTA-CAR/workspace/Basic_Workflow/src/mcal/Can_HwProvider.cpp.o
 .debug_abbrev  0x00000001004c6d2b      0x545 CMakeFiles/Basic_workflow.dir/cygdrive/c/ETAS/RTA-CAR_12.2.0/RTA-CAR/workspace/Basic_Workflow/src/mcal/Can_Implementation.cpp.o
 .debug_abbrev  0x00000001004c7270      0x504 CMakeFiles/Basic_workflow.dir/cygdrive/c/ETAS/RTA-CAR_12.2.0/RTA-CAR/workspace/Basic_Workflow/src/mcal/Mcu_Device.cpp.o
 .debug_abbrev  0x00000001004c7774      0x155 CMakeFiles/Basic_workflow.dir/cygdrive/c/ETAS/RTA-CAR_12.2.0/RTA-CAR/workspace/Basic_Workflow/src/mcal/Mcu_Implementation.cpp.o
 .debug_abbrev  0x00000001004c78c9      0x798 CMakeFiles/Basic_workflow.dir/cygdrive/c/ETAS/RTA-CAR_12.2.0/RTA-CAR/workspace/Basic_Workflow/src/mcal/VirtualCan.cpp.o
 .debug_abbrev  0x00000001004c8061      0x469 CMakeFiles/Basic_workflow.dir/cygdrive/c/ETAS/RTA-CAR_12.2.0/RTA-CAR/workspace/Basic_Workflow/src/vrta/VRTA_SystemClock.cpp.o
 .debug_abbrev  0x00000001004c84ca       0x8b CMakeFiles/Basic_workflow.dir/cygdrive/c/ETAS/RTA-CAR_12.2.0/RTA-CAR/workspace/Basic_Workflow/src/vrta/Vrta_Cfg.cpp.o
 .debug_abbrev  0x00000001004c8555      0x251 CMakeFiles/Basic_workflow.dir/cygdrive/c/ETAS/RTA-CAR_12.2.0/RTA-CAR/workspace/Basic_Workflow/src/vrta/target.cpp.o
 .debug_abbrev  0x00000001004c87a6      0x556 /usr/lib/gcc/x86_64-pc-cygwin/11/libstdc++.a(class_type_info.o)
 .debug_abbrev  0x00000001004c8cfc       0xab /usr/lib/gcc/x86_64-pc-cygwin/11/libstdc++.a(del_ops.o)
 .debug_abbrev  0x00000001004c8da7       0x91 /usr/lib/gcc/x86_64-pc-cygwin/11/libstdc++.a(del_opv.o)
 .debug_abbrev  0x00000001004c8e38       0xab /usr/lib/gcc/x86_64-pc-cygwin/11/libstdc++.a(del_opvs.o)
 .debug_abbrev  0x00000001004c8ee3      0x512 /usr/lib/gcc/x86_64-pc-cygwin/11/libstdc++.a(eh_aux_runtime.o)
 .debug_abbrev  0x00000001004c93f5      0xae0 /usr/lib/gcc/x86_64-pc-cygwin/11/libstdc++.a(eh_personality.o)
 .debug_abbrev  0x00000001004c9ed5      0x433 /usr/lib/gcc/x86_64-pc-cygwin/11/libstdc++.a(eh_terminate.o)
 .debug_abbrev  0x00000001004ca308      0x55a /usr/lib/gcc/x86_64-pc-cygwin/11/libstdc++.a(eh_throw.o)
 .debug_abbrev  0x00000001004ca862      0x32c /usr/lib/gcc/x86_64-pc-cygwin/11/libstdc++.a(eh_unex_handler.o)
 .debug_abbrev  0x00000001004cab8e      0x2e7 /usr/lib/gcc/x86_64-pc-cygwin/11/libstdc++.a(new_op.o)
 .debug_abbrev  0x00000001004cae75       0xa6 /usr/lib/gcc/x86_64-pc-cygwin/11/libstdc++.a(new_opv.o)
 .debug_abbrev  0x00000001004caf1b      0x563 /usr/lib/gcc/x86_64-pc-cygwin/11/libstdc++.a(si_class_type_info.o)
 .debug_abbrev  0x00000001004cb47e      0x481 /usr/lib/gcc/x86_64-pc-cygwin/11/libstdc++.a(tinfo.o)
 .debug_abbrev  0x00000001004cb8ff      0x595 /usr/lib/gcc/x86_64-pc-cygwin/11/libstdc++.a(vterminate.o)
 .debug_abbrev  0x00000001004cbe94      0x206 /usr/lib/gcc/x86_64-pc-cygwin/11/libstdc++.a(bad_alloc.o)
 .debug_abbrev  0x00000001004cc09a      0x1cb /usr/lib/gcc/x86_64-pc-cygwin/11/libstdc++.a(bad_array_new.o)
 .debug_abbrev  0x00000001004cc265      0x188 /usr/lib/gcc/x86_64-pc-cygwin/11/libstdc++.a(bad_cast.o)
 .debug_abbrev  0x00000001004cc3ed      0x188 /usr/lib/gcc/x86_64-pc-cygwin/11/libstdc++.a(bad_typeid.o)
 .debug_abbrev  0x00000001004cc575      0x591 /usr/lib/gcc/x86_64-pc-cygwin/11/libstdc++.a(cp-demangle.o)
 .debug_abbrev  0x00000001004ccb06      0x179 /usr/lib/gcc/x86_64-pc-cygwin/11/libstdc++.a(del_op.o)
 .debug_abbrev  0x00000001004ccc7f      0x9cd /usr/lib/gcc/x86_64-pc-cygwin/11/libstdc++.a(eh_alloc.o)
 .debug_abbrev  0x00000001004cd64c      0x45c /usr/lib/gcc/x86_64-pc-cygwin/11/libstdc++.a(eh_call.o)
 .debug_abbrev  0x00000001004cdaa8      0x521 /usr/lib/gcc/x86_64-pc-cygwin/11/libstdc++.a(eh_catch.o)
 .debug_abbrev  0x00000001004cdfc9      0x4f9 /usr/lib/gcc/x86_64-pc-cygwin/11/libstdc++.a(eh_exception.o)
 .debug_abbrev  0x00000001004ce4c2      0x3e4 /usr/lib/gcc/x86_64-pc-cygwin/11/libstdc++.a(eh_globals.o)
 .debug_abbrev  0x00000001004ce8a6      0x314 /usr/lib/gcc/x86_64-pc-cygwin/11/libstdc++.a(eh_term_handler.o)
 .debug_abbrev  0x00000001004cebba      0x470 /usr/lib/gcc/x86_64-pc-cygwin/11/libstdc++.a(eh_type.o)
 .debug_abbrev  0x00000001004cf02a      0x154 /usr/lib/gcc/x86_64-pc-cygwin/11/libstdc++.a(new_handler.o)
 .debug_abbrev  0x00000001004cf17e       0x14 /usr/lib/gcc/x86_64-pc-cygwin/11/libgcc.a(_chkstk_ms.o)
 .debug_abbrev  0x00000001004cf192      0x44e /usr/lib/gcc/x86_64-pc-cygwin/11/libgcc_eh.a(unwind-seh.o)
 .debug_abbrev  0x00000001004cf5e0      0x33a /usr/lib/gcc/x86_64-pc-cygwin/11/libgcc_eh.a(emutls.o)
 .debug_abbrev  0x00000001004cf91a      0x158 /usr/lib/gcc/x86_64-pc-cygwin/11/../../../../lib/libcygwin.a(atexit.o)
 .debug_abbrev  0x00000001004cfa72       0xcf /usr/lib/gcc/x86_64-pc-cygwin/11/../../../../lib/libcygwin.a(cygwin_crt0.o)
 .debug_abbrev  0x00000001004cfb41      0x15c /usr/lib/gcc/x86_64-pc-cygwin/11/../../../../lib/libcygwin.a(libcmain.o)
 .debug_abbrev  0x00000001004cfc9d       0x56 /usr/lib/gcc/x86_64-pc-cygwin/11/../../../../lib/libcygwin.a(premain0.o)
 .debug_abbrev  0x00000001004cfcf3       0x56 /usr/lib/gcc/x86_64-pc-cygwin/11/../../../../lib/libcygwin.a(premain1.o)
 .debug_abbrev  0x00000001004cfd49       0x56 /usr/lib/gcc/x86_64-pc-cygwin/11/../../../../lib/libcygwin.a(premain2.o)
 .debug_abbrev  0x00000001004cfd9f       0x56 /usr/lib/gcc/x86_64-pc-cygwin/11/../../../../lib/libcygwin.a(premain3.o)
 .debug_abbrev  0x00000001004cfdf5      0x3d2 /usr/lib/gcc/x86_64-pc-cygwin/11/../../../../lib/libcygwin.a(_cygwin_crt0_common.o)
 .debug_abbrev  0x00000001004d01c7      0x1ae /usr/lib/gcc/x86_64-pc-cygwin/11/../../../../lib/libcygwin.a(dll_entry.o)
 .debug_abbrev  0x00000001004d0375       0x93 /usr/lib/gcc/x86_64-pc-cygwin/11/../../../../lib/libcygwin.a(dll_main.o)
 .debug_abbrev  0x00000001004d0408       0x2b /usr/lib/gcc/x86_64-pc-cygwin/11/../../../../lib/libcygwin.a(pseudo-reloc-dummy.o)
 .debug_abbrev  0x00000001004d0433      0x224 /usr/lib/gcc/x86_64-pc-cygwin/11/../../../../lib/libcygwin.a(cygwin_attach_dll.o)
 .debug_abbrev  0x00000001004d0657       0x9b /usr/lib/gcc/x86_64-pc-cygwin/11/libgcc.a(_ctors.o)

.zdebug_abbrev
 *(.zdebug_abbrev)

.debug_line     0x00000001004d1000    0x1ae00
 *(.debug_line)
 .debug_line    0x00000001004d1000       0x9e /usr/lib/gcc/x86_64-pc-cygwin/11/../../../../lib/crt0.o
 .debug_line    0x00000001004d109e      0x834 CMakeFiles/Basic_workflow.dir/Unity/unity_4_c.c.o
 .debug_line    0x00000001004d18d2      0xe5f CMakeFiles/Basic_workflow.dir/Unity/unity_3_c.c.o
 .debug_line    0x00000001004d2731     0x2251 CMakeFiles/Basic_workflow.dir/Unity/unity_2_c.c.o
 .debug_line    0x00000001004d4982     0x2573 CMakeFiles/Basic_workflow.dir/Unity/unity_1_c.c.o
 .debug_line    0x00000001004d6ef5     0x13b7 CMakeFiles/Basic_workflow.dir/Unity/unity_0_c.c.o
 .debug_line    0x00000001004d82ac       0xc2 CMakeFiles/Basic_workflow.dir/cygdrive/c/ETAS/RTA-CAR_12.2.0/RTA-CAR/workspace/Basic_Workflow/src/asw/MySWC.c.o
 .debug_line    0x00000001004d836e       0xd6 CMakeFiles/Basic_workflow.dir/cygdrive/c/ETAS/RTA-CAR_12.2.0/RTA-CAR/workspace/Basic_Workflow/src/bsw/Det/src/Det.c.o
 .debug_line    0x00000001004d8444       0x5a CMakeFiles/Basic_workflow.dir/cygdrive/c/ETAS/RTA-CAR_12.2.0/RTA-CAR/workspace/Basic_Workflow/src/bsw/EcuM/EcuM_Cfg.c.o
 .debug_line    0x00000001004d849e       0x55 CMakeFiles/Basic_workflow.dir/cygdrive/c/ETAS/RTA-CAR_12.2.0/RTA-CAR/workspace/Basic_Workflow/src/bsw/EcuM/EcuM_Cfg_PbExt.c.o
 .debug_line    0x00000001004d84f3       0x55 CMakeFiles/Basic_workflow.dir/cygdrive/c/ETAS/RTA-CAR_12.2.0/RTA-CAR/workspace/Basic_Workflow/src/bsw/EcuM/EcuM_Cfg_RbMo.c.o
 .debug_line    0x00000001004d8548        0x0 CMakeFiles/Basic_workflow.dir/cygdrive/c/ETAS/RTA-CAR_12.2.0/RTA-CAR/workspace/Basic_Workflow/src/bsw/EcuM/EcuM_Cfg_Shutdown.c.o
 .debug_line    0x00000001004d8548       0x5e CMakeFiles/Basic_workflow.dir/cygdrive/c/ETAS/RTA-CAR_12.2.0/RTA-CAR/workspace/Basic_Workflow/src/bsw/EcuM/EcuM_Cfg_Sleep.c.o
 .debug_line    0x00000001004d85a6      0x137 CMakeFiles/Basic_workflow.dir/cygdrive/c/ETAS/RTA-CAR_12.2.0/RTA-CAR/workspace/Basic_Workflow/src/bsw/EcuM/EcuM_Cfg_Startup.c.o
 .debug_line    0x00000001004d86dd       0x55 CMakeFiles/Basic_workflow.dir/cygdrive/c/ETAS/RTA-CAR_12.2.0/RTA-CAR/workspace/Basic_Workflow/src/bsw/EcuM/EcuM_Cfg_SynchPoint.c.o
 .debug_line    0x00000001004d8732       0x48 CMakeFiles/Basic_workflow.dir/cygdrive/c/ETAS/RTA-CAR_12.2.0/RTA-CAR/workspace/Basic_Workflow/src/bsw/EcuM/EcuM_Lcfg.c.o
 .debug_line    0x00000001004d877a       0xd7 CMakeFiles/Basic_workflow.dir/cygdrive/c/ETAS/RTA-CAR_12.2.0/RTA-CAR/workspace/Basic_Workflow/src/bsw/EcuM/EcuM_PBcfg.c.o
 .debug_line    0x00000001004d8851      0x13c CMakeFiles/Basic_workflow.dir/cygdrive/c/ETAS/RTA-CAR_12.2.0/RTA-CAR/workspace/Basic_Workflow/src/bsw/EcuM/integration/EcuM_Callout_Stubs.c.o
 .debug_line    0x00000001004d898d       0xef CMakeFiles/Basic_workflow.dir/cygdrive/c/ETAS/RTA-CAR_12.2.0/RTA-CAR/workspace/Basic_Workflow/src/bsw/EcuM/src/EcuM_BootTarget.c.o
 .debug_line    0x00000001004d8a7c       0x35 CMakeFiles/Basic_workflow.dir/cygdrive/c/ETAS/RTA-CAR_12.2.0/RTA-CAR/workspace/Basic_Workflow/src/bsw/EcuM/src/EcuM_CurrentState.c.o
 .debug_line    0x00000001004d8ab1       0x35 CMakeFiles/Basic_workflow.dir/cygdrive/c/ETAS/RTA-CAR_12.2.0/RTA-CAR/workspace/Basic_Workflow/src/bsw/EcuM/src/EcuM_KillAllRequests.c.o
 .debug_line    0x00000001004d8ae6      0x1e9 CMakeFiles/Basic_workflow.dir/cygdrive/c/ETAS/RTA-CAR_12.2.0/RTA-CAR/workspace/Basic_Workflow/src/bsw/EcuM/src/EcuM_MainFunction.c.o
 .debug_line    0x00000001004d8ccf       0x35 CMakeFiles/Basic_workflow.dir/cygdrive/c/ETAS/RTA-CAR_12.2.0/RTA-CAR/workspace/Basic_Workflow/src/bsw/EcuM/src/EcuM_Misc.c.o
 .debug_line    0x00000001004d8d04      0x40d CMakeFiles/Basic_workflow.dir/cygdrive/c/ETAS/RTA-CAR_12.2.0/RTA-CAR/workspace/Basic_Workflow/src/bsw/EcuM/src/EcuM_Prv.c.o
 .debug_line    0x00000001004d9111       0x35 CMakeFiles/Basic_workflow.dir/cygdrive/c/ETAS/RTA-CAR_12.2.0/RTA-CAR/workspace/Basic_Workflow/src/bsw/EcuM/src/EcuM_Prv_RteActions.c.o
 .debug_line    0x00000001004d9146       0x35 CMakeFiles/Basic_workflow.dir/cygdrive/c/ETAS/RTA-CAR_12.2.0/RTA-CAR/workspace/Basic_Workflow/src/bsw/EcuM/src/EcuM_ReleasePOST_RUN.c.o
 .debug_line    0x00000001004d917b       0x35 CMakeFiles/Basic_workflow.dir/cygdrive/c/ETAS/RTA-CAR_12.2.0/RTA-CAR/workspace/Basic_Workflow/src/bsw/EcuM/src/EcuM_ReleaseRUN.c.o
 .debug_line    0x00000001004d91b0       0x35 CMakeFiles/Basic_workflow.dir/cygdrive/c/ETAS/RTA-CAR_12.2.0/RTA-CAR/workspace/Basic_Workflow/src/bsw/EcuM/src/EcuM_RequestPOST_RUN.c.o
 .debug_line    0x00000001004d91e5       0x35 CMakeFiles/Basic_workflow.dir/cygdrive/c/ETAS/RTA-CAR_12.2.0/RTA-CAR/workspace/Basic_Workflow/src/bsw/EcuM/src/EcuM_RequestRUN.c.o
 .debug_line    0x00000001004d921a       0x35 CMakeFiles/Basic_workflow.dir/cygdrive/c/ETAS/RTA-CAR_12.2.0/RTA-CAR/workspace/Basic_Workflow/src/bsw/EcuM/src/EcuM_SetState.c.o
 .debug_line    0x00000001004d924f      0x146 CMakeFiles/Basic_workflow.dir/cygdrive/c/ETAS/RTA-CAR_12.2.0/RTA-CAR/workspace/Basic_Workflow/src/bsw/EcuM/src/EcuM_Shutdown.c.o
 .debug_line    0x00000001004d9395      0x1a8 CMakeFiles/Basic_workflow.dir/cygdrive/c/ETAS/RTA-CAR_12.2.0/RTA-CAR/workspace/Basic_Workflow/src/bsw/EcuM/src/EcuM_ShutdownServices.c.o
 .debug_line    0x00000001004d953d       0x35 CMakeFiles/Basic_workflow.dir/cygdrive/c/ETAS/RTA-CAR_12.2.0/RTA-CAR/workspace/Basic_Workflow/src/bsw/EcuM/src/EcuM_Sleep.c.o
 .debug_line    0x00000001004d9572      0x18c CMakeFiles/Basic_workflow.dir/cygdrive/c/ETAS/RTA-CAR_12.2.0/RTA-CAR/workspace/Basic_Workflow/src/bsw/EcuM/src/EcuM_Startup.c.o
 .debug_line    0x00000001004d96fe      0x246 CMakeFiles/Basic_workflow.dir/cygdrive/c/ETAS/RTA-CAR_12.2.0/RTA-CAR/workspace/Basic_Workflow/src/bsw/EcuM/src/EcuM_WakeupServices.c.o
 .debug_line    0x00000001004d9944      0x18b CMakeFiles/Basic_workflow.dir/cygdrive/c/ETAS/RTA-CAR_12.2.0/RTA-CAR/workspace/Basic_Workflow/src/rte/Rte.c.o
 .debug_line    0x00000001004d9acf      0x30d CMakeFiles/Basic_workflow.dir/cygdrive/c/ETAS/RTA-CAR_12.2.0/RTA-CAR/workspace/Basic_Workflow/src/rte/Rte_Lib.c.o
 .debug_line    0x00000001004d9ddc     0x12c3 CMakeFiles/Basic_workflow.dir/cygdrive/c/ETAS/RTA-CAR_12.2.0/RTA-CAR/workspace/Basic_Workflow/src/mcal/Can_Device.cpp.o
 .debug_line    0x00000001004db09f      0x1cf CMakeFiles/Basic_workflow.dir/cygdrive/c/ETAS/RTA-CAR_12.2.0/RTA-CAR/workspace/Basic_Workflow/src/mcal/Can_HwProvider.cpp.o
 .debug_line    0x00000001004db26e     0x1b55 CMakeFiles/Basic_workflow.dir/cygdrive/c/ETAS/RTA-CAR_12.2.0/RTA-CAR/workspace/Basic_Workflow/src/mcal/Can_Implementation.cpp.o
 .debug_line    0x00000001004dcdc3      0x392 CMakeFiles/Basic_workflow.dir/cygdrive/c/ETAS/RTA-CAR_12.2.0/RTA-CAR/workspace/Basic_Workflow/src/mcal/Mcu_Device.cpp.o
 .debug_line    0x00000001004dd155      0x19b CMakeFiles/Basic_workflow.dir/cygdrive/c/ETAS/RTA-CAR_12.2.0/RTA-CAR/workspace/Basic_Workflow/src/mcal/Mcu_Implementation.cpp.o
 .debug_line    0x00000001004dd2f0     0x1cdb CMakeFiles/Basic_workflow.dir/cygdrive/c/ETAS/RTA-CAR_12.2.0/RTA-CAR/workspace/Basic_Workflow/src/mcal/VirtualCan.cpp.o
 .debug_line    0x00000001004defcb      0x125 CMakeFiles/Basic_workflow.dir/cygdrive/c/ETAS/RTA-CAR_12.2.0/RTA-CAR/workspace/Basic_Workflow/src/vrta/VRTA_SystemClock.cpp.o
 .debug_line    0x00000001004df0f0       0xd0 CMakeFiles/Basic_workflow.dir/cygdrive/c/ETAS/RTA-CAR_12.2.0/RTA-CAR/workspace/Basic_Workflow/src/vrta/Vrta_Cfg.cpp.o
 .debug_line    0x00000001004df1c0       0xd6 CMakeFiles/Basic_workflow.dir/cygdrive/c/ETAS/RTA-CAR_12.2.0/RTA-CAR/workspace/Basic_Workflow/src/vrta/target.cpp.o
 .debug_line    0x00000001004df296      0x268 /usr/lib/gcc/x86_64-pc-cygwin/11/libstdc++.a(class_type_info.o)
 .debug_line    0x00000001004df4fe       0x69 /usr/lib/gcc/x86_64-pc-cygwin/11/libstdc++.a(del_ops.o)
 .debug_line    0x00000001004df567       0x69 /usr/lib/gcc/x86_64-pc-cygwin/11/libstdc++.a(del_opv.o)
 .debug_line    0x00000001004df5d0       0x69 /usr/lib/gcc/x86_64-pc-cygwin/11/libstdc++.a(del_opvs.o)
 .debug_line    0x00000001004df639      0x14c /usr/lib/gcc/x86_64-pc-cygwin/11/libstdc++.a(eh_aux_runtime.o)
 .debug_line    0x00000001004df785      0xd4e /usr/lib/gcc/x86_64-pc-cygwin/11/libstdc++.a(eh_personality.o)
 .debug_line    0x00000001004e04d3      0x207 /usr/lib/gcc/x86_64-pc-cygwin/11/libstdc++.a(eh_terminate.o)
 .debug_line    0x00000001004e06da      0x254 /usr/lib/gcc/x86_64-pc-cygwin/11/libstdc++.a(eh_throw.o)
 .debug_line    0x00000001004e092e       0x94 /usr/lib/gcc/x86_64-pc-cygwin/11/libstdc++.a(eh_unex_handler.o)
 .debug_line    0x00000001004e09c2       0xcf /usr/lib/gcc/x86_64-pc-cygwin/11/libstdc++.a(new_op.o)
 .debug_line    0x00000001004e0a91       0x69 /usr/lib/gcc/x86_64-pc-cygwin/11/libstdc++.a(new_opv.o)
 .debug_line    0x00000001004e0afa      0x1e5 /usr/lib/gcc/x86_64-pc-cygwin/11/libstdc++.a(si_class_type_info.o)
 .debug_line    0x00000001004e0cdf      0x179 /usr/lib/gcc/x86_64-pc-cygwin/11/libstdc++.a(tinfo.o)
 .debug_line    0x00000001004e0e58      0x1e3 /usr/lib/gcc/x86_64-pc-cygwin/11/libstdc++.a(vterminate.o)
 .debug_line    0x00000001004e103b       0xb3 /usr/lib/gcc/x86_64-pc-cygwin/11/libstdc++.a(bad_alloc.o)
 .debug_line    0x00000001004e10ee       0xaa /usr/lib/gcc/x86_64-pc-cygwin/11/libstdc++.a(bad_array_new.o)
 .debug_line    0x00000001004e1198       0xb3 /usr/lib/gcc/x86_64-pc-cygwin/11/libstdc++.a(bad_cast.o)
 .debug_line    0x00000001004e124b       0xb3 /usr/lib/gcc/x86_64-pc-cygwin/11/libstdc++.a(bad_typeid.o)
 .debug_line    0x00000001004e12fe     0x873e /usr/lib/gcc/x86_64-pc-cygwin/11/libstdc++.a(cp-demangle.o)
 .debug_line    0x00000001004e9a3c       0x7f /usr/lib/gcc/x86_64-pc-cygwin/11/libstdc++.a(del_op.o)
 .debug_line    0x00000001004e9abb      0x6ca /usr/lib/gcc/x86_64-pc-cygwin/11/libstdc++.a(eh_alloc.o)
 .debug_line    0x00000001004ea185       0xed /usr/lib/gcc/x86_64-pc-cygwin/11/libstdc++.a(eh_call.o)
 .debug_line    0x00000001004ea272      0x2b1 /usr/lib/gcc/x86_64-pc-cygwin/11/libstdc++.a(eh_catch.o)
 .debug_line    0x00000001004ea523      0x1ba /usr/lib/gcc/x86_64-pc-cygwin/11/libstdc++.a(eh_exception.o)
 .debug_line    0x00000001004ea6dd       0xb6 /usr/lib/gcc/x86_64-pc-cygwin/11/libstdc++.a(eh_globals.o)
 .debug_line    0x00000001004ea793       0x94 /usr/lib/gcc/x86_64-pc-cygwin/11/libstdc++.a(eh_term_handler.o)
 .debug_line    0x00000001004ea827       0xf7 /usr/lib/gcc/x86_64-pc-cygwin/11/libstdc++.a(eh_type.o)
 .debug_line    0x00000001004ea91e       0x98 /usr/lib/gcc/x86_64-pc-cygwin/11/libstdc++.a(new_handler.o)
 .debug_line    0x00000001004ea9b6       0x5c /usr/lib/gcc/x86_64-pc-cygwin/11/libgcc.a(_chkstk_ms.o)
 .debug_line    0x00000001004eaa12      0x51b /usr/lib/gcc/x86_64-pc-cygwin/11/libgcc_eh.a(unwind-seh.o)
 .debug_line    0x00000001004eaf2d      0x387 /usr/lib/gcc/x86_64-pc-cygwin/11/libgcc_eh.a(emutls.o)
 .debug_line    0x00000001004eb2b4       0xc9 /usr/lib/gcc/x86_64-pc-cygwin/11/../../../../lib/libcygwin.a(atexit.o)
 .debug_line    0x00000001004eb37d       0x5b /usr/lib/gcc/x86_64-pc-cygwin/11/../../../../lib/libcygwin.a(cygwin_crt0.o)
 .debug_line    0x00000001004eb3d8      0x123 /usr/lib/gcc/x86_64-pc-cygwin/11/../../../../lib/libcygwin.a(libcmain.o)
 .debug_line    0x00000001004eb4fb       0x53 /usr/lib/gcc/x86_64-pc-cygwin/11/../../../../lib/libcygwin.a(premain0.o)
 .debug_line    0x00000001004eb54e       0x53 /usr/lib/gcc/x86_64-pc-cygwin/11/../../../../lib/libcygwin.a(premain1.o)
 .debug_line    0x00000001004eb5a1       0x53 /usr/lib/gcc/x86_64-pc-cygwin/11/../../../../lib/libcygwin.a(premain2.o)
 .debug_line    0x00000001004eb5f4       0x53 /usr/lib/gcc/x86_64-pc-cygwin/11/../../../../lib/libcygwin.a(premain3.o)
 .debug_line    0x00000001004eb647      0x396 /usr/lib/gcc/x86_64-pc-cygwin/11/../../../../lib/libcygwin.a(_cygwin_crt0_common.o)
 .debug_line    0x00000001004eb9dd       0xe2 /usr/lib/gcc/x86_64-pc-cygwin/11/../../../../lib/libcygwin.a(dll_entry.o)
 .debug_line    0x00000001004ebabf       0x65 /usr/lib/gcc/x86_64-pc-cygwin/11/../../../../lib/libcygwin.a(dll_main.o)
 .debug_line    0x00000001004ebb24       0x54 /usr/lib/gcc/x86_64-pc-cygwin/11/../../../../lib/libcygwin.a(pseudo-reloc-dummy.o)
 .debug_line    0x00000001004ebb78       0xba /usr/lib/gcc/x86_64-pc-cygwin/11/../../../../lib/libcygwin.a(cygwin_attach_dll.o)
 .debug_line    0x00000001004ebc32       0x48 /usr/lib/gcc/x86_64-pc-cygwin/11/libgcc.a(_ctors.o)

.zdebug_line
 *(.zdebug_line)

.debug_frame    0x00000001004ec000     0xd600
 *(.debug_frame*)
 .debug_frame   0x00000001004ec000       0x40 /usr/lib/gcc/x86_64-pc-cygwin/11/../../../../lib/crt0.o
 .debug_frame   0x00000001004ec040      0xe28 CMakeFiles/Basic_workflow.dir/Unity/unity_4_c.c.o
 .debug_frame   0x00000001004ece68      0x838 CMakeFiles/Basic_workflow.dir/Unity/unity_3_c.c.o
 .debug_frame   0x00000001004ed6a0      0x738 CMakeFiles/Basic_workflow.dir/Unity/unity_2_c.c.o
 .debug_frame   0x00000001004eddd8      0xad0 CMakeFiles/Basic_workflow.dir/Unity/unity_1_c.c.o
 .debug_frame   0x00000001004ee8a8     0x16f0 CMakeFiles/Basic_workflow.dir/Unity/unity_0_c.c.o
 .debug_frame   0x00000001004eff98       0x50 CMakeFiles/Basic_workflow.dir/cygdrive/c/ETAS/RTA-CAR_12.2.0/RTA-CAR/workspace/Basic_Workflow/src/asw/MySWC.c.o
 .debug_frame   0x00000001004effe8      0x130 CMakeFiles/Basic_workflow.dir/cygdrive/c/ETAS/RTA-CAR_12.2.0/RTA-CAR/workspace/Basic_Workflow/src/bsw/Det/src/Det.c.o
 .debug_frame   0x00000001004f0118       0x50 CMakeFiles/Basic_workflow.dir/cygdrive/c/ETAS/RTA-CAR_12.2.0/RTA-CAR/workspace/Basic_Workflow/src/bsw/EcuM/EcuM_Cfg_PbExt.c.o
 .debug_frame   0x00000001004f0168       0x50 CMakeFiles/Basic_workflow.dir/cygdrive/c/ETAS/RTA-CAR_12.2.0/RTA-CAR/workspace/Basic_Workflow/src/bsw/EcuM/EcuM_Cfg_RbMo.c.o
 .debug_frame   0x00000001004f01b8       0x88 CMakeFiles/Basic_workflow.dir/cygdrive/c/ETAS/RTA-CAR_12.2.0/RTA-CAR/workspace/Basic_Workflow/src/bsw/EcuM/EcuM_Cfg_Sleep.c.o
 .debug_frame   0x00000001004f0240       0x88 CMakeFiles/Basic_workflow.dir/cygdrive/c/ETAS/RTA-CAR_12.2.0/RTA-CAR/workspace/Basic_Workflow/src/bsw/EcuM/EcuM_Cfg_Startup.c.o
 .debug_frame   0x00000001004f02c8       0x50 CMakeFiles/Basic_workflow.dir/cygdrive/c/ETAS/RTA-CAR_12.2.0/RTA-CAR/workspace/Basic_Workflow/src/bsw/EcuM/EcuM_Cfg_SynchPoint.c.o
 .debug_frame   0x00000001004f0318      0x270 CMakeFiles/Basic_workflow.dir/cygdrive/c/ETAS/RTA-CAR_12.2.0/RTA-CAR/workspace/Basic_Workflow/src/bsw/EcuM/integration/EcuM_Callout_Stubs.c.o
 .debug_frame   0x00000001004f0588       0x88 CMakeFiles/Basic_workflow.dir/cygdrive/c/ETAS/RTA-CAR_12.2.0/RTA-CAR/workspace/Basic_Workflow/src/bsw/EcuM/src/EcuM_BootTarget.c.o
 .debug_frame   0x00000001004f0610       0xf8 CMakeFiles/Basic_workflow.dir/cygdrive/c/ETAS/RTA-CAR_12.2.0/RTA-CAR/workspace/Basic_Workflow/src/bsw/EcuM/src/EcuM_MainFunction.c.o
 .debug_frame   0x00000001004f0708      0x1a0 CMakeFiles/Basic_workflow.dir/cygdrive/c/ETAS/RTA-CAR_12.2.0/RTA-CAR/workspace/Basic_Workflow/src/bsw/EcuM/src/EcuM_Prv.c.o
 .debug_frame   0x00000001004f08a8       0xc0 CMakeFiles/Basic_workflow.dir/cygdrive/c/ETAS/RTA-CAR_12.2.0/RTA-CAR/workspace/Basic_Workflow/src/bsw/EcuM/src/EcuM_Shutdown.c.o
 .debug_frame   0x00000001004f0968      0x130 CMakeFiles/Basic_workflow.dir/cygdrive/c/ETAS/RTA-CAR_12.2.0/RTA-CAR/workspace/Basic_Workflow/src/bsw/EcuM/src/EcuM_ShutdownServices.c.o
 .debug_frame   0x00000001004f0a98       0x88 CMakeFiles/Basic_workflow.dir/cygdrive/c/ETAS/RTA-CAR_12.2.0/RTA-CAR/workspace/Basic_Workflow/src/bsw/EcuM/src/EcuM_Startup.c.o
 .debug_frame   0x00000001004f0b20      0x168 CMakeFiles/Basic_workflow.dir/cygdrive/c/ETAS/RTA-CAR_12.2.0/RTA-CAR/workspace/Basic_Workflow/src/bsw/EcuM/src/EcuM_WakeupServices.c.o
 .debug_frame   0x00000001004f0c88      0x168 CMakeFiles/Basic_workflow.dir/cygdrive/c/ETAS/RTA-CAR_12.2.0/RTA-CAR/workspace/Basic_Workflow/src/rte/Rte.c.o
 .debug_frame   0x00000001004f0df0      0x360 CMakeFiles/Basic_workflow.dir/cygdrive/c/ETAS/RTA-CAR_12.2.0/RTA-CAR/workspace/Basic_Workflow/src/rte/Rte_Lib.c.o
 .debug_frame   0x00000001004f1150     0x18c8 CMakeFiles/Basic_workflow.dir/cygdrive/c/ETAS/RTA-CAR_12.2.0/RTA-CAR/workspace/Basic_Workflow/src/mcal/Can_Device.cpp.o
 .debug_frame   0x00000001004f2a18       0xf8 CMakeFiles/Basic_workflow.dir/cygdrive/c/ETAS/RTA-CAR_12.2.0/RTA-CAR/workspace/Basic_Workflow/src/mcal/Can_HwProvider.cpp.o
 .debug_frame   0x00000001004f2b10      0xef0 CMakeFiles/Basic_workflow.dir/cygdrive/c/ETAS/RTA-CAR_12.2.0/RTA-CAR/workspace/Basic_Workflow/src/mcal/Can_Implementation.cpp.o
 .debug_frame   0x00000001004f3a00      0x5e0 CMakeFiles/Basic_workflow.dir/cygdrive/c/ETAS/RTA-CAR_12.2.0/RTA-CAR/workspace/Basic_Workflow/src/mcal/Mcu_Device.cpp.o
 .debug_frame   0x00000001004f3fe0      0x328 CMakeFiles/Basic_workflow.dir/cygdrive/c/ETAS/RTA-CAR_12.2.0/RTA-CAR/workspace/Basic_Workflow/src/mcal/Mcu_Implementation.cpp.o
 .debug_frame   0x00000001004f4308     0x13a0 CMakeFiles/Basic_workflow.dir/cygdrive/c/ETAS/RTA-CAR_12.2.0/RTA-CAR/workspace/Basic_Workflow/src/mcal/VirtualCan.cpp.o
 .debug_frame   0x00000001004f56a8      0x1f0 CMakeFiles/Basic_workflow.dir/cygdrive/c/ETAS/RTA-CAR_12.2.0/RTA-CAR/workspace/Basic_Workflow/src/vrta/VRTA_SystemClock.cpp.o
 .debug_frame   0x00000001004f5898      0x1d8 CMakeFiles/Basic_workflow.dir/cygdrive/c/ETAS/RTA-CAR_12.2.0/RTA-CAR/workspace/Basic_Workflow/src/vrta/Vrta_Cfg.cpp.o
 .debug_frame   0x00000001004f5a70       0xf8 CMakeFiles/Basic_workflow.dir/cygdrive/c/ETAS/RTA-CAR_12.2.0/RTA-CAR/workspace/Basic_Workflow/src/vrta/target.cpp.o
 .debug_frame   0x00000001004f5b68      0x230 /usr/lib/gcc/x86_64-pc-cygwin/11/libstdc++.a(class_type_info.o)
 .debug_frame   0x00000001004f5d98       0x30 /usr/lib/gcc/x86_64-pc-cygwin/11/libstdc++.a(del_ops.o)
 .debug_frame   0x00000001004f5dc8       0x30 /usr/lib/gcc/x86_64-pc-cygwin/11/libstdc++.a(del_opv.o)
 .debug_frame   0x00000001004f5df8       0x30 /usr/lib/gcc/x86_64-pc-cygwin/11/libstdc++.a(del_opvs.o)
 .debug_frame   0x00000001004f5e28       0x78 /usr/lib/gcc/x86_64-pc-cygwin/11/libstdc++.a(eh_aux_runtime.o)
 .debug_frame   0x00000001004f5ea0      0x3c8 /usr/lib/gcc/x86_64-pc-cygwin/11/libstdc++.a(eh_personality.o)
 .debug_frame   0x00000001004f6268       0xf8 /usr/lib/gcc/x86_64-pc-cygwin/11/libstdc++.a(eh_terminate.o)
 .debug_frame   0x00000001004f6360      0x110 /usr/lib/gcc/x86_64-pc-cygwin/11/libstdc++.a(eh_throw.o)
 .debug_frame   0x00000001004f6470       0x58 /usr/lib/gcc/x86_64-pc-cygwin/11/libstdc++.a(new_op.o)
 .debug_frame   0x00000001004f64c8       0x30 /usr/lib/gcc/x86_64-pc-cygwin/11/libstdc++.a(new_opv.o)
 .debug_frame   0x00000001004f64f8      0x288 /usr/lib/gcc/x86_64-pc-cygwin/11/libstdc++.a(si_class_type_info.o)
 .debug_frame   0x00000001004f6780       0xc8 /usr/lib/gcc/x86_64-pc-cygwin/11/libstdc++.a(tinfo.o)
 .debug_frame   0x00000001004f6848       0x50 /usr/lib/gcc/x86_64-pc-cygwin/11/libstdc++.a(vterminate.o)
 .debug_frame   0x00000001004f6898       0x80 /usr/lib/gcc/x86_64-pc-cygwin/11/libstdc++.a(bad_alloc.o)
 .debug_frame   0x00000001004f6918       0x80 /usr/lib/gcc/x86_64-pc-cygwin/11/libstdc++.a(bad_array_new.o)
 .debug_frame   0x00000001004f6998       0x80 /usr/lib/gcc/x86_64-pc-cygwin/11/libstdc++.a(bad_cast.o)
 .debug_frame   0x00000001004f6a18       0x80 /usr/lib/gcc/x86_64-pc-cygwin/11/libstdc++.a(bad_typeid.o)
 .debug_frame   0x00000001004f6a98     0x1aa8 /usr/lib/gcc/x86_64-pc-cygwin/11/libstdc++.a(cp-demangle.o)
 .debug_frame   0x00000001004f8540       0x30 /usr/lib/gcc/x86_64-pc-cygwin/11/libstdc++.a(del_op.o)
 .debug_frame   0x00000001004f8570      0x320 /usr/lib/gcc/x86_64-pc-cygwin/11/libstdc++.a(eh_alloc.o)
 .debug_frame   0x00000001004f8890       0x40 /usr/lib/gcc/x86_64-pc-cygwin/11/libstdc++.a(eh_call.o)
 .debug_frame   0x00000001004f88d0      0x128 /usr/lib/gcc/x86_64-pc-cygwin/11/libstdc++.a(eh_catch.o)
 .debug_frame   0x00000001004f89f8      0x138 /usr/lib/gcc/x86_64-pc-cygwin/11/libstdc++.a(eh_exception.o)
 .debug_frame   0x00000001004f8b30       0x48 /usr/lib/gcc/x86_64-pc-cygwin/11/libstdc++.a(eh_globals.o)
 .debug_frame   0x00000001004f8b78       0x48 /usr/lib/gcc/x86_64-pc-cygwin/11/libstdc++.a(eh_type.o)
 .debug_frame   0x00000001004f8bc0       0x48 /usr/lib/gcc/x86_64-pc-cygwin/11/libstdc++.a(new_handler.o)
 .debug_frame   0x00000001004f8c08      0x398 /usr/lib/gcc/x86_64-pc-cygwin/11/libgcc_eh.a(unwind-seh.o)
 .debug_frame   0x00000001004f8fa0      0x178 /usr/lib/gcc/x86_64-pc-cygwin/11/libgcc_eh.a(emutls.o)
 .debug_frame   0x00000001004f9118       0x50 /usr/lib/gcc/x86_64-pc-cygwin/11/../../../../lib/libcygwin.a(atexit.o)
 .debug_frame   0x00000001004f9168       0x38 /usr/lib/gcc/x86_64-pc-cygwin/11/../../../../lib/libcygwin.a(cygwin_crt0.o)
 .debug_frame   0x00000001004f91a0       0x90 /usr/lib/gcc/x86_64-pc-cygwin/11/../../../../lib/libcygwin.a(libcmain.o)
 .debug_frame   0x00000001004f9230       0x30 /usr/lib/gcc/x86_64-pc-cygwin/11/../../../../lib/libcygwin.a(premain0.o)
 .debug_frame   0x00000001004f9260       0x30 /usr/lib/gcc/x86_64-pc-cygwin/11/../../../../lib/libcygwin.a(premain1.o)
 .debug_frame   0x00000001004f9290       0x30 /usr/lib/gcc/x86_64-pc-cygwin/11/../../../../lib/libcygwin.a(premain2.o)
 .debug_frame   0x00000001004f92c0       0x30 /usr/lib/gcc/x86_64-pc-cygwin/11/../../../../lib/libcygwin.a(premain3.o)
 .debug_frame   0x00000001004f92f0       0x68 /usr/lib/gcc/x86_64-pc-cygwin/11/../../../../lib/libcygwin.a(_cygwin_crt0_common.o)
 .debug_frame   0x00000001004f9358       0x80 /usr/lib/gcc/x86_64-pc-cygwin/11/../../../../lib/libcygwin.a(dll_entry.o)
 .debug_frame   0x00000001004f93d8       0x30 /usr/lib/gcc/x86_64-pc-cygwin/11/../../../../lib/libcygwin.a(dll_main.o)
 .debug_frame   0x00000001004f9408       0x30 /usr/lib/gcc/x86_64-pc-cygwin/11/../../../../lib/libcygwin.a(pseudo-reloc-dummy.o)
 .debug_frame   0x00000001004f9438       0x60 /usr/lib/gcc/x86_64-pc-cygwin/11/../../../../lib/libcygwin.a(cygwin_attach_dll.o)

.zdebug_frame
 *(.zdebug_frame*)

.debug_str      0x00000001004fa000     0x2600
 *(.debug_str)
 .debug_str     0x00000001004fa000        0xe /usr/lib/gcc/x86_64-pc-cygwin/11/../../../../lib/crt0.o
 .debug_str     0x00000001004fa00e      0x1c2 CMakeFiles/Basic_workflow.dir/Unity/unity_4_c.c.o
 .debug_str     0x00000001004fa1d0      0x205 CMakeFiles/Basic_workflow.dir/Unity/unity_3_c.c.o
 .debug_str     0x00000001004fa3d5      0x395 CMakeFiles/Basic_workflow.dir/Unity/unity_2_c.c.o
 .debug_str     0x00000001004fa76a      0x31f CMakeFiles/Basic_workflow.dir/Unity/unity_1_c.c.o
 .debug_str     0x00000001004faa89      0x317 CMakeFiles/Basic_workflow.dir/Unity/unity_0_c.c.o
 .debug_str     0x00000001004fada0        0x0 CMakeFiles/Basic_workflow.dir/cygdrive/c/ETAS/RTA-CAR_12.2.0/RTA-CAR/workspace/Basic_Workflow/src/asw/MySWC.c.o
 .debug_str     0x00000001004fada0       0x14 CMakeFiles/Basic_workflow.dir/cygdrive/c/ETAS/RTA-CAR_12.2.0/RTA-CAR/workspace/Basic_Workflow/src/bsw/Det/src/Det.c.o
 .debug_str     0x00000001004fadb4        0x0 CMakeFiles/Basic_workflow.dir/cygdrive/c/ETAS/RTA-CAR_12.2.0/RTA-CAR/workspace/Basic_Workflow/src/bsw/EcuM/EcuM_Cfg.c.o
 .debug_str     0x00000001004fadb4        0x0 CMakeFiles/Basic_workflow.dir/cygdrive/c/ETAS/RTA-CAR_12.2.0/RTA-CAR/workspace/Basic_Workflow/src/bsw/EcuM/EcuM_Cfg_PbExt.c.o
 .debug_str     0x00000001004fadb4        0x0 CMakeFiles/Basic_workflow.dir/cygdrive/c/ETAS/RTA-CAR_12.2.0/RTA-CAR/workspace/Basic_Workflow/src/bsw/EcuM/EcuM_Cfg_RbMo.c.o
 .debug_str     0x00000001004fadb4        0x0 CMakeFiles/Basic_workflow.dir/cygdrive/c/ETAS/RTA-CAR_12.2.0/RTA-CAR/workspace/Basic_Workflow/src/bsw/EcuM/EcuM_Cfg_Shutdown.c.o
 .debug_str     0x00000001004fadb4        0x0 CMakeFiles/Basic_workflow.dir/cygdrive/c/ETAS/RTA-CAR_12.2.0/RTA-CAR/workspace/Basic_Workflow/src/bsw/EcuM/EcuM_Cfg_Sleep.c.o
 .debug_str     0x00000001004fadb4       0xa3 CMakeFiles/Basic_workflow.dir/cygdrive/c/ETAS/RTA-CAR_12.2.0/RTA-CAR/workspace/Basic_Workflow/src/bsw/EcuM/EcuM_Cfg_Startup.c.o
 .debug_str     0x00000001004fae57        0x0 CMakeFiles/Basic_workflow.dir/cygdrive/c/ETAS/RTA-CAR_12.2.0/RTA-CAR/workspace/Basic_Workflow/src/bsw/EcuM/EcuM_Cfg_SynchPoint.c.o
 .debug_str     0x00000001004fae57        0x0 CMakeFiles/Basic_workflow.dir/cygdrive/c/ETAS/RTA-CAR_12.2.0/RTA-CAR/workspace/Basic_Workflow/src/bsw/EcuM/EcuM_Lcfg.c.o
 .debug_str     0x00000001004fae57       0xa3 CMakeFiles/Basic_workflow.dir/cygdrive/c/ETAS/RTA-CAR_12.2.0/RTA-CAR/workspace/Basic_Workflow/src/bsw/EcuM/EcuM_PBcfg.c.o
 .debug_str     0x00000001004faefa       0xb0 CMakeFiles/Basic_workflow.dir/cygdrive/c/ETAS/RTA-CAR_12.2.0/RTA-CAR/workspace/Basic_Workflow/src/bsw/EcuM/integration/EcuM_Callout_Stubs.c.o
 .debug_str     0x00000001004fafaa       0x10 CMakeFiles/Basic_workflow.dir/cygdrive/c/ETAS/RTA-CAR_12.2.0/RTA-CAR/workspace/Basic_Workflow/src/bsw/EcuM/src/EcuM_BootTarget.c.o
 .debug_str     0x00000001004fafba        0x0 CMakeFiles/Basic_workflow.dir/cygdrive/c/ETAS/RTA-CAR_12.2.0/RTA-CAR/workspace/Basic_Workflow/src/bsw/EcuM/src/EcuM_CurrentState.c.o
 .debug_str     0x00000001004fafba        0x0 CMakeFiles/Basic_workflow.dir/cygdrive/c/ETAS/RTA-CAR_12.2.0/RTA-CAR/workspace/Basic_Workflow/src/bsw/EcuM/src/EcuM_KillAllRequests.c.o
 .debug_str     0x00000001004fafba        0x0 CMakeFiles/Basic_workflow.dir/cygdrive/c/ETAS/RTA-CAR_12.2.0/RTA-CAR/workspace/Basic_Workflow/src/bsw/EcuM/src/EcuM_MainFunction.c.o
 .debug_str     0x00000001004fafba        0x0 CMakeFiles/Basic_workflow.dir/cygdrive/c/ETAS/RTA-CAR_12.2.0/RTA-CAR/workspace/Basic_Workflow/src/bsw/EcuM/src/EcuM_Misc.c.o
 .debug_str     0x00000001004fafba       0xda CMakeFiles/Basic_workflow.dir/cygdrive/c/ETAS/RTA-CAR_12.2.0/RTA-CAR/workspace/Basic_Workflow/src/bsw/EcuM/src/EcuM_Prv.c.o
 .debug_str     0x00000001004fb094        0x0 CMakeFiles/Basic_workflow.dir/cygdrive/c/ETAS/RTA-CAR_12.2.0/RTA-CAR/workspace/Basic_Workflow/src/bsw/EcuM/src/EcuM_Prv_RteActions.c.o
 .debug_str     0x00000001004fb094        0x0 CMakeFiles/Basic_workflow.dir/cygdrive/c/ETAS/RTA-CAR_12.2.0/RTA-CAR/workspace/Basic_Workflow/src/bsw/EcuM/src/EcuM_ReleasePOST_RUN.c.o
 .debug_str     0x00000001004fb094        0x0 CMakeFiles/Basic_workflow.dir/cygdrive/c/ETAS/RTA-CAR_12.2.0/RTA-CAR/workspace/Basic_Workflow/src/bsw/EcuM/src/EcuM_ReleaseRUN.c.o
 .debug_str     0x00000001004fb094        0x0 CMakeFiles/Basic_workflow.dir/cygdrive/c/ETAS/RTA-CAR_12.2.0/RTA-CAR/workspace/Basic_Workflow/src/bsw/EcuM/src/EcuM_RequestPOST_RUN.c.o
 .debug_str     0x00000001004fb094        0x0 CMakeFiles/Basic_workflow.dir/cygdrive/c/ETAS/RTA-CAR_12.2.0/RTA-CAR/workspace/Basic_Workflow/src/bsw/EcuM/src/EcuM_RequestRUN.c.o
 .debug_str     0x00000001004fb094        0x0 CMakeFiles/Basic_workflow.dir/cygdrive/c/ETAS/RTA-CAR_12.2.0/RTA-CAR/workspace/Basic_Workflow/src/bsw/EcuM/src/EcuM_SetState.c.o
 .debug_str     0x00000001004fb094        0xd CMakeFiles/Basic_workflow.dir/cygdrive/c/ETAS/RTA-CAR_12.2.0/RTA-CAR/workspace/Basic_Workflow/src/bsw/EcuM/src/EcuM_Shutdown.c.o
 .debug_str     0x00000001004fb0a1       0x49 CMakeFiles/Basic_workflow.dir/cygdrive/c/ETAS/RTA-CAR_12.2.0/RTA-CAR/workspace/Basic_Workflow/src/bsw/EcuM/src/EcuM_ShutdownServices.c.o
 .debug_str     0x00000001004fb0ea        0x0 CMakeFiles/Basic_workflow.dir/cygdrive/c/ETAS/RTA-CAR_12.2.0/RTA-CAR/workspace/Basic_Workflow/src/bsw/EcuM/src/EcuM_Sleep.c.o
 .debug_str     0x00000001004fb0ea       0xa3 CMakeFiles/Basic_workflow.dir/cygdrive/c/ETAS/RTA-CAR_12.2.0/RTA-CAR/workspace/Basic_Workflow/src/bsw/EcuM/src/EcuM_Startup.c.o
 .debug_str     0x00000001004fb18d        0x8 CMakeFiles/Basic_workflow.dir/cygdrive/c/ETAS/RTA-CAR_12.2.0/RTA-CAR/workspace/Basic_Workflow/src/bsw/EcuM/src/EcuM_WakeupServices.c.o
 .debug_str     0x00000001004fb195        0xa CMakeFiles/Basic_workflow.dir/cygdrive/c/ETAS/RTA-CAR_12.2.0/RTA-CAR/workspace/Basic_Workflow/src/rte/Rte.c.o
 .debug_str     0x00000001004fb19f       0x23 CMakeFiles/Basic_workflow.dir/cygdrive/c/ETAS/RTA-CAR_12.2.0/RTA-CAR/workspace/Basic_Workflow/src/rte/Rte_Lib.c.o
 .debug_str     0x00000001004fb1c2      0x1e8 CMakeFiles/Basic_workflow.dir/cygdrive/c/ETAS/RTA-CAR_12.2.0/RTA-CAR/workspace/Basic_Workflow/src/mcal/Can_Device.cpp.o
 .debug_str     0x00000001004fb3aa       0x6f CMakeFiles/Basic_workflow.dir/cygdrive/c/ETAS/RTA-CAR_12.2.0/RTA-CAR/workspace/Basic_Workflow/src/mcal/Can_HwProvider.cpp.o
 .debug_str     0x00000001004fb419      0x1cf CMakeFiles/Basic_workflow.dir/cygdrive/c/ETAS/RTA-CAR_12.2.0/RTA-CAR/workspace/Basic_Workflow/src/mcal/Can_Implementation.cpp.o
 .debug_str     0x00000001004fb5e8       0xb8 CMakeFiles/Basic_workflow.dir/cygdrive/c/ETAS/RTA-CAR_12.2.0/RTA-CAR/workspace/Basic_Workflow/src/mcal/Mcu_Device.cpp.o
 .debug_str     0x00000001004fb6a0        0xb CMakeFiles/Basic_workflow.dir/cygdrive/c/ETAS/RTA-CAR_12.2.0/RTA-CAR/workspace/Basic_Workflow/src/mcal/Mcu_Implementation.cpp.o
 .debug_str     0x00000001004fb6ab      0x37c CMakeFiles/Basic_workflow.dir/cygdrive/c/ETAS/RTA-CAR_12.2.0/RTA-CAR/workspace/Basic_Workflow/src/mcal/VirtualCan.cpp.o
 .debug_str     0x00000001004fba27       0xdd CMakeFiles/Basic_workflow.dir/cygdrive/c/ETAS/RTA-CAR_12.2.0/RTA-CAR/workspace/Basic_Workflow/src/vrta/VRTA_SystemClock.cpp.o
 .debug_str     0x00000001004fbb04        0x0 CMakeFiles/Basic_workflow.dir/cygdrive/c/ETAS/RTA-CAR_12.2.0/RTA-CAR/workspace/Basic_Workflow/src/vrta/Vrta_Cfg.cpp.o
 .debug_str     0x00000001004fbb04        0x0 CMakeFiles/Basic_workflow.dir/cygdrive/c/ETAS/RTA-CAR_12.2.0/RTA-CAR/workspace/Basic_Workflow/src/vrta/target.cpp.o
 .debug_str     0x00000001004fbb04       0x9e /usr/lib/gcc/x86_64-pc-cygwin/11/libstdc++.a(class_type_info.o)
 .debug_str     0x00000001004fbba2       0x10 /usr/lib/gcc/x86_64-pc-cygwin/11/libstdc++.a(del_ops.o)
 .debug_str     0x00000001004fbbb2        0x0 /usr/lib/gcc/x86_64-pc-cygwin/11/libstdc++.a(del_opv.o)
 .debug_str     0x00000001004fbbb2       0x13 /usr/lib/gcc/x86_64-pc-cygwin/11/libstdc++.a(del_opvs.o)
 .debug_str     0x00000001004fbbc5       0x88 /usr/lib/gcc/x86_64-pc-cygwin/11/libstdc++.a(eh_aux_runtime.o)
 .debug_str     0x00000001004fbc4d      0x1f0 /usr/lib/gcc/x86_64-pc-cygwin/11/libstdc++.a(eh_personality.o)
 .debug_str     0x00000001004fbe3d       0x18 /usr/lib/gcc/x86_64-pc-cygwin/11/libstdc++.a(eh_terminate.o)
 .debug_str     0x00000001004fbe55       0x1f /usr/lib/gcc/x86_64-pc-cygwin/11/libstdc++.a(eh_throw.o)
 .debug_str     0x00000001004fbe74       0x18 /usr/lib/gcc/x86_64-pc-cygwin/11/libstdc++.a(eh_unex_handler.o)
 .debug_str     0x00000001004fbe8c       0x19 /usr/lib/gcc/x86_64-pc-cygwin/11/libstdc++.a(new_op.o)
 .debug_str     0x00000001004fbea5        0x0 /usr/lib/gcc/x86_64-pc-cygwin/11/libstdc++.a(new_opv.o)
 .debug_str     0x00000001004fbea5       0x9a /usr/lib/gcc/x86_64-pc-cygwin/11/libstdc++.a(si_class_type_info.o)
 .debug_str     0x00000001004fbf3f       0x51 /usr/lib/gcc/x86_64-pc-cygwin/11/libstdc++.a(tinfo.o)
 .debug_str     0x00000001004fbf90       0x32 /usr/lib/gcc/x86_64-pc-cygwin/11/libstdc++.a(vterminate.o)
 .debug_str     0x00000001004fbfc2        0xa /usr/lib/gcc/x86_64-pc-cygwin/11/libstdc++.a(bad_alloc.o)
 .debug_str     0x00000001004fbfcc       0x15 /usr/lib/gcc/x86_64-pc-cygwin/11/libstdc++.a(bad_array_new.o)
 .debug_str     0x00000001004fbfe1        0x9 /usr/lib/gcc/x86_64-pc-cygwin/11/libstdc++.a(bad_cast.o)
 .debug_str     0x00000001004fbfea        0xb /usr/lib/gcc/x86_64-pc-cygwin/11/libstdc++.a(bad_typeid.o)
 .debug_str     0x00000001004fbff5      0x10a /usr/lib/gcc/x86_64-pc-cygwin/11/libstdc++.a(cp-demangle.o)
 .debug_str     0x00000001004fc0ff        0x0 /usr/lib/gcc/x86_64-pc-cygwin/11/libstdc++.a(del_op.o)
 .debug_str     0x00000001004fc0ff      0x158 /usr/lib/gcc/x86_64-pc-cygwin/11/libstdc++.a(eh_alloc.o)
 .debug_str     0x00000001004fc257       0x18 /usr/lib/gcc/x86_64-pc-cygwin/11/libstdc++.a(eh_call.o)
 .debug_str     0x00000001004fc26f       0x42 /usr/lib/gcc/x86_64-pc-cygwin/11/libstdc++.a(eh_catch.o)
 .debug_str     0x00000001004fc2b1       0x7a /usr/lib/gcc/x86_64-pc-cygwin/11/libstdc++.a(eh_exception.o)
 .debug_str     0x00000001004fc32b       0x18 /usr/lib/gcc/x86_64-pc-cygwin/11/libstdc++.a(eh_globals.o)
 .debug_str     0x00000001004fc343       0x18 /usr/lib/gcc/x86_64-pc-cygwin/11/libstdc++.a(eh_term_handler.o)
 .debug_str     0x00000001004fc35b       0xae /usr/lib/gcc/x86_64-pc-cygwin/11/libstdc++.a(eh_type.o)
 .debug_str     0x00000001004fc409        0xa /usr/lib/gcc/x86_64-pc-cygwin/11/libstdc++.a(new_handler.o)
 .debug_str     0x00000001004fc413       0x78 /usr/lib/gcc/x86_64-pc-cygwin/11/libgcc.a(_chkstk_ms.o)
 .debug_str     0x00000001004fc48b       0x48 /usr/lib/gcc/x86_64-pc-cygwin/11/libgcc_eh.a(unwind-seh.o)
 .debug_str     0x00000001004fc4d3        0x5 /usr/lib/gcc/x86_64-pc-cygwin/11/libgcc_eh.a(emutls.o)
 .debug_str     0x00000001004fc4d8        0xd /usr/lib/gcc/x86_64-pc-cygwin/11/../../../../lib/libcygwin.a(atexit.o)
 .debug_str     0x00000001004fc4e5        0x0 /usr/lib/gcc/x86_64-pc-cygwin/11/../../../../lib/libcygwin.a(cygwin_crt0.o)
 .debug_str     0x00000001004fc4e5        0x0 /usr/lib/gcc/x86_64-pc-cygwin/11/../../../../lib/libcygwin.a(libcmain.o)
 .debug_str     0x00000001004fc4e5        0x0 /usr/lib/gcc/x86_64-pc-cygwin/11/../../../../lib/libcygwin.a(premain0.o)
 .debug_str     0x00000001004fc4e5        0x0 /usr/lib/gcc/x86_64-pc-cygwin/11/../../../../lib/libcygwin.a(premain1.o)
 .debug_str     0x00000001004fc4e5        0x0 /usr/lib/gcc/x86_64-pc-cygwin/11/../../../../lib/libcygwin.a(premain2.o)
 .debug_str     0x00000001004fc4e5        0x0 /usr/lib/gcc/x86_64-pc-cygwin/11/../../../../lib/libcygwin.a(premain3.o)
 .debug_str     0x00000001004fc4e5       0x67 /usr/lib/gcc/x86_64-pc-cygwin/11/../../../../lib/libcygwin.a(_cygwin_crt0_common.o)
 .debug_str     0x00000001004fc54c        0x0 /usr/lib/gcc/x86_64-pc-cygwin/11/../../../../lib/libcygwin.a(dll_entry.o)
 .debug_str     0x00000001004fc54c        0x0 /usr/lib/gcc/x86_64-pc-cygwin/11/../../../../lib/libcygwin.a(dll_main.o)
 .debug_str     0x00000001004fc54c        0x0 /usr/lib/gcc/x86_64-pc-cygwin/11/../../../../lib/libcygwin.a(pseudo-reloc-dummy.o)
 .debug_str     0x00000001004fc54c        0xe /usr/lib/gcc/x86_64-pc-cygwin/11/../../../../lib/libcygwin.a(cygwin_attach_dll.o)
 .debug_str     0x00000001004fc55a        0x0 /usr/lib/gcc/x86_64-pc-cygwin/11/libgcc.a(_ctors.o)

.zdebug_str
 *(.zdebug_str)

.debug_loc
 *(.debug_loc)

.zdebug_loc
 *(.zdebug_loc)

.debug_macinfo
 *(.debug_macinfo)

.zdebug_macinfo
 *(.zdebug_macinfo)

.debug_weaknames
 *(.debug_weaknames)

.zdebug_weaknames
 *(.zdebug_weaknames)

.debug_funcnames
 *(.debug_funcnames)

.zdebug_funcnames
 *(.zdebug_funcnames)

.debug_typenames
 *(.debug_typenames)

.zdebug_typenames
 *(.zdebug_typenames)

.debug_varnames
 *(.debug_varnames)

.zdebug_varnames
 *(.zdebug_varnames)

.debug_pubtypes
 *(.debug_pubtypes)

.zdebug_pubtypes
 *(.zdebug_pubtypes)

.debug_ranges
 *(.debug_ranges)

.zdebug_ranges
 *(.zdebug_ranges)

.debug_types
 *(.debug_types .gnu.linkonce.wt.*)

.zdebug_types
 *(.zdebug_types .gnu.linkonce.wt.*)

.debug_addr
 *(.debug_addr)

.zdebug_addr
 *(.zdebug_addr)

.debug_line_str
                0x00000001004fd000     0xfe00
 *(.debug_line_str)
 .debug_line_str
                0x00000001004fd000      0x227 /usr/lib/gcc/x86_64-pc-cygwin/11/../../../../lib/crt0.o
 .debug_line_str
                0x00000001004fd227      0x8ed CMakeFiles/Basic_workflow.dir/Unity/unity_4_c.c.o
 .debug_line_str
                0x00000001004fdb14      0x978 CMakeFiles/Basic_workflow.dir/Unity/unity_3_c.c.o
 .debug_line_str
                0x00000001004fe48c      0x82c CMakeFiles/Basic_workflow.dir/Unity/unity_2_c.c.o
 .debug_line_str
                0x00000001004fecb8      0xab8 CMakeFiles/Basic_workflow.dir/Unity/unity_1_c.c.o
 .debug_line_str
                0x00000001004ff770      0xade CMakeFiles/Basic_workflow.dir/Unity/unity_0_c.c.o
 .debug_line_str
                0x000000010050024e      0x2eb CMakeFiles/Basic_workflow.dir/cygdrive/c/ETAS/RTA-CAR_12.2.0/RTA-CAR/workspace/Basic_Workflow/src/asw/MySWC.c.o
 .debug_line_str
                0x0000000100500539      0x2e8 CMakeFiles/Basic_workflow.dir/cygdrive/c/ETAS/RTA-CAR_12.2.0/RTA-CAR/workspace/Basic_Workflow/src/bsw/Det/src/Det.c.o
 .debug_line_str
                0x0000000100500821      0x283 CMakeFiles/Basic_workflow.dir/cygdrive/c/ETAS/RTA-CAR_12.2.0/RTA-CAR/workspace/Basic_Workflow/src/bsw/EcuM/EcuM_Cfg.c.o
 .debug_line_str
                0x0000000100500aa4      0x175 CMakeFiles/Basic_workflow.dir/cygdrive/c/ETAS/RTA-CAR_12.2.0/RTA-CAR/workspace/Basic_Workflow/src/bsw/EcuM/EcuM_Cfg_PbExt.c.o
 .debug_line_str
                0x0000000100500c19      0x172 CMakeFiles/Basic_workflow.dir/cygdrive/c/ETAS/RTA-CAR_12.2.0/RTA-CAR/workspace/Basic_Workflow/src/bsw/EcuM/EcuM_Cfg_RbMo.c.o
 .debug_line_str
                0x0000000100500d8b       0xb5 CMakeFiles/Basic_workflow.dir/cygdrive/c/ETAS/RTA-CAR_12.2.0/RTA-CAR/workspace/Basic_Workflow/src/bsw/EcuM/EcuM_Cfg_Shutdown.c.o
 .debug_line_str
                0x0000000100500e40      0x175 CMakeFiles/Basic_workflow.dir/cygdrive/c/ETAS/RTA-CAR_12.2.0/RTA-CAR/workspace/Basic_Workflow/src/bsw/EcuM/EcuM_Cfg_Sleep.c.o
 .debug_line_str
                0x0000000100500fb5      0x7b8 CMakeFiles/Basic_workflow.dir/cygdrive/c/ETAS/RTA-CAR_12.2.0/RTA-CAR/workspace/Basic_Workflow/src/bsw/EcuM/EcuM_Cfg_Startup.c.o
 .debug_line_str
                0x000000010050176d      0x184 CMakeFiles/Basic_workflow.dir/cygdrive/c/ETAS/RTA-CAR_12.2.0/RTA-CAR/workspace/Basic_Workflow/src/bsw/EcuM/EcuM_Cfg_SynchPoint.c.o
 .debug_line_str
                0x00000001005018f1      0x1d7 CMakeFiles/Basic_workflow.dir/cygdrive/c/ETAS/RTA-CAR_12.2.0/RTA-CAR/workspace/Basic_Workflow/src/bsw/EcuM/EcuM_Lcfg.c.o
 .debug_line_str
                0x0000000100501ac8      0x69b CMakeFiles/Basic_workflow.dir/cygdrive/c/ETAS/RTA-CAR_12.2.0/RTA-CAR/workspace/Basic_Workflow/src/bsw/EcuM/EcuM_PBcfg.c.o
 .debug_line_str
                0x0000000100502163      0x719 CMakeFiles/Basic_workflow.dir/cygdrive/c/ETAS/RTA-CAR_12.2.0/RTA-CAR/workspace/Basic_Workflow/src/bsw/EcuM/integration/EcuM_Callout_Stubs.c.o
 .debug_line_str
                0x000000010050287c      0x2bb CMakeFiles/Basic_workflow.dir/cygdrive/c/ETAS/RTA-CAR_12.2.0/RTA-CAR/workspace/Basic_Workflow/src/bsw/EcuM/src/EcuM_BootTarget.c.o
 .debug_line_str
                0x0000000100502b37      0x172 CMakeFiles/Basic_workflow.dir/cygdrive/c/ETAS/RTA-CAR_12.2.0/RTA-CAR/workspace/Basic_Workflow/src/bsw/EcuM/src/EcuM_CurrentState.c.o
 .debug_line_str
                0x0000000100502ca9      0x178 CMakeFiles/Basic_workflow.dir/cygdrive/c/ETAS/RTA-CAR_12.2.0/RTA-CAR/workspace/Basic_Workflow/src/bsw/EcuM/src/EcuM_KillAllRequests.c.o
 .debug_line_str
                0x0000000100502e21      0x49c CMakeFiles/Basic_workflow.dir/cygdrive/c/ETAS/RTA-CAR_12.2.0/RTA-CAR/workspace/Basic_Workflow/src/bsw/EcuM/src/EcuM_MainFunction.c.o
 .debug_line_str
                0x00000001005032bd      0x162 CMakeFiles/Basic_workflow.dir/cygdrive/c/ETAS/RTA-CAR_12.2.0/RTA-CAR/workspace/Basic_Workflow/src/bsw/EcuM/src/EcuM_Misc.c.o
 .debug_line_str
                0x000000010050341f      0x805 CMakeFiles/Basic_workflow.dir/cygdrive/c/ETAS/RTA-CAR_12.2.0/RTA-CAR/workspace/Basic_Workflow/src/bsw/EcuM/src/EcuM_Prv.c.o
 .debug_line_str
                0x0000000100503c24      0x176 CMakeFiles/Basic_workflow.dir/cygdrive/c/ETAS/RTA-CAR_12.2.0/RTA-CAR/workspace/Basic_Workflow/src/bsw/EcuM/src/EcuM_Prv_RteActions.c.o
 .debug_line_str
                0x0000000100503d9a      0x178 CMakeFiles/Basic_workflow.dir/cygdrive/c/ETAS/RTA-CAR_12.2.0/RTA-CAR/workspace/Basic_Workflow/src/bsw/EcuM/src/EcuM_ReleasePOST_RUN.c.o
 .debug_line_str
                0x0000000100503f12      0x16e CMakeFiles/Basic_workflow.dir/cygdrive/c/ETAS/RTA-CAR_12.2.0/RTA-CAR/workspace/Basic_Workflow/src/bsw/EcuM/src/EcuM_ReleaseRUN.c.o
 .debug_line_str
                0x0000000100504080      0x178 CMakeFiles/Basic_workflow.dir/cygdrive/c/ETAS/RTA-CAR_12.2.0/RTA-CAR/workspace/Basic_Workflow/src/bsw/EcuM/src/EcuM_RequestPOST_RUN.c.o
 .debug_line_str
                0x00000001005041f8      0x16e CMakeFiles/Basic_workflow.dir/cygdrive/c/ETAS/RTA-CAR_12.2.0/RTA-CAR/workspace/Basic_Workflow/src/bsw/EcuM/src/EcuM_RequestRUN.c.o
 .debug_line_str
                0x0000000100504366      0x16a CMakeFiles/Basic_workflow.dir/cygdrive/c/ETAS/RTA-CAR_12.2.0/RTA-CAR/workspace/Basic_Workflow/src/bsw/EcuM/src/EcuM_SetState.c.o
 .debug_line_str
                0x00000001005044d0      0x323 CMakeFiles/Basic_workflow.dir/cygdrive/c/ETAS/RTA-CAR_12.2.0/RTA-CAR/workspace/Basic_Workflow/src/bsw/EcuM/src/EcuM_Shutdown.c.o
 .debug_line_str
                0x00000001005047f3      0x32c CMakeFiles/Basic_workflow.dir/cygdrive/c/ETAS/RTA-CAR_12.2.0/RTA-CAR/workspace/Basic_Workflow/src/bsw/EcuM/src/EcuM_ShutdownServices.c.o
 .debug_line_str
                0x0000000100504b1f      0x164 CMakeFiles/Basic_workflow.dir/cygdrive/c/ETAS/RTA-CAR_12.2.0/RTA-CAR/workspace/Basic_Workflow/src/bsw/EcuM/src/EcuM_Sleep.c.o
 .debug_line_str
                0x0000000100504c83      0x775 CMakeFiles/Basic_workflow.dir/cygdrive/c/ETAS/RTA-CAR_12.2.0/RTA-CAR/workspace/Basic_Workflow/src/bsw/EcuM/src/EcuM_Startup.c.o
 .debug_line_str
                0x00000001005053f8      0x3cd CMakeFiles/Basic_workflow.dir/cygdrive/c/ETAS/RTA-CAR_12.2.0/RTA-CAR/workspace/Basic_Workflow/src/bsw/EcuM/src/EcuM_WakeupServices.c.o
 .debug_line_str
                0x00000001005057c5      0x372 CMakeFiles/Basic_workflow.dir/cygdrive/c/ETAS/RTA-CAR_12.2.0/RTA-CAR/workspace/Basic_Workflow/src/rte/Rte.c.o
 .debug_line_str
                0x0000000100505b37      0x232 CMakeFiles/Basic_workflow.dir/cygdrive/c/ETAS/RTA-CAR_12.2.0/RTA-CAR/workspace/Basic_Workflow/src/rte/Rte_Lib.c.o
 .debug_line_str
                0x0000000100505d69      0x344 CMakeFiles/Basic_workflow.dir/cygdrive/c/ETAS/RTA-CAR_12.2.0/RTA-CAR/workspace/Basic_Workflow/src/mcal/Can_Device.cpp.o
 .debug_line_str
                0x00000001005060ad      0x28b CMakeFiles/Basic_workflow.dir/cygdrive/c/ETAS/RTA-CAR_12.2.0/RTA-CAR/workspace/Basic_Workflow/src/mcal/Can_HwProvider.cpp.o
 .debug_line_str
                0x0000000100506338      0x369 CMakeFiles/Basic_workflow.dir/cygdrive/c/ETAS/RTA-CAR_12.2.0/RTA-CAR/workspace/Basic_Workflow/src/mcal/Can_Implementation.cpp.o
 .debug_line_str
                0x00000001005066a1      0x24e CMakeFiles/Basic_workflow.dir/cygdrive/c/ETAS/RTA-CAR_12.2.0/RTA-CAR/workspace/Basic_Workflow/src/mcal/Mcu_Device.cpp.o
 .debug_line_str
                0x00000001005068ef      0x216 CMakeFiles/Basic_workflow.dir/cygdrive/c/ETAS/RTA-CAR_12.2.0/RTA-CAR/workspace/Basic_Workflow/src/mcal/Mcu_Implementation.cpp.o
 .debug_line_str
                0x0000000100506b05      0x471 CMakeFiles/Basic_workflow.dir/cygdrive/c/ETAS/RTA-CAR_12.2.0/RTA-CAR/workspace/Basic_Workflow/src/mcal/VirtualCan.cpp.o
 .debug_line_str
                0x0000000100506f76      0x1f5 CMakeFiles/Basic_workflow.dir/cygdrive/c/ETAS/RTA-CAR_12.2.0/RTA-CAR/workspace/Basic_Workflow/src/vrta/VRTA_SystemClock.cpp.o
 .debug_line_str
                0x000000010050716b      0x161 CMakeFiles/Basic_workflow.dir/cygdrive/c/ETAS/RTA-CAR_12.2.0/RTA-CAR/workspace/Basic_Workflow/src/vrta/Vrta_Cfg.cpp.o
 .debug_line_str
                0x00000001005072cc      0x2fa CMakeFiles/Basic_workflow.dir/cygdrive/c/ETAS/RTA-CAR_12.2.0/RTA-CAR/workspace/Basic_Workflow/src/vrta/target.cpp.o
 .debug_line_str
                0x00000001005075c6      0x220 /usr/lib/gcc/x86_64-pc-cygwin/11/libstdc++.a(class_type_info.o)
 .debug_line_str
                0x00000001005077e6      0x177 /usr/lib/gcc/x86_64-pc-cygwin/11/libstdc++.a(del_ops.o)
 .debug_line_str
                0x000000010050795d      0x177 /usr/lib/gcc/x86_64-pc-cygwin/11/libstdc++.a(del_opv.o)
 .debug_line_str
                0x0000000100507ad4      0x17a /usr/lib/gcc/x86_64-pc-cygwin/11/libstdc++.a(del_opvs.o)
 .debug_line_str
                0x0000000100507c4e      0x2d9 /usr/lib/gcc/x86_64-pc-cygwin/11/libstdc++.a(eh_aux_runtime.o)
 .debug_line_str
                0x0000000100507f27      0x356 /usr/lib/gcc/x86_64-pc-cygwin/11/libstdc++.a(eh_personality.o)
 .debug_line_str
                0x000000010050827d      0x2c3 /usr/lib/gcc/x86_64-pc-cygwin/11/libstdc++.a(eh_terminate.o)
 .debug_line_str
                0x0000000100508540      0x2d2 /usr/lib/gcc/x86_64-pc-cygwin/11/libstdc++.a(eh_throw.o)
 .debug_line_str
                0x0000000100508812      0x2cc /usr/lib/gcc/x86_64-pc-cygwin/11/libstdc++.a(eh_unex_handler.o)
 .debug_line_str
                0x0000000100508ade      0x258 /usr/lib/gcc/x86_64-pc-cygwin/11/libstdc++.a(new_op.o)
 .debug_line_str
                0x0000000100508d36      0x177 /usr/lib/gcc/x86_64-pc-cygwin/11/libstdc++.a(new_opv.o)
 .debug_line_str
                0x0000000100508ead      0x229 /usr/lib/gcc/x86_64-pc-cygwin/11/libstdc++.a(si_class_type_info.o)
 .debug_line_str
                0x00000001005090d6      0x202 /usr/lib/gcc/x86_64-pc-cygwin/11/libstdc++.a(tinfo.o)
 .debug_line_str
                0x00000001005092d8      0x2d2 /usr/lib/gcc/x86_64-pc-cygwin/11/libstdc++.a(vterminate.o)
 .debug_line_str
                0x00000001005095aa      0x1d0 /usr/lib/gcc/x86_64-pc-cygwin/11/libstdc++.a(bad_alloc.o)
 .debug_line_str
                0x000000010050977a      0x189 /usr/lib/gcc/x86_64-pc-cygwin/11/libstdc++.a(bad_array_new.o)
 .debug_line_str
                0x0000000100509903      0x1d2 /usr/lib/gcc/x86_64-pc-cygwin/11/libstdc++.a(bad_cast.o)
 .debug_line_str
                0x0000000100509ad5      0x1d8 /usr/lib/gcc/x86_64-pc-cygwin/11/libstdc++.a(bad_typeid.o)
 .debug_line_str
                0x0000000100509cad      0x198 /usr/lib/gcc/x86_64-pc-cygwin/11/libstdc++.a(cp-demangle.o)
 .debug_line_str
                0x0000000100509e45      0x201 /usr/lib/gcc/x86_64-pc-cygwin/11/libstdc++.a(del_op.o)
 .debug_line_str
                0x000000010050a046      0x37e /usr/lib/gcc/x86_64-pc-cygwin/11/libstdc++.a(eh_alloc.o)
 .debug_line_str
                0x000000010050a3c4      0x2b4 /usr/lib/gcc/x86_64-pc-cygwin/11/libstdc++.a(eh_call.o)
 .debug_line_str
                0x000000010050a678      0x2b7 /usr/lib/gcc/x86_64-pc-cygwin/11/libstdc++.a(eh_catch.o)
 .debug_line_str
                0x000000010050a92f      0x294 /usr/lib/gcc/x86_64-pc-cygwin/11/libstdc++.a(eh_exception.o)
 .debug_line_str
                0x000000010050abc3      0x2cc /usr/lib/gcc/x86_64-pc-cygwin/11/libstdc++.a(eh_globals.o)
 .debug_line_str
                0x000000010050ae8f      0x2cc /usr/lib/gcc/x86_64-pc-cygwin/11/libstdc++.a(eh_term_handler.o)
 .debug_line_str
                0x000000010050b15b      0x2b4 /usr/lib/gcc/x86_64-pc-cygwin/11/libstdc++.a(eh_type.o)
 .debug_line_str
                0x000000010050b40f      0x183 /usr/lib/gcc/x86_64-pc-cygwin/11/libstdc++.a(new_handler.o)
 .debug_line_str
                0x000000010050b592       0x6c /usr/lib/gcc/x86_64-pc-cygwin/11/libgcc.a(_chkstk_ms.o)
 .debug_line_str
                0x000000010050b5fe      0x173 /usr/lib/gcc/x86_64-pc-cygwin/11/libgcc_eh.a(unwind-seh.o)
 .debug_line_str
                0x000000010050b771      0x19d /usr/lib/gcc/x86_64-pc-cygwin/11/libgcc_eh.a(emutls.o)
 .debug_line_str
                0x000000010050b90e      0x265 /usr/lib/gcc/x86_64-pc-cygwin/11/../../../../lib/libcygwin.a(atexit.o)
 .debug_line_str
                0x000000010050bb73      0x10b /usr/lib/gcc/x86_64-pc-cygwin/11/../../../../lib/libcygwin.a(cygwin_crt0.o)
 .debug_line_str
                0x000000010050bc7e      0x1d5 /usr/lib/gcc/x86_64-pc-cygwin/11/../../../../lib/libcygwin.a(libcmain.o)
 .debug_line_str
                0x000000010050be53       0xfb /usr/lib/gcc/x86_64-pc-cygwin/11/../../../../lib/libcygwin.a(premain0.o)
 .debug_line_str
                0x000000010050bf4e       0xfb /usr/lib/gcc/x86_64-pc-cygwin/11/../../../../lib/libcygwin.a(premain1.o)
 .debug_line_str
                0x000000010050c049       0xfb /usr/lib/gcc/x86_64-pc-cygwin/11/../../../../lib/libcygwin.a(premain2.o)
 .debug_line_str
                0x000000010050c144       0xfb /usr/lib/gcc/x86_64-pc-cygwin/11/../../../../lib/libcygwin.a(premain3.o)
 .debug_line_str
                0x000000010050c23f      0x3fb /usr/lib/gcc/x86_64-pc-cygwin/11/../../../../lib/libcygwin.a(_cygwin_crt0_common.o)
 .debug_line_str
                0x000000010050c63a      0x13c /usr/lib/gcc/x86_64-pc-cygwin/11/../../../../lib/libcygwin.a(dll_entry.o)
 .debug_line_str
                0x000000010050c776      0x11e /usr/lib/gcc/x86_64-pc-cygwin/11/../../../../lib/libcygwin.a(dll_main.o)
 .debug_line_str
                0x000000010050c894      0x119 /usr/lib/gcc/x86_64-pc-cygwin/11/../../../../lib/libcygwin.a(pseudo-reloc-dummy.o)
 .debug_line_str
                0x000000010050c9ad      0x265 /usr/lib/gcc/x86_64-pc-cygwin/11/../../../../lib/libcygwin.a(cygwin_attach_dll.o)
 .debug_line_str
                0x000000010050cc12      0x115 /usr/lib/gcc/x86_64-pc-cygwin/11/libgcc.a(_ctors.o)

.zdebug_line_str
 *(.zdebug_line_str)

.debug_loclists
                0x000000010050d000     0xe800
 *(.debug_loclists)
 .debug_loclists
                0x000000010050d000      0x36c /usr/lib/gcc/x86_64-pc-cygwin/11/libstdc++.a(class_type_info.o)
 .debug_loclists
                0x000000010050d36c       0x27 /usr/lib/gcc/x86_64-pc-cygwin/11/libstdc++.a(del_ops.o)
 .debug_loclists
                0x000000010050d393       0x27 /usr/lib/gcc/x86_64-pc-cygwin/11/libstdc++.a(del_opv.o)
 .debug_loclists
                0x000000010050d3ba       0x27 /usr/lib/gcc/x86_64-pc-cygwin/11/libstdc++.a(del_opvs.o)
 .debug_loclists
                0x000000010050d3e1       0x90 /usr/lib/gcc/x86_64-pc-cygwin/11/libstdc++.a(eh_aux_runtime.o)
 .debug_loclists
                0x000000010050d471     0x1551 /usr/lib/gcc/x86_64-pc-cygwin/11/libstdc++.a(eh_personality.o)
 .debug_loclists
                0x000000010050e9c2       0xdc /usr/lib/gcc/x86_64-pc-cygwin/11/libstdc++.a(eh_terminate.o)
 .debug_loclists
                0x000000010050ea9e      0x2a6 /usr/lib/gcc/x86_64-pc-cygwin/11/libstdc++.a(eh_throw.o)
 .debug_loclists
                0x000000010050ed44       0x8e /usr/lib/gcc/x86_64-pc-cygwin/11/libstdc++.a(new_op.o)
 .debug_loclists
                0x000000010050edd2       0x27 /usr/lib/gcc/x86_64-pc-cygwin/11/libstdc++.a(new_opv.o)
 .debug_loclists
                0x000000010050edf9      0x469 /usr/lib/gcc/x86_64-pc-cygwin/11/libstdc++.a(si_class_type_info.o)
 .debug_loclists
                0x000000010050f262      0x10e /usr/lib/gcc/x86_64-pc-cygwin/11/libstdc++.a(tinfo.o)
 .debug_loclists
                0x000000010050f370       0xba /usr/lib/gcc/x86_64-pc-cygwin/11/libstdc++.a(vterminate.o)
 .debug_loclists
                0x000000010050f42a       0x68 /usr/lib/gcc/x86_64-pc-cygwin/11/libstdc++.a(bad_alloc.o)
 .debug_loclists
                0x000000010050f492       0x68 /usr/lib/gcc/x86_64-pc-cygwin/11/libstdc++.a(bad_array_new.o)
 .debug_loclists
                0x000000010050f4fa       0x68 /usr/lib/gcc/x86_64-pc-cygwin/11/libstdc++.a(bad_cast.o)
 .debug_loclists
                0x000000010050f562       0x68 /usr/lib/gcc/x86_64-pc-cygwin/11/libstdc++.a(bad_typeid.o)
 .debug_loclists
                0x000000010050f5ca     0xaa54 /usr/lib/gcc/x86_64-pc-cygwin/11/libstdc++.a(cp-demangle.o)
 .debug_loclists
                0x000000010051a01e       0x27 /usr/lib/gcc/x86_64-pc-cygwin/11/libstdc++.a(del_op.o)
 .debug_loclists
                0x000000010051a045      0x7d8 /usr/lib/gcc/x86_64-pc-cygwin/11/libstdc++.a(eh_alloc.o)
 .debug_loclists
                0x000000010051a81d       0x46 /usr/lib/gcc/x86_64-pc-cygwin/11/libstdc++.a(eh_call.o)
 .debug_loclists
                0x000000010051a863      0x273 /usr/lib/gcc/x86_64-pc-cygwin/11/libstdc++.a(eh_catch.o)
 .debug_loclists
                0x000000010051aad6       0xd2 /usr/lib/gcc/x86_64-pc-cygwin/11/libstdc++.a(eh_exception.o)
 .debug_loclists
                0x000000010051aba8       0x73 /usr/lib/gcc/x86_64-pc-cygwin/11/libstdc++.a(eh_type.o)
 .debug_loclists
                0x000000010051ac1b       0x2a /usr/lib/gcc/x86_64-pc-cygwin/11/libstdc++.a(new_handler.o)
 .debug_loclists
                0x000000010051ac45      0x3e0 /usr/lib/gcc/x86_64-pc-cygwin/11/libgcc_eh.a(unwind-seh.o)
 .debug_loclists
                0x000000010051b025      0x2ef /usr/lib/gcc/x86_64-pc-cygwin/11/libgcc_eh.a(emutls.o)
 .debug_loclists
                0x000000010051b314       0x34 /usr/lib/gcc/x86_64-pc-cygwin/11/../../../../lib/libcygwin.a(atexit.o)
 .debug_loclists
                0x000000010051b348       0x1e /usr/lib/gcc/x86_64-pc-cygwin/11/../../../../lib/libcygwin.a(cygwin_crt0.o)
 .debug_loclists
                0x000000010051b366       0x91 /usr/lib/gcc/x86_64-pc-cygwin/11/../../../../lib/libcygwin.a(libcmain.o)
 .debug_loclists
                0x000000010051b3f7       0xb6 /usr/lib/gcc/x86_64-pc-cygwin/11/../../../../lib/libcygwin.a(_cygwin_crt0_common.o)
 .debug_loclists
                0x000000010051b4ad      0x157 /usr/lib/gcc/x86_64-pc-cygwin/11/../../../../lib/libcygwin.a(dll_entry.o)
 .debug_loclists
                0x000000010051b604       0x45 /usr/lib/gcc/x86_64-pc-cygwin/11/../../../../lib/libcygwin.a(cygwin_attach_dll.o)

.zdebug_loclists
 *(.zdebug_loclists)

.debug_macro
 *(.debug_macro)

.zdebug_macro
 *(.zdebug_macro)

.debug_names
 *(.debug_names)

.zdebug_names
 *(.zdebug_names)

.debug_rnglists
                0x000000010051c000     0x3000
 *(.debug_rnglists)
 .debug_rnglists
                0x000000010051c000       0x64 CMakeFiles/Basic_workflow.dir/Unity/unity_3_c.c.o
 .debug_rnglists
                0x000000010051c064       0x59 CMakeFiles/Basic_workflow.dir/Unity/unity_2_c.c.o
 .debug_rnglists
                0x000000010051c0bd       0x17 CMakeFiles/Basic_workflow.dir/Unity/unity_1_c.c.o
 .debug_rnglists
                0x000000010051c0d4       0x17 CMakeFiles/Basic_workflow.dir/Unity/unity_0_c.c.o
 .debug_rnglists
                0x000000010051c0eb       0x13 CMakeFiles/Basic_workflow.dir/cygdrive/c/ETAS/RTA-CAR_12.2.0/RTA-CAR/workspace/Basic_Workflow/src/bsw/EcuM/src/EcuM_BootTarget.c.o
 .debug_rnglists
                0x000000010051c0fe       0x17 CMakeFiles/Basic_workflow.dir/cygdrive/c/ETAS/RTA-CAR_12.2.0/RTA-CAR/workspace/Basic_Workflow/src/bsw/EcuM/src/EcuM_Shutdown.c.o
 .debug_rnglists
                0x000000010051c115       0x17 CMakeFiles/Basic_workflow.dir/cygdrive/c/ETAS/RTA-CAR_12.2.0/RTA-CAR/workspace/Basic_Workflow/src/rte/Rte_Lib.c.o
 .debug_rnglists
                0x000000010051c12c      0x394 CMakeFiles/Basic_workflow.dir/cygdrive/c/ETAS/RTA-CAR_12.2.0/RTA-CAR/workspace/Basic_Workflow/src/mcal/Can_Device.cpp.o
 .debug_rnglists
                0x000000010051c4c0       0x17 CMakeFiles/Basic_workflow.dir/cygdrive/c/ETAS/RTA-CAR_12.2.0/RTA-CAR/workspace/Basic_Workflow/src/mcal/Can_HwProvider.cpp.o
 .debug_rnglists
                0x000000010051c4d7       0x77 CMakeFiles/Basic_workflow.dir/cygdrive/c/ETAS/RTA-CAR_12.2.0/RTA-CAR/workspace/Basic_Workflow/src/mcal/Can_Implementation.cpp.o
 .debug_rnglists
                0x000000010051c54e       0xe4 CMakeFiles/Basic_workflow.dir/cygdrive/c/ETAS/RTA-CAR_12.2.0/RTA-CAR/workspace/Basic_Workflow/src/mcal/Mcu_Device.cpp.o
 .debug_rnglists
                0x000000010051c632      0x38d CMakeFiles/Basic_workflow.dir/cygdrive/c/ETAS/RTA-CAR_12.2.0/RTA-CAR/workspace/Basic_Workflow/src/mcal/VirtualCan.cpp.o
 .debug_rnglists
                0x000000010051c9bf       0x40 CMakeFiles/Basic_workflow.dir/cygdrive/c/ETAS/RTA-CAR_12.2.0/RTA-CAR/workspace/Basic_Workflow/src/vrta/VRTA_SystemClock.cpp.o
 .debug_rnglists
                0x000000010051c9ff       0x96 /usr/lib/gcc/x86_64-pc-cygwin/11/libstdc++.a(class_type_info.o)
 .debug_rnglists
                0x000000010051ca95       0x17 /usr/lib/gcc/x86_64-pc-cygwin/11/libstdc++.a(del_ops.o)
 .debug_rnglists
                0x000000010051caac       0x17 /usr/lib/gcc/x86_64-pc-cygwin/11/libstdc++.a(del_opv.o)
 .debug_rnglists
                0x000000010051cac3       0x17 /usr/lib/gcc/x86_64-pc-cygwin/11/libstdc++.a(del_opvs.o)
 .debug_rnglists
                0x000000010051cada       0x2b /usr/lib/gcc/x86_64-pc-cygwin/11/libstdc++.a(eh_aux_runtime.o)
 .debug_rnglists
                0x000000010051cb05      0x1d9 /usr/lib/gcc/x86_64-pc-cygwin/11/libstdc++.a(eh_personality.o)
 .debug_rnglists
                0x000000010051ccde       0x5d /usr/lib/gcc/x86_64-pc-cygwin/11/libstdc++.a(eh_terminate.o)
 .debug_rnglists
                0x000000010051cd3b       0x55 /usr/lib/gcc/x86_64-pc-cygwin/11/libstdc++.a(eh_throw.o)
 .debug_rnglists
                0x000000010051cd90       0x17 /usr/lib/gcc/x86_64-pc-cygwin/11/libstdc++.a(new_op.o)
 .debug_rnglists
                0x000000010051cda7       0x17 /usr/lib/gcc/x86_64-pc-cygwin/11/libstdc++.a(new_opv.o)
 .debug_rnglists
                0x000000010051cdbe       0x60 /usr/lib/gcc/x86_64-pc-cygwin/11/libstdc++.a(si_class_type_info.o)
 .debug_rnglists
                0x000000010051ce1e       0x49 /usr/lib/gcc/x86_64-pc-cygwin/11/libstdc++.a(tinfo.o)
 .debug_rnglists
                0x000000010051ce67       0x6d /usr/lib/gcc/x86_64-pc-cygwin/11/libstdc++.a(vterminate.o)
 .debug_rnglists
                0x000000010051ced4       0x3b /usr/lib/gcc/x86_64-pc-cygwin/11/libstdc++.a(bad_alloc.o)
 .debug_rnglists
                0x000000010051cf0f       0x3b /usr/lib/gcc/x86_64-pc-cygwin/11/libstdc++.a(bad_array_new.o)
 .debug_rnglists
                0x000000010051cf4a       0x3b /usr/lib/gcc/x86_64-pc-cygwin/11/libstdc++.a(bad_cast.o)
 .debug_rnglists
                0x000000010051cf85       0x3b /usr/lib/gcc/x86_64-pc-cygwin/11/libstdc++.a(bad_typeid.o)
 .debug_rnglists
                0x000000010051cfc0     0x1bc0 /usr/lib/gcc/x86_64-pc-cygwin/11/libstdc++.a(cp-demangle.o)
 .debug_rnglists
                0x000000010051eb80       0x17 /usr/lib/gcc/x86_64-pc-cygwin/11/libstdc++.a(del_op.o)
 .debug_rnglists
                0x000000010051eb97      0x18e /usr/lib/gcc/x86_64-pc-cygwin/11/libstdc++.a(eh_alloc.o)
 .debug_rnglists
                0x000000010051ed25       0x17 /usr/lib/gcc/x86_64-pc-cygwin/11/libstdc++.a(eh_call.o)
 .debug_rnglists
                0x000000010051ed3c       0x60 /usr/lib/gcc/x86_64-pc-cygwin/11/libstdc++.a(eh_catch.o)
 .debug_rnglists
                0x000000010051ed9c       0x7b /usr/lib/gcc/x86_64-pc-cygwin/11/libstdc++.a(eh_exception.o)
 .debug_rnglists
                0x000000010051ee17       0x17 /usr/lib/gcc/x86_64-pc-cygwin/11/libstdc++.a(eh_globals.o)
 .debug_rnglists
                0x000000010051ee2e       0x17 /usr/lib/gcc/x86_64-pc-cygwin/11/libstdc++.a(eh_type.o)
 .debug_rnglists
                0x000000010051ee45       0x21 /usr/lib/gcc/x86_64-pc-cygwin/11/libstdc++.a(new_handler.o)
 .debug_rnglists
                0x000000010051ee66       0x17 /usr/lib/gcc/x86_64-pc-cygwin/11/libgcc_eh.a(unwind-seh.o)
 .debug_rnglists
                0x000000010051ee7d       0x42 /usr/lib/gcc/x86_64-pc-cygwin/11/libgcc_eh.a(emutls.o)
 .debug_rnglists
                0x000000010051eebf       0x18 /usr/lib/gcc/x86_64-pc-cygwin/11/../../../../lib/libcygwin.a(libcmain.o)

.zdebug_rnglists
 *(.zdebug_rnglists)

.debug_str_offsets
 *(.debug_str_offsets)

.zdebug_str_offsets
 *(.zdebug_str_offsets)

.debug_sup
 *(.debug_sup)

.debug_gdb_scripts
 *(.debug_gdb_scripts)

.zdebug_gdb_scripts
 *(.zdebug_gdb_scripts)
OUTPUT(/cygdrive/c/ETAS/RTA-CAR_12.2.0/RTA-CAR/workspace/Basic_Workflow/build/output/Basic_workflow.exe pei-x86-64)
LOAD dll stuff
